
RT-thread_system.elf:     file format elf32-littlearm

Sections:
Idx Name          Size      VMA       LMA       File off  Algn
  0 .isr_vector   00000190  0800d000  0800d000  0000d000  2**0
                  CONTENTS, ALLOC, LOAD, READONLY, DATA
  1 .text         00004ad8  0800d800  0800d800  0000d800  2**3
                  CONTENTS, ALLOC, LOAD, READONLY, CODE
  2 .rodata       00000be8  080122d8  080122d8  000122d8  2**2
                  CONTENTS, ALLOC, LOAD, READONLY, DATA
  3 .rti_fn.0.end 00000004  08012ec0  08012ec0  00012ec0  2**2
                  CONTENTS, ALLOC, LOAD, READONLY, DATA
  4 .rti_fn.1.end 00000004  08012ec4  08012ec4  00012ec4  2**2
                  CONTENTS, ALLOC, LOAD, READONLY, DATA
  5 .ARM.extab    00000000  08012ec8  08012ec8  000140a0  2**0
                  CONTENTS
  6 .ARM          00000008  08012ec8  08012ec8  00012ec8  2**2
                  CONTENTS, ALLOC, LOAD, READONLY, DATA
  7 .preinit_array 00000000  08012ed0  08012ed0  000140a0  2**0
                  CONTENTS, ALLOC, LOAD, DATA
  8 .init_array   00000008  08012ed0  08012ed0  00012ed0  2**2
                  CONTENTS, ALLOC, LOAD, DATA
  9 .fini_array   00000008  08012ed8  08012ed8  00012ed8  2**2
                  CONTENTS, ALLOC, LOAD, DATA
 10 .data         000000a0  20004000  08012ee0  00014000  2**2
                  CONTENTS, ALLOC, LOAD, DATA
 11 .bss          00003bd8  200040a0  08012f80  000140a0  2**2
                  ALLOC
 12 .ARM.attributes 00000030  00000000  00000000  000140a0  2**0
                  CONTENTS, READONLY
 13 .debug_info   000208e7  00000000  00000000  000140d0  2**0
                  CONTENTS, READONLY, DEBUGGING
 14 .debug_abbrev 00004c48  00000000  00000000  000349b7  2**0
                  CONTENTS, READONLY, DEBUGGING
 15 .debug_loc    00007daa  00000000  00000000  000395ff  2**0
                  CONTENTS, READONLY, DEBUGGING
 16 .debug_aranges 00000a60  00000000  00000000  000413b0  2**3
                  CONTENTS, READONLY, DEBUGGING
 17 .debug_ranges 000009a0  00000000  00000000  00041e10  2**3
                  CONTENTS, READONLY, DEBUGGING
 18 .debug_macro  0000564a  00000000  00000000  000427b0  2**0
                  CONTENTS, READONLY, DEBUGGING
 19 .debug_line   0000b223  00000000  00000000  00047dfa  2**0
                  CONTENTS, READONLY, DEBUGGING
 20 .debug_str    00085bb0  00000000  00000000  0005301d  2**0
                  CONTENTS, READONLY, DEBUGGING
 21 .comment      0000007e  00000000  00000000  000d8bcd  2**0
                  CONTENTS, READONLY
 22 .debug_frame  00001cbc  00000000  00000000  000d8c4c  2**2
                  CONTENTS, READONLY, DEBUGGING

Disassembly of section .text:

0800d800 <__do_global_dtors_aux>:
 800d800:	b510      	push	{r4, lr}
 800d802:	4c05      	ldr	r4, [pc, #20]	; (800d818 <__do_global_dtors_aux+0x18>)
 800d804:	7823      	ldrb	r3, [r4, #0]
 800d806:	b933      	cbnz	r3, 800d816 <__do_global_dtors_aux+0x16>
 800d808:	4b04      	ldr	r3, [pc, #16]	; (800d81c <__do_global_dtors_aux+0x1c>)
 800d80a:	b113      	cbz	r3, 800d812 <__do_global_dtors_aux+0x12>
 800d80c:	4804      	ldr	r0, [pc, #16]	; (800d820 <__do_global_dtors_aux+0x20>)
 800d80e:	f3af 8000 	nop.w
 800d812:	2301      	movs	r3, #1
 800d814:	7023      	strb	r3, [r4, #0]
 800d816:	bd10      	pop	{r4, pc}
 800d818:	200040a0 	.word	0x200040a0
 800d81c:	00000000 	.word	0x00000000
 800d820:	080122c0 	.word	0x080122c0

0800d824 <frame_dummy>:
 800d824:	b508      	push	{r3, lr}
 800d826:	4b03      	ldr	r3, [pc, #12]	; (800d834 <frame_dummy+0x10>)
 800d828:	b11b      	cbz	r3, 800d832 <frame_dummy+0xe>
 800d82a:	4903      	ldr	r1, [pc, #12]	; (800d838 <frame_dummy+0x14>)
 800d82c:	4803      	ldr	r0, [pc, #12]	; (800d83c <frame_dummy+0x18>)
 800d82e:	f3af 8000 	nop.w
 800d832:	bd08      	pop	{r3, pc}
 800d834:	00000000 	.word	0x00000000
 800d838:	200040a4 	.word	0x200040a4
 800d83c:	080122c0 	.word	0x080122c0

0800d840 <rt_hw_interrupt_disable>:

.global rt_hw_interrupt_disable
.type rt_hw_interrupt_disable, %function
//关中断
rt_hw_interrupt_disable:
    MRS     r0, PRIMASK
 800d840:	f3ef 8010 	mrs	r0, PRIMASK
    CPSID   I
 800d844:	b672      	cpsid	i
    BX      LR
 800d846:	4770      	bx	lr

0800d848 <rt_hw_interrupt_enable>:
 */
.global rt_hw_interrupt_enable
.type rt_hw_interrupt_enable, %function
//开中断
rt_hw_interrupt_enable:
    MSR     PRIMASK, r0
 800d848:	f380 8810 	msr	PRIMASK, r0
    BX      LR
 800d84c:	4770      	bx	lr

0800d84e <rt_hw_context_switch>:
.type rt_hw_context_switch, %function
//上下文切换函数
rt_hw_context_switch_interrupt:
rt_hw_context_switch:
    //设置中断标志位rt_thread_switch_interrupt_flag为1
    LDR     r2, =rt_thread_switch_interrupt_flag   //加载rt_thread_switch_interrupt_flag的地址到r2
 800d84e:	4a44      	ldr	r2, [pc, #272]	; (800d960 <_update_done+0x10>)
    LDR     r3, [r2]                         //加载rt_thread_switch_interrupt_flag的值到r3
 800d850:	6813      	ldr	r3, [r2, #0]
    CMP     r3, #1                         //r3与1比较，相等则执行BEQ指令，否则不执行
 800d852:	2b01      	cmp	r3, #1
    BEQ     _reswitch
 800d854:	d004      	beq.n	800d860 <_reswitch>
    MOV     r3, #1                       //设置r3的值为1
 800d856:	f04f 0301 	mov.w	r3, #1
    STR     r3, [r2]                       //将r3的值存储到rt_thread_switch_interrupt_flag，即置1
 800d85a:	6013      	str	r3, [r2, #0]
    //设置rt_interrupt_from_thread的值
    LDR     r2, =rt_interrupt_from_thread   //加载rt_interrupt_from_thread的地址到r2
 800d85c:	4a41      	ldr	r2, [pc, #260]	; (800d964 <_update_done+0x14>)
    STR     r0, [r2]          //存储r0的值到rt_interrupt_from_thread，即上一个线程栈指针sp的指针
 800d85e:	6010      	str	r0, [r2, #0]

0800d860 <_reswitch>:

_reswitch:
    //设置rt_interrupt_to_thread的值
    LDR     r2, =rt_interrupt_to_thread     //加载rt_interrupt_to_thread的地址到r2
 800d860:	4a41      	ldr	r2, [pc, #260]	; (800d968 <_update_done+0x18>)
    STR     r1, [r2]      //存储r1的值到rt_interrupt_to_thread，即下一个线程栈指针sp的指针
 800d862:	6011      	str	r1, [r2, #0]
    //触发PendSV异常，实现上下文切换
LDR r0, =NVIC_INT_CTRL
 800d864:	4841      	ldr	r0, [pc, #260]	; (800d96c <_update_done+0x1c>)
    LDR r1, =NVIC_PENDSVSET
 800d866:	f04f 5180 	mov.w	r1, #268435456	; 0x10000000
    STR r1, [r0]
 800d86a:	6001      	str	r1, [r0, #0]
    //子程序返回
    BX  LR
 800d86c:	4770      	bx	lr

0800d86e <PendSV_Handler>:
.global PendSV_Handler
.type PendSV_Handler, %function
PendSV_Handler:
    //关中断，保护上下文切换不被中断，MRS加载特殊功能寄存器的值到通用寄存器
    //中断屏蔽寄存器（PRIMASK）D31~D1位保留，只有D0位有意义，CPSID  i将D0位置1（关总中断）
    MRS r2, PRIMASK
 800d86e:	f3ef 8210 	mrs	r2, PRIMASK
    CPSID   I
 800d872:	b672      	cpsid	i
    //获取中断标志位判断是否为0
    LDR r0, =rt_thread_switch_interrupt_flag    //加载rt_thread_switch_interrupt_flag的地址到r0
 800d874:	483a      	ldr	r0, [pc, #232]	; (800d960 <_update_done+0x10>)
    LDR r1, [r0]                           //加载rt_thread_switch_interrupt_flag的值到r1
 800d876:	6801      	ldr	r1, [r0, #0]
    CBZ r1, pendsv_exit                    //判断r1是否为0，为0则跳转到pendsv_exit
 800d878:	b351      	cbz	r1, 800d8d0 <pendsv_exit>

    MOV r1, #0x00                       //r1不为0则清0
 800d87a:	f04f 0100 	mov.w	r1, #0
    STR r1, [r0]                        //将r1的值存储到rt_thread_switch_interrupt_flag，即清0
 800d87e:	6001      	str	r1, [r0, #0]
    //判断rt_interrupt_from_thread的值是否为0
    LDR r0, =rt_interrupt_from_thread    //加载rt_interrupt_from_thread的地址到r0
 800d880:	4838      	ldr	r0, [pc, #224]	; (800d964 <_update_done+0x14>)
    LDR r1, [r0]                      //加载rt_interrupt_from_thread的值到r1
 800d882:	6801      	ldr	r1, [r0, #0]
    CBZ r1, switch_to_thread          //第一次线程切换时rt_interrupt_from_thread肯定为0，
 800d884:	b191      	cbz	r1, 800d8ac <switch_to_thread>

    //上文保存
    //当进入PendSVC Handler时，上一个线程运行的环境即xPSR，PC（线程入口地址），R14，R12，
    //R3，R2，R1，R0（线程的形参），这些CPU寄存器的值会自动保存到线程的栈中，剩下的r4~r11需
    //要手动保存。
    MRS r1, psp                 //获取线程栈指针到r1
 800d886:	f3ef 8109 	mrs	r1, PSP
    
#if defined (__VFP_FP__) && !defined(__SOFTFP__)
    TST     lr, #0x10         //if(!EXC_RETURN[4])
 800d88a:	f01e 0f10 	tst.w	lr, #16
                              //检查扩展堆栈帧（通过检查该位来表示是否需要FPU寄存器组）
    VSTMDBEQ r1!, {d8 - d15}     //保存FPU寄存器s16~s31
 800d88e:	bf08      	it	eq
 800d890:	ed21 8b10 	vstmdbeq	r1!, {d8-d15}
#endif
    
    STMFD   r1!, {r4 - r11}      //将CPU寄存器r4~r11的值存储到r1指向的地址
 800d894:	e921 0ff0 	stmdb	r1!, {r4, r5, r6, r7, r8, r9, sl, fp}
                                  //(每操作一次地址将递减一次)

#if defined (__VFP_FP__) && !defined(__SOFTFP__)
    MOV     r4, #0x00           /* flag = 0 */
 800d898:	f04f 0400 	mov.w	r4, #0
    TST     lr, #0x10           /* if(!EXC_RETURN[4]) */
 800d89c:	f01e 0f10 	tst.w	lr, #16
    MOVEQ   r4, #0x01           /* flag = 1 */
 800d8a0:	bf08      	it	eq
 800d8a2:	2401      	moveq	r4, #1
    STMFD   r1!, {r4}           /* push flag */
 800d8a4:	f841 4d04 	str.w	r4, [r1, #-4]!
#endif

    LDR r0, [r0]               //加载r0指向值到r0，即r0=rt_interrupt_from_thread
 800d8a8:	6800      	ldr	r0, [r0, #0]
    STR r1, [r0]                //将r1的值存储到r0，即更新线程栈sp
 800d8aa:	6001      	str	r1, [r0, #0]

0800d8ac <switch_to_thread>:

//上下文切换
switch_to_thread:
    LDR r1, =rt_interrupt_to_thread  //加载rt_interrupt_to_thread的地址到r1
 800d8ac:	492e      	ldr	r1, [pc, #184]	; (800d968 <_update_done+0x18>)
                                     // rt_interrupt_to_thread是一个全局变量，里面存的是线程栈指针SP的指针
    LDR r1, [r1]                  //加载rt_interrupt_to_thread的值到r1，即sp的指针
 800d8ae:	6809      	ldr	r1, [r1, #0]
    LDR r1, [r1]                //加载sp到r1
 800d8b0:	6809      	ldr	r1, [r1, #0]
#if defined (__VFP_FP__) && !defined(__SOFTFP__)
    LDMFD   r1!, {r3}           /* pop flag */
 800d8b2:	c908      	ldmia	r1!, {r3}
#endif

    LDMFD   r1!, {r4 - r11}          //将线程栈指针r1(操作之前先递减)指向的内容
 800d8b4:	e8b1 0ff0 	ldmia.w	r1!, {r4, r5, r6, r7, r8, r9, sl, fp}
                                      //加载到CPU寄存器r4~r11

#if defined (__VFP_FP__) && !defined(__SOFTFP__)
    CMP     r3,  #0             /* if(flag_r3 != 0) */
 800d8b8:	2b00      	cmp	r3, #0
    VLDMIANE  r1!, {d8 - d15}   /* pop FPU register s16~s31 */
 800d8ba:	bf18      	it	ne
 800d8bc:	ecb1 8b10 	vldmiane	r1!, {d8-d15}
#endif

    MSR psp, r1                 //线程栈指针更新到PSP
 800d8c0:	f381 8809 	msr	PSP, r1

#if defined (__VFP_FP__) && !defined(__SOFTFP__)
    ORR     lr, lr, #0x10       /* lr |=  (1 << 4), clean FPCA. */
 800d8c4:	f04e 0e10 	orr.w	lr, lr, #16
    CMP     r3,  #0             /* if(flag_r3 != 0) */
 800d8c8:	2b00      	cmp	r3, #0
    BICNE   lr, lr, #0x10       /* lr &= ~(1 << 4), set FPCA. */
 800d8ca:	bf18      	it	ne
 800d8cc:	f02e 0e10 	bicne.w	lr, lr, #16

0800d8d0 <pendsv_exit>:
#endif

pendsv_exit:
    MSR PRIMASK, r2             //恢复中断
 800d8d0:	f382 8810 	msr	PRIMASK, r2
    ORR lr, lr, #0x04       //确保异常返回使用的栈指针是PSP，即LR寄存器的位2要为1
 800d8d4:	f04e 0e04 	orr.w	lr, lr, #4
                           //异常返回，这个时候栈中的剩下内容将会自动加载到CPU寄存器：xPSR，PC（线程入口地址），
                          //R14，R12，R3，R2，R1，R0（线程的形参），同时PSP的值也将更新，即指向线程栈的栈顶
    BX  lr
 800d8d8:	4770      	bx	lr

0800d8da <rt_hw_context_switch_to>:
 */
.global rt_hw_context_switch_to
.type rt_hw_context_switch_to, %function
rt_hw_context_switch_to:
    //（1）将下一个将要运行的线程的栈的sp的指针存放到rt_interrupt_to_thread
    LDR r1, =rt_interrupt_to_thread   //将rt_interrupt_to_thread的地址加载到r1
 800d8da:	4923      	ldr	r1, [pc, #140]	; (800d968 <_update_done+0x18>)
    STR r0, [r1]                    //将r0的值存储到rt_interrupt_to_thread
 800d8dc:	6008      	str	r0, [r1, #0]
#if defined (__VFP_FP__) && !defined(__SOFTFP__)
    //第一次线程启动，不需要FPU寄存器保存，强制清除CONTROL[2]标志。此时为堆栈是MSP，也就是复位后进入第一个线程之前的状态
    MRS     r2, CONTROL         /* read */
 800d8de:	f3ef 8214 	mrs	r2, CONTROL
    BIC     r2, #0x04           /* modify */
 800d8e2:	f022 0204 	bic.w	r2, r2, #4
    MSR     CONTROL, r2         /* write-back */
 800d8e6:	f382 8814 	msr	CONTROL, r2
#endif
    //（2）设置rt_interrupt_from_thread的值为0，表示启动第一次线程切换
    LDR r1, =rt_interrupt_from_thread  //将rt_interrupt_from_thread的地址加载到r1
 800d8ea:	491e      	ldr	r1, [pc, #120]	; (800d964 <_update_done+0x14>)
    MOV r0, #0x0                   //配置r0等于0
 800d8ec:	f04f 0000 	mov.w	r0, #0
    STR r0, [r1]                     //将r0的值存储到rt_interrupt_from_thread
 800d8f0:	6008      	str	r0, [r1, #0]
    //（3）设置中断标志位rt_thread_switch_interrupt_flag的值为1
    LDR     r1, =rt_thread_switch_interrupt_flag   //将rt_thread_switch_interrupt_flag的地址加载到r1
 800d8f2:	491b      	ldr	r1, [pc, #108]	; (800d960 <_update_done+0x10>)
    MOV     r0, #1                            //配置r0等于1
 800d8f4:	f04f 0001 	mov.w	r0, #1
    STR     r0, [r1]                           //将r0的值存储到rt_thread_switch_interrupt_flag
 800d8f8:	6008      	str	r0, [r1, #0]
    //（4）设置 PendSV 异常的优先级
    LDR r0, =NVIC_SYSPRI2     //将系统优先级寄存器2地址加载到r0
 800d8fa:	481d      	ldr	r0, [pc, #116]	; (800d970 <_update_done+0x20>)
    LDR r1, =NVIC_PENDSV_PRI   //将PendSV优先级值 (lowest)加载到r1
 800d8fc:	f44f 017f 	mov.w	r1, #16711680	; 0xff0000
    LDR.W   r2, [r0,#0x00]       //读，（LDR.W始终生成32位指令），将r0保存的系统优先级寄存器2地址加载到r2
 800d900:	f8d0 2000 	ldr.w	r2, [r0]
    ORR     r1,r1,r2             //改，将r1与r2进行“或”运算并将值返回到r1
 800d904:	ea41 0102 	orr.w	r1, r1, r2
    STR     r1, [r0]             //写，将r1值存储到系统优先级寄存器2，即更新设置PendSV优先级值为最低
 800d908:	6001      	str	r1, [r0, #0]
    //（5）触发 PendSV异常 (产生上下文切换)
    LDR r0, =NVIC_INT_CTRL    //将中断控制状态寄存器地址加载到r0
 800d90a:	4818      	ldr	r0, [pc, #96]	; (800d96c <_update_done+0x1c>)
    LDR r1, =NVIC_PENDSVSET   //将能触发PendSV异常的值加载到r1
 800d90c:	f04f 5180 	mov.w	r1, #268435456	; 0x10000000
    STR r1, [r0]              //更新中断控制状态寄存器，触发PendSV异常
 800d910:	6001      	str	r1, [r0, #0]
    //（6）恢复主堆栈指针MSP
    LDR     r0, =SCB_VTOR   //将中断向量表偏移寄存器地址加载到r0，实际通过中断向量表定位堆栈地址
 800d912:	4818      	ldr	r0, [pc, #96]	; (800d974 <_update_done+0x24>)
    LDR     r0, [r0]
 800d914:	6800      	ldr	r0, [r0, #0]
    LDR     r0, [r0]
 800d916:	6800      	ldr	r0, [r0, #0]
    NOP
 800d918:	bf00      	nop
    MSR     msp, r0        //恢复主堆栈指针MSP，将堆栈地址保存到MSP中
 800d91a:	f380 8808 	msr	MSP, r0
    //（7）使能中断，pendSV中断开始执行，完成首个线程切换
    CPSIE   F
 800d91e:	b661      	cpsie	f
    CPSIE   I
 800d920:	b662      	cpsie	i

0800d922 <rt_hw_interrupt_thread_switch>:

/* compatible with old version */
.global rt_hw_interrupt_thread_switch
.type rt_hw_interrupt_thread_switch, %function
rt_hw_interrupt_thread_switch:
    BX  lr
 800d922:	4770      	bx	lr
    NOP
 800d924:	bf00      	nop

0800d926 <HardFault_Handler>:

.global HardFault_Handler
.type HardFault_Handler, %function
HardFault_Handler:
    /* get current context */
    MRS     r0, msp                 /* get fault context from handler. */
 800d926:	f3ef 8008 	mrs	r0, MSP
    TST     lr, #0x04               /* if(!EXC_RETURN[2]) */
 800d92a:	f01e 0f04 	tst.w	lr, #4
    BEQ     _get_sp_done
 800d92e:	d001      	beq.n	800d934 <_get_sp_done>
    MRS     r0, psp                 /* get fault context from thread. */
 800d930:	f3ef 8009 	mrs	r0, PSP

0800d934 <_get_sp_done>:
_get_sp_done:

    STMFD   r0!, {r4 - r11}         /* push r4 - r11 register */
 800d934:	e920 0ff0 	stmdb	r0!, {r4, r5, r6, r7, r8, r9, sl, fp}
#if defined (__VFP_FP__) && !defined(__SOFTFP__)
    STMFD   r0!, {lr}               /* push dummy for flag */
 800d938:	f840 ed04 	str.w	lr, [r0, #-4]!
#endif
    STMFD   r0!, {lr}               /* push exec_return register */
 800d93c:	f840 ed04 	str.w	lr, [r0, #-4]!

    TST     lr, #0x04               /* if(!EXC_RETURN[2]) */
 800d940:	f01e 0f04 	tst.w	lr, #4
    BEQ     _update_msp
 800d944:	d002      	beq.n	800d94c <_update_msp>
    MSR     psp, r0                 /* update stack pointer to PSP. */
 800d946:	f380 8809 	msr	PSP, r0
    B       _update_done
 800d94a:	e001      	b.n	800d950 <_update_done>

0800d94c <_update_msp>:
_update_msp:
    MSR     msp, r0                 /* update stack pointer to MSP. */
 800d94c:	f380 8808 	msr	MSP, r0

0800d950 <_update_done>:
_update_done:

    PUSH    {LR}
 800d950:	b500      	push	{lr}
    BL      rt_hw_hard_fault_exception
 800d952:	f000 fe9d 	bl	800e690 <rt_hw_hard_fault_exception>
    POP     {LR}
 800d956:	f85d eb04 	ldr.w	lr, [sp], #4

    ORR     lr, lr, #0x04
 800d95a:	f04e 0e04 	orr.w	lr, lr, #4
    BX      lr
 800d95e:	4770      	bx	lr
    LDR     r2, =rt_thread_switch_interrupt_flag   //加载rt_thread_switch_interrupt_flag的地址到r2
 800d960:	20007314 	.word	0x20007314
    LDR     r2, =rt_interrupt_from_thread   //加载rt_interrupt_from_thread的地址到r2
 800d964:	20007310 	.word	0x20007310
    LDR     r2, =rt_interrupt_to_thread     //加载rt_interrupt_to_thread的地址到r2
 800d968:	2000730c 	.word	0x2000730c
LDR r0, =NVIC_INT_CTRL
 800d96c:	e000ed04 	.word	0xe000ed04
    LDR r0, =NVIC_SYSPRI2     //将系统优先级寄存器2地址加载到r0
 800d970:	e000ed20 	.word	0xe000ed20
    LDR     r0, =SCB_VTOR   //将中断向量表偏移寄存器地址加载到r0，实际通过中断向量表定位堆栈地址
 800d974:	e000ed08 	.word	0xe000ed08

0800d978 <strlen>:
 800d978:	4603      	mov	r3, r0
 800d97a:	f813 2b01 	ldrb.w	r2, [r3], #1
 800d97e:	2a00      	cmp	r2, #0
 800d980:	d1fb      	bne.n	800d97a <strlen+0x2>
 800d982:	1a18      	subs	r0, r3, r0
 800d984:	3801      	subs	r0, #1
 800d986:	4770      	bx	lr

0800d988 <__aeabi_drsub>:
 800d988:	f081 4100 	eor.w	r1, r1, #2147483648	; 0x80000000
 800d98c:	e002      	b.n	800d994 <__adddf3>
 800d98e:	bf00      	nop

0800d990 <__aeabi_dsub>:
 800d990:	f083 4300 	eor.w	r3, r3, #2147483648	; 0x80000000

0800d994 <__adddf3>:
 800d994:	b530      	push	{r4, r5, lr}
 800d996:	ea4f 0441 	mov.w	r4, r1, lsl #1
 800d99a:	ea4f 0543 	mov.w	r5, r3, lsl #1
 800d99e:	ea94 0f05 	teq	r4, r5
 800d9a2:	bf08      	it	eq
 800d9a4:	ea90 0f02 	teqeq	r0, r2
 800d9a8:	bf1f      	itttt	ne
 800d9aa:	ea54 0c00 	orrsne.w	ip, r4, r0
 800d9ae:	ea55 0c02 	orrsne.w	ip, r5, r2
 800d9b2:	ea7f 5c64 	mvnsne.w	ip, r4, asr #21
 800d9b6:	ea7f 5c65 	mvnsne.w	ip, r5, asr #21
 800d9ba:	f000 80e2 	beq.w	800db82 <__adddf3+0x1ee>
 800d9be:	ea4f 5454 	mov.w	r4, r4, lsr #21
 800d9c2:	ebd4 5555 	rsbs	r5, r4, r5, lsr #21
 800d9c6:	bfb8      	it	lt
 800d9c8:	426d      	neglt	r5, r5
 800d9ca:	dd0c      	ble.n	800d9e6 <__adddf3+0x52>
 800d9cc:	442c      	add	r4, r5
 800d9ce:	ea80 0202 	eor.w	r2, r0, r2
 800d9d2:	ea81 0303 	eor.w	r3, r1, r3
 800d9d6:	ea82 0000 	eor.w	r0, r2, r0
 800d9da:	ea83 0101 	eor.w	r1, r3, r1
 800d9de:	ea80 0202 	eor.w	r2, r0, r2
 800d9e2:	ea81 0303 	eor.w	r3, r1, r3
 800d9e6:	2d36      	cmp	r5, #54	; 0x36
 800d9e8:	bf88      	it	hi
 800d9ea:	bd30      	pophi	{r4, r5, pc}
 800d9ec:	f011 4f00 	tst.w	r1, #2147483648	; 0x80000000
 800d9f0:	ea4f 3101 	mov.w	r1, r1, lsl #12
 800d9f4:	f44f 1c80 	mov.w	ip, #1048576	; 0x100000
 800d9f8:	ea4c 3111 	orr.w	r1, ip, r1, lsr #12
 800d9fc:	d002      	beq.n	800da04 <__adddf3+0x70>
 800d9fe:	4240      	negs	r0, r0
 800da00:	eb61 0141 	sbc.w	r1, r1, r1, lsl #1
 800da04:	f013 4f00 	tst.w	r3, #2147483648	; 0x80000000
 800da08:	ea4f 3303 	mov.w	r3, r3, lsl #12
 800da0c:	ea4c 3313 	orr.w	r3, ip, r3, lsr #12
 800da10:	d002      	beq.n	800da18 <__adddf3+0x84>
 800da12:	4252      	negs	r2, r2
 800da14:	eb63 0343 	sbc.w	r3, r3, r3, lsl #1
 800da18:	ea94 0f05 	teq	r4, r5
 800da1c:	f000 80a7 	beq.w	800db6e <__adddf3+0x1da>
 800da20:	f1a4 0401 	sub.w	r4, r4, #1
 800da24:	f1d5 0e20 	rsbs	lr, r5, #32
 800da28:	db0d      	blt.n	800da46 <__adddf3+0xb2>
 800da2a:	fa02 fc0e 	lsl.w	ip, r2, lr
 800da2e:	fa22 f205 	lsr.w	r2, r2, r5
 800da32:	1880      	adds	r0, r0, r2
 800da34:	f141 0100 	adc.w	r1, r1, #0
 800da38:	fa03 f20e 	lsl.w	r2, r3, lr
 800da3c:	1880      	adds	r0, r0, r2
 800da3e:	fa43 f305 	asr.w	r3, r3, r5
 800da42:	4159      	adcs	r1, r3
 800da44:	e00e      	b.n	800da64 <__adddf3+0xd0>
 800da46:	f1a5 0520 	sub.w	r5, r5, #32
 800da4a:	f10e 0e20 	add.w	lr, lr, #32
 800da4e:	2a01      	cmp	r2, #1
 800da50:	fa03 fc0e 	lsl.w	ip, r3, lr
 800da54:	bf28      	it	cs
 800da56:	f04c 0c02 	orrcs.w	ip, ip, #2
 800da5a:	fa43 f305 	asr.w	r3, r3, r5
 800da5e:	18c0      	adds	r0, r0, r3
 800da60:	eb51 71e3 	adcs.w	r1, r1, r3, asr #31
 800da64:	f001 4500 	and.w	r5, r1, #2147483648	; 0x80000000
 800da68:	d507      	bpl.n	800da7a <__adddf3+0xe6>
 800da6a:	f04f 0e00 	mov.w	lr, #0
 800da6e:	f1dc 0c00 	rsbs	ip, ip, #0
 800da72:	eb7e 0000 	sbcs.w	r0, lr, r0
 800da76:	eb6e 0101 	sbc.w	r1, lr, r1
 800da7a:	f5b1 1f80 	cmp.w	r1, #1048576	; 0x100000
 800da7e:	d31b      	bcc.n	800dab8 <__adddf3+0x124>
 800da80:	f5b1 1f00 	cmp.w	r1, #2097152	; 0x200000
 800da84:	d30c      	bcc.n	800daa0 <__adddf3+0x10c>
 800da86:	0849      	lsrs	r1, r1, #1
 800da88:	ea5f 0030 	movs.w	r0, r0, rrx
 800da8c:	ea4f 0c3c 	mov.w	ip, ip, rrx
 800da90:	f104 0401 	add.w	r4, r4, #1
 800da94:	ea4f 5244 	mov.w	r2, r4, lsl #21
 800da98:	f512 0f80 	cmn.w	r2, #4194304	; 0x400000
 800da9c:	f080 809a 	bcs.w	800dbd4 <__adddf3+0x240>
 800daa0:	f1bc 4f00 	cmp.w	ip, #2147483648	; 0x80000000
 800daa4:	bf08      	it	eq
 800daa6:	ea5f 0c50 	movseq.w	ip, r0, lsr #1
 800daaa:	f150 0000 	adcs.w	r0, r0, #0
 800daae:	eb41 5104 	adc.w	r1, r1, r4, lsl #20
 800dab2:	ea41 0105 	orr.w	r1, r1, r5
 800dab6:	bd30      	pop	{r4, r5, pc}
 800dab8:	ea5f 0c4c 	movs.w	ip, ip, lsl #1
 800dabc:	4140      	adcs	r0, r0
 800dabe:	eb41 0101 	adc.w	r1, r1, r1
 800dac2:	f411 1f80 	tst.w	r1, #1048576	; 0x100000
 800dac6:	f1a4 0401 	sub.w	r4, r4, #1
 800daca:	d1e9      	bne.n	800daa0 <__adddf3+0x10c>
 800dacc:	f091 0f00 	teq	r1, #0
 800dad0:	bf04      	itt	eq
 800dad2:	4601      	moveq	r1, r0
 800dad4:	2000      	moveq	r0, #0
 800dad6:	fab1 f381 	clz	r3, r1
 800dada:	bf08      	it	eq
 800dadc:	3320      	addeq	r3, #32
 800dade:	f1a3 030b 	sub.w	r3, r3, #11
 800dae2:	f1b3 0220 	subs.w	r2, r3, #32
 800dae6:	da0c      	bge.n	800db02 <__adddf3+0x16e>
 800dae8:	320c      	adds	r2, #12
 800daea:	dd08      	ble.n	800dafe <__adddf3+0x16a>
 800daec:	f102 0c14 	add.w	ip, r2, #20
 800daf0:	f1c2 020c 	rsb	r2, r2, #12
 800daf4:	fa01 f00c 	lsl.w	r0, r1, ip
 800daf8:	fa21 f102 	lsr.w	r1, r1, r2
 800dafc:	e00c      	b.n	800db18 <__adddf3+0x184>
 800dafe:	f102 0214 	add.w	r2, r2, #20
 800db02:	bfd8      	it	le
 800db04:	f1c2 0c20 	rsble	ip, r2, #32
 800db08:	fa01 f102 	lsl.w	r1, r1, r2
 800db0c:	fa20 fc0c 	lsr.w	ip, r0, ip
 800db10:	bfdc      	itt	le
 800db12:	ea41 010c 	orrle.w	r1, r1, ip
 800db16:	4090      	lslle	r0, r2
 800db18:	1ae4      	subs	r4, r4, r3
 800db1a:	bfa2      	ittt	ge
 800db1c:	eb01 5104 	addge.w	r1, r1, r4, lsl #20
 800db20:	4329      	orrge	r1, r5
 800db22:	bd30      	popge	{r4, r5, pc}
 800db24:	ea6f 0404 	mvn.w	r4, r4
 800db28:	3c1f      	subs	r4, #31
 800db2a:	da1c      	bge.n	800db66 <__adddf3+0x1d2>
 800db2c:	340c      	adds	r4, #12
 800db2e:	dc0e      	bgt.n	800db4e <__adddf3+0x1ba>
 800db30:	f104 0414 	add.w	r4, r4, #20
 800db34:	f1c4 0220 	rsb	r2, r4, #32
 800db38:	fa20 f004 	lsr.w	r0, r0, r4
 800db3c:	fa01 f302 	lsl.w	r3, r1, r2
 800db40:	ea40 0003 	orr.w	r0, r0, r3
 800db44:	fa21 f304 	lsr.w	r3, r1, r4
 800db48:	ea45 0103 	orr.w	r1, r5, r3
 800db4c:	bd30      	pop	{r4, r5, pc}
 800db4e:	f1c4 040c 	rsb	r4, r4, #12
 800db52:	f1c4 0220 	rsb	r2, r4, #32
 800db56:	fa20 f002 	lsr.w	r0, r0, r2
 800db5a:	fa01 f304 	lsl.w	r3, r1, r4
 800db5e:	ea40 0003 	orr.w	r0, r0, r3
 800db62:	4629      	mov	r1, r5
 800db64:	bd30      	pop	{r4, r5, pc}
 800db66:	fa21 f004 	lsr.w	r0, r1, r4
 800db6a:	4629      	mov	r1, r5
 800db6c:	bd30      	pop	{r4, r5, pc}
 800db6e:	f094 0f00 	teq	r4, #0
 800db72:	f483 1380 	eor.w	r3, r3, #1048576	; 0x100000
 800db76:	bf06      	itte	eq
 800db78:	f481 1180 	eoreq.w	r1, r1, #1048576	; 0x100000
 800db7c:	3401      	addeq	r4, #1
 800db7e:	3d01      	subne	r5, #1
 800db80:	e74e      	b.n	800da20 <__adddf3+0x8c>
 800db82:	ea7f 5c64 	mvns.w	ip, r4, asr #21
 800db86:	bf18      	it	ne
 800db88:	ea7f 5c65 	mvnsne.w	ip, r5, asr #21
 800db8c:	d029      	beq.n	800dbe2 <__adddf3+0x24e>
 800db8e:	ea94 0f05 	teq	r4, r5
 800db92:	bf08      	it	eq
 800db94:	ea90 0f02 	teqeq	r0, r2
 800db98:	d005      	beq.n	800dba6 <__adddf3+0x212>
 800db9a:	ea54 0c00 	orrs.w	ip, r4, r0
 800db9e:	bf04      	itt	eq
 800dba0:	4619      	moveq	r1, r3
 800dba2:	4610      	moveq	r0, r2
 800dba4:	bd30      	pop	{r4, r5, pc}
 800dba6:	ea91 0f03 	teq	r1, r3
 800dbaa:	bf1e      	ittt	ne
 800dbac:	2100      	movne	r1, #0
 800dbae:	2000      	movne	r0, #0
 800dbb0:	bd30      	popne	{r4, r5, pc}
 800dbb2:	ea5f 5c54 	movs.w	ip, r4, lsr #21
 800dbb6:	d105      	bne.n	800dbc4 <__adddf3+0x230>
 800dbb8:	0040      	lsls	r0, r0, #1
 800dbba:	4149      	adcs	r1, r1
 800dbbc:	bf28      	it	cs
 800dbbe:	f041 4100 	orrcs.w	r1, r1, #2147483648	; 0x80000000
 800dbc2:	bd30      	pop	{r4, r5, pc}
 800dbc4:	f514 0480 	adds.w	r4, r4, #4194304	; 0x400000
 800dbc8:	bf3c      	itt	cc
 800dbca:	f501 1180 	addcc.w	r1, r1, #1048576	; 0x100000
 800dbce:	bd30      	popcc	{r4, r5, pc}
 800dbd0:	f001 4500 	and.w	r5, r1, #2147483648	; 0x80000000
 800dbd4:	f045 41fe 	orr.w	r1, r5, #2130706432	; 0x7f000000
 800dbd8:	f441 0170 	orr.w	r1, r1, #15728640	; 0xf00000
 800dbdc:	f04f 0000 	mov.w	r0, #0
 800dbe0:	bd30      	pop	{r4, r5, pc}
 800dbe2:	ea7f 5c64 	mvns.w	ip, r4, asr #21
 800dbe6:	bf1a      	itte	ne
 800dbe8:	4619      	movne	r1, r3
 800dbea:	4610      	movne	r0, r2
 800dbec:	ea7f 5c65 	mvnseq.w	ip, r5, asr #21
 800dbf0:	bf1c      	itt	ne
 800dbf2:	460b      	movne	r3, r1
 800dbf4:	4602      	movne	r2, r0
 800dbf6:	ea50 3401 	orrs.w	r4, r0, r1, lsl #12
 800dbfa:	bf06      	itte	eq
 800dbfc:	ea52 3503 	orrseq.w	r5, r2, r3, lsl #12
 800dc00:	ea91 0f03 	teqeq	r1, r3
 800dc04:	f441 2100 	orrne.w	r1, r1, #524288	; 0x80000
 800dc08:	bd30      	pop	{r4, r5, pc}
 800dc0a:	bf00      	nop

0800dc0c <__aeabi_ui2d>:
 800dc0c:	f090 0f00 	teq	r0, #0
 800dc10:	bf04      	itt	eq
 800dc12:	2100      	moveq	r1, #0
 800dc14:	4770      	bxeq	lr
 800dc16:	b530      	push	{r4, r5, lr}
 800dc18:	f44f 6480 	mov.w	r4, #1024	; 0x400
 800dc1c:	f104 0432 	add.w	r4, r4, #50	; 0x32
 800dc20:	f04f 0500 	mov.w	r5, #0
 800dc24:	f04f 0100 	mov.w	r1, #0
 800dc28:	e750      	b.n	800dacc <__adddf3+0x138>
 800dc2a:	bf00      	nop

0800dc2c <__aeabi_i2d>:
 800dc2c:	f090 0f00 	teq	r0, #0
 800dc30:	bf04      	itt	eq
 800dc32:	2100      	moveq	r1, #0
 800dc34:	4770      	bxeq	lr
 800dc36:	b530      	push	{r4, r5, lr}
 800dc38:	f44f 6480 	mov.w	r4, #1024	; 0x400
 800dc3c:	f104 0432 	add.w	r4, r4, #50	; 0x32
 800dc40:	f010 4500 	ands.w	r5, r0, #2147483648	; 0x80000000
 800dc44:	bf48      	it	mi
 800dc46:	4240      	negmi	r0, r0
 800dc48:	f04f 0100 	mov.w	r1, #0
 800dc4c:	e73e      	b.n	800dacc <__adddf3+0x138>
 800dc4e:	bf00      	nop

0800dc50 <__aeabi_f2d>:
 800dc50:	0042      	lsls	r2, r0, #1
 800dc52:	ea4f 01e2 	mov.w	r1, r2, asr #3
 800dc56:	ea4f 0131 	mov.w	r1, r1, rrx
 800dc5a:	ea4f 7002 	mov.w	r0, r2, lsl #28
 800dc5e:	bf1f      	itttt	ne
 800dc60:	f012 437f 	andsne.w	r3, r2, #4278190080	; 0xff000000
 800dc64:	f093 4f7f 	teqne	r3, #4278190080	; 0xff000000
 800dc68:	f081 5160 	eorne.w	r1, r1, #939524096	; 0x38000000
 800dc6c:	4770      	bxne	lr
 800dc6e:	f032 427f 	bics.w	r2, r2, #4278190080	; 0xff000000
 800dc72:	bf08      	it	eq
 800dc74:	4770      	bxeq	lr
 800dc76:	f093 4f7f 	teq	r3, #4278190080	; 0xff000000
 800dc7a:	bf04      	itt	eq
 800dc7c:	f441 2100 	orreq.w	r1, r1, #524288	; 0x80000
 800dc80:	4770      	bxeq	lr
 800dc82:	b530      	push	{r4, r5, lr}
 800dc84:	f44f 7460 	mov.w	r4, #896	; 0x380
 800dc88:	f001 4500 	and.w	r5, r1, #2147483648	; 0x80000000
 800dc8c:	f021 4100 	bic.w	r1, r1, #2147483648	; 0x80000000
 800dc90:	e71c      	b.n	800dacc <__adddf3+0x138>
 800dc92:	bf00      	nop

0800dc94 <__aeabi_ul2d>:
 800dc94:	ea50 0201 	orrs.w	r2, r0, r1
 800dc98:	bf08      	it	eq
 800dc9a:	4770      	bxeq	lr
 800dc9c:	b530      	push	{r4, r5, lr}
 800dc9e:	f04f 0500 	mov.w	r5, #0
 800dca2:	e00a      	b.n	800dcba <__aeabi_l2d+0x16>

0800dca4 <__aeabi_l2d>:
 800dca4:	ea50 0201 	orrs.w	r2, r0, r1
 800dca8:	bf08      	it	eq
 800dcaa:	4770      	bxeq	lr
 800dcac:	b530      	push	{r4, r5, lr}
 800dcae:	f011 4500 	ands.w	r5, r1, #2147483648	; 0x80000000
 800dcb2:	d502      	bpl.n	800dcba <__aeabi_l2d+0x16>
 800dcb4:	4240      	negs	r0, r0
 800dcb6:	eb61 0141 	sbc.w	r1, r1, r1, lsl #1
 800dcba:	f44f 6480 	mov.w	r4, #1024	; 0x400
 800dcbe:	f104 0432 	add.w	r4, r4, #50	; 0x32
 800dcc2:	ea5f 5c91 	movs.w	ip, r1, lsr #22
 800dcc6:	f43f aed8 	beq.w	800da7a <__adddf3+0xe6>
 800dcca:	f04f 0203 	mov.w	r2, #3
 800dcce:	ea5f 0cdc 	movs.w	ip, ip, lsr #3
 800dcd2:	bf18      	it	ne
 800dcd4:	3203      	addne	r2, #3
 800dcd6:	ea5f 0cdc 	movs.w	ip, ip, lsr #3
 800dcda:	bf18      	it	ne
 800dcdc:	3203      	addne	r2, #3
 800dcde:	eb02 02dc 	add.w	r2, r2, ip, lsr #3
 800dce2:	f1c2 0320 	rsb	r3, r2, #32
 800dce6:	fa00 fc03 	lsl.w	ip, r0, r3
 800dcea:	fa20 f002 	lsr.w	r0, r0, r2
 800dcee:	fa01 fe03 	lsl.w	lr, r1, r3
 800dcf2:	ea40 000e 	orr.w	r0, r0, lr
 800dcf6:	fa21 f102 	lsr.w	r1, r1, r2
 800dcfa:	4414      	add	r4, r2
 800dcfc:	e6bd      	b.n	800da7a <__adddf3+0xe6>
 800dcfe:	bf00      	nop

0800dd00 <__aeabi_dmul>:
 800dd00:	b570      	push	{r4, r5, r6, lr}
 800dd02:	f04f 0cff 	mov.w	ip, #255	; 0xff
 800dd06:	f44c 6ce0 	orr.w	ip, ip, #1792	; 0x700
 800dd0a:	ea1c 5411 	ands.w	r4, ip, r1, lsr #20
 800dd0e:	bf1d      	ittte	ne
 800dd10:	ea1c 5513 	andsne.w	r5, ip, r3, lsr #20
 800dd14:	ea94 0f0c 	teqne	r4, ip
 800dd18:	ea95 0f0c 	teqne	r5, ip
 800dd1c:	f000 f8de 	bleq	800dedc <__aeabi_dmul+0x1dc>
 800dd20:	442c      	add	r4, r5
 800dd22:	ea81 0603 	eor.w	r6, r1, r3
 800dd26:	ea21 514c 	bic.w	r1, r1, ip, lsl #21
 800dd2a:	ea23 534c 	bic.w	r3, r3, ip, lsl #21
 800dd2e:	ea50 3501 	orrs.w	r5, r0, r1, lsl #12
 800dd32:	bf18      	it	ne
 800dd34:	ea52 3503 	orrsne.w	r5, r2, r3, lsl #12
 800dd38:	f441 1180 	orr.w	r1, r1, #1048576	; 0x100000
 800dd3c:	f443 1380 	orr.w	r3, r3, #1048576	; 0x100000
 800dd40:	d038      	beq.n	800ddb4 <__aeabi_dmul+0xb4>
 800dd42:	fba0 ce02 	umull	ip, lr, r0, r2
 800dd46:	f04f 0500 	mov.w	r5, #0
 800dd4a:	fbe1 e502 	umlal	lr, r5, r1, r2
 800dd4e:	f006 4200 	and.w	r2, r6, #2147483648	; 0x80000000
 800dd52:	fbe0 e503 	umlal	lr, r5, r0, r3
 800dd56:	f04f 0600 	mov.w	r6, #0
 800dd5a:	fbe1 5603 	umlal	r5, r6, r1, r3
 800dd5e:	f09c 0f00 	teq	ip, #0
 800dd62:	bf18      	it	ne
 800dd64:	f04e 0e01 	orrne.w	lr, lr, #1
 800dd68:	f1a4 04ff 	sub.w	r4, r4, #255	; 0xff
 800dd6c:	f5b6 7f00 	cmp.w	r6, #512	; 0x200
 800dd70:	f564 7440 	sbc.w	r4, r4, #768	; 0x300
 800dd74:	d204      	bcs.n	800dd80 <__aeabi_dmul+0x80>
 800dd76:	ea5f 0e4e 	movs.w	lr, lr, lsl #1
 800dd7a:	416d      	adcs	r5, r5
 800dd7c:	eb46 0606 	adc.w	r6, r6, r6
 800dd80:	ea42 21c6 	orr.w	r1, r2, r6, lsl #11
 800dd84:	ea41 5155 	orr.w	r1, r1, r5, lsr #21
 800dd88:	ea4f 20c5 	mov.w	r0, r5, lsl #11
 800dd8c:	ea40 505e 	orr.w	r0, r0, lr, lsr #21
 800dd90:	ea4f 2ece 	mov.w	lr, lr, lsl #11
 800dd94:	f1b4 0cfd 	subs.w	ip, r4, #253	; 0xfd
 800dd98:	bf88      	it	hi
 800dd9a:	f5bc 6fe0 	cmphi.w	ip, #1792	; 0x700
 800dd9e:	d81e      	bhi.n	800ddde <__aeabi_dmul+0xde>
 800dda0:	f1be 4f00 	cmp.w	lr, #2147483648	; 0x80000000
 800dda4:	bf08      	it	eq
 800dda6:	ea5f 0e50 	movseq.w	lr, r0, lsr #1
 800ddaa:	f150 0000 	adcs.w	r0, r0, #0
 800ddae:	eb41 5104 	adc.w	r1, r1, r4, lsl #20
 800ddb2:	bd70      	pop	{r4, r5, r6, pc}
 800ddb4:	f006 4600 	and.w	r6, r6, #2147483648	; 0x80000000
 800ddb8:	ea46 0101 	orr.w	r1, r6, r1
 800ddbc:	ea40 0002 	orr.w	r0, r0, r2
 800ddc0:	ea81 0103 	eor.w	r1, r1, r3
 800ddc4:	ebb4 045c 	subs.w	r4, r4, ip, lsr #1
 800ddc8:	bfc2      	ittt	gt
 800ddca:	ebd4 050c 	rsbsgt	r5, r4, ip
 800ddce:	ea41 5104 	orrgt.w	r1, r1, r4, lsl #20
 800ddd2:	bd70      	popgt	{r4, r5, r6, pc}
 800ddd4:	f441 1180 	orr.w	r1, r1, #1048576	; 0x100000
 800ddd8:	f04f 0e00 	mov.w	lr, #0
 800dddc:	3c01      	subs	r4, #1
 800ddde:	f300 80ab 	bgt.w	800df38 <__aeabi_dmul+0x238>
 800dde2:	f114 0f36 	cmn.w	r4, #54	; 0x36
 800dde6:	bfde      	ittt	le
 800dde8:	2000      	movle	r0, #0
 800ddea:	f001 4100 	andle.w	r1, r1, #2147483648	; 0x80000000
 800ddee:	bd70      	pople	{r4, r5, r6, pc}
 800ddf0:	f1c4 0400 	rsb	r4, r4, #0
 800ddf4:	3c20      	subs	r4, #32
 800ddf6:	da35      	bge.n	800de64 <__aeabi_dmul+0x164>
 800ddf8:	340c      	adds	r4, #12
 800ddfa:	dc1b      	bgt.n	800de34 <__aeabi_dmul+0x134>
 800ddfc:	f104 0414 	add.w	r4, r4, #20
 800de00:	f1c4 0520 	rsb	r5, r4, #32
 800de04:	fa00 f305 	lsl.w	r3, r0, r5
 800de08:	fa20 f004 	lsr.w	r0, r0, r4
 800de0c:	fa01 f205 	lsl.w	r2, r1, r5
 800de10:	ea40 0002 	orr.w	r0, r0, r2
 800de14:	f001 4200 	and.w	r2, r1, #2147483648	; 0x80000000
 800de18:	f021 4100 	bic.w	r1, r1, #2147483648	; 0x80000000
 800de1c:	eb10 70d3 	adds.w	r0, r0, r3, lsr #31
 800de20:	fa21 f604 	lsr.w	r6, r1, r4
 800de24:	eb42 0106 	adc.w	r1, r2, r6
 800de28:	ea5e 0e43 	orrs.w	lr, lr, r3, lsl #1
 800de2c:	bf08      	it	eq
 800de2e:	ea20 70d3 	biceq.w	r0, r0, r3, lsr #31
 800de32:	bd70      	pop	{r4, r5, r6, pc}
 800de34:	f1c4 040c 	rsb	r4, r4, #12
 800de38:	f1c4 0520 	rsb	r5, r4, #32
 800de3c:	fa00 f304 	lsl.w	r3, r0, r4
 800de40:	fa20 f005 	lsr.w	r0, r0, r5
 800de44:	fa01 f204 	lsl.w	r2, r1, r4
 800de48:	ea40 0002 	orr.w	r0, r0, r2
 800de4c:	f001 4100 	and.w	r1, r1, #2147483648	; 0x80000000
 800de50:	eb10 70d3 	adds.w	r0, r0, r3, lsr #31
 800de54:	f141 0100 	adc.w	r1, r1, #0
 800de58:	ea5e 0e43 	orrs.w	lr, lr, r3, lsl #1
 800de5c:	bf08      	it	eq
 800de5e:	ea20 70d3 	biceq.w	r0, r0, r3, lsr #31
 800de62:	bd70      	pop	{r4, r5, r6, pc}
 800de64:	f1c4 0520 	rsb	r5, r4, #32
 800de68:	fa00 f205 	lsl.w	r2, r0, r5
 800de6c:	ea4e 0e02 	orr.w	lr, lr, r2
 800de70:	fa20 f304 	lsr.w	r3, r0, r4
 800de74:	fa01 f205 	lsl.w	r2, r1, r5
 800de78:	ea43 0302 	orr.w	r3, r3, r2
 800de7c:	fa21 f004 	lsr.w	r0, r1, r4
 800de80:	f001 4100 	and.w	r1, r1, #2147483648	; 0x80000000
 800de84:	fa21 f204 	lsr.w	r2, r1, r4
 800de88:	ea20 0002 	bic.w	r0, r0, r2
 800de8c:	eb00 70d3 	add.w	r0, r0, r3, lsr #31
 800de90:	ea5e 0e43 	orrs.w	lr, lr, r3, lsl #1
 800de94:	bf08      	it	eq
 800de96:	ea20 70d3 	biceq.w	r0, r0, r3, lsr #31
 800de9a:	bd70      	pop	{r4, r5, r6, pc}
 800de9c:	f094 0f00 	teq	r4, #0
 800dea0:	d10f      	bne.n	800dec2 <__aeabi_dmul+0x1c2>
 800dea2:	f001 4600 	and.w	r6, r1, #2147483648	; 0x80000000
 800dea6:	0040      	lsls	r0, r0, #1
 800dea8:	eb41 0101 	adc.w	r1, r1, r1
 800deac:	f411 1f80 	tst.w	r1, #1048576	; 0x100000
 800deb0:	bf08      	it	eq
 800deb2:	3c01      	subeq	r4, #1
 800deb4:	d0f7      	beq.n	800dea6 <__aeabi_dmul+0x1a6>
 800deb6:	ea41 0106 	orr.w	r1, r1, r6
 800deba:	f095 0f00 	teq	r5, #0
 800debe:	bf18      	it	ne
 800dec0:	4770      	bxne	lr
 800dec2:	f003 4600 	and.w	r6, r3, #2147483648	; 0x80000000
 800dec6:	0052      	lsls	r2, r2, #1
 800dec8:	eb43 0303 	adc.w	r3, r3, r3
 800decc:	f413 1f80 	tst.w	r3, #1048576	; 0x100000
 800ded0:	bf08      	it	eq
 800ded2:	3d01      	subeq	r5, #1
 800ded4:	d0f7      	beq.n	800dec6 <__aeabi_dmul+0x1c6>
 800ded6:	ea43 0306 	orr.w	r3, r3, r6
 800deda:	4770      	bx	lr
 800dedc:	ea94 0f0c 	teq	r4, ip
 800dee0:	ea0c 5513 	and.w	r5, ip, r3, lsr #20
 800dee4:	bf18      	it	ne
 800dee6:	ea95 0f0c 	teqne	r5, ip
 800deea:	d00c      	beq.n	800df06 <__aeabi_dmul+0x206>
 800deec:	ea50 0641 	orrs.w	r6, r0, r1, lsl #1
 800def0:	bf18      	it	ne
 800def2:	ea52 0643 	orrsne.w	r6, r2, r3, lsl #1
 800def6:	d1d1      	bne.n	800de9c <__aeabi_dmul+0x19c>
 800def8:	ea81 0103 	eor.w	r1, r1, r3
 800defc:	f001 4100 	and.w	r1, r1, #2147483648	; 0x80000000
 800df00:	f04f 0000 	mov.w	r0, #0
 800df04:	bd70      	pop	{r4, r5, r6, pc}
 800df06:	ea50 0641 	orrs.w	r6, r0, r1, lsl #1
 800df0a:	bf06      	itte	eq
 800df0c:	4610      	moveq	r0, r2
 800df0e:	4619      	moveq	r1, r3
 800df10:	ea52 0643 	orrsne.w	r6, r2, r3, lsl #1
 800df14:	d019      	beq.n	800df4a <__aeabi_dmul+0x24a>
 800df16:	ea94 0f0c 	teq	r4, ip
 800df1a:	d102      	bne.n	800df22 <__aeabi_dmul+0x222>
 800df1c:	ea50 3601 	orrs.w	r6, r0, r1, lsl #12
 800df20:	d113      	bne.n	800df4a <__aeabi_dmul+0x24a>
 800df22:	ea95 0f0c 	teq	r5, ip
 800df26:	d105      	bne.n	800df34 <__aeabi_dmul+0x234>
 800df28:	ea52 3603 	orrs.w	r6, r2, r3, lsl #12
 800df2c:	bf1c      	itt	ne
 800df2e:	4610      	movne	r0, r2
 800df30:	4619      	movne	r1, r3
 800df32:	d10a      	bne.n	800df4a <__aeabi_dmul+0x24a>
 800df34:	ea81 0103 	eor.w	r1, r1, r3
 800df38:	f001 4100 	and.w	r1, r1, #2147483648	; 0x80000000
 800df3c:	f041 41fe 	orr.w	r1, r1, #2130706432	; 0x7f000000
 800df40:	f441 0170 	orr.w	r1, r1, #15728640	; 0xf00000
 800df44:	f04f 0000 	mov.w	r0, #0
 800df48:	bd70      	pop	{r4, r5, r6, pc}
 800df4a:	f041 41fe 	orr.w	r1, r1, #2130706432	; 0x7f000000
 800df4e:	f441 0178 	orr.w	r1, r1, #16252928	; 0xf80000
 800df52:	bd70      	pop	{r4, r5, r6, pc}

0800df54 <__aeabi_ddiv>:
 800df54:	b570      	push	{r4, r5, r6, lr}
 800df56:	f04f 0cff 	mov.w	ip, #255	; 0xff
 800df5a:	f44c 6ce0 	orr.w	ip, ip, #1792	; 0x700
 800df5e:	ea1c 5411 	ands.w	r4, ip, r1, lsr #20
 800df62:	bf1d      	ittte	ne
 800df64:	ea1c 5513 	andsne.w	r5, ip, r3, lsr #20
 800df68:	ea94 0f0c 	teqne	r4, ip
 800df6c:	ea95 0f0c 	teqne	r5, ip
 800df70:	f000 f8a7 	bleq	800e0c2 <__aeabi_ddiv+0x16e>
 800df74:	eba4 0405 	sub.w	r4, r4, r5
 800df78:	ea81 0e03 	eor.w	lr, r1, r3
 800df7c:	ea52 3503 	orrs.w	r5, r2, r3, lsl #12
 800df80:	ea4f 3101 	mov.w	r1, r1, lsl #12
 800df84:	f000 8088 	beq.w	800e098 <__aeabi_ddiv+0x144>
 800df88:	ea4f 3303 	mov.w	r3, r3, lsl #12
 800df8c:	f04f 5580 	mov.w	r5, #268435456	; 0x10000000
 800df90:	ea45 1313 	orr.w	r3, r5, r3, lsr #4
 800df94:	ea43 6312 	orr.w	r3, r3, r2, lsr #24
 800df98:	ea4f 2202 	mov.w	r2, r2, lsl #8
 800df9c:	ea45 1511 	orr.w	r5, r5, r1, lsr #4
 800dfa0:	ea45 6510 	orr.w	r5, r5, r0, lsr #24
 800dfa4:	ea4f 2600 	mov.w	r6, r0, lsl #8
 800dfa8:	f00e 4100 	and.w	r1, lr, #2147483648	; 0x80000000
 800dfac:	429d      	cmp	r5, r3
 800dfae:	bf08      	it	eq
 800dfb0:	4296      	cmpeq	r6, r2
 800dfb2:	f144 04fd 	adc.w	r4, r4, #253	; 0xfd
 800dfb6:	f504 7440 	add.w	r4, r4, #768	; 0x300
 800dfba:	d202      	bcs.n	800dfc2 <__aeabi_ddiv+0x6e>
 800dfbc:	085b      	lsrs	r3, r3, #1
 800dfbe:	ea4f 0232 	mov.w	r2, r2, rrx
 800dfc2:	1ab6      	subs	r6, r6, r2
 800dfc4:	eb65 0503 	sbc.w	r5, r5, r3
 800dfc8:	085b      	lsrs	r3, r3, #1
 800dfca:	ea4f 0232 	mov.w	r2, r2, rrx
 800dfce:	f44f 1080 	mov.w	r0, #1048576	; 0x100000
 800dfd2:	f44f 2c00 	mov.w	ip, #524288	; 0x80000
 800dfd6:	ebb6 0e02 	subs.w	lr, r6, r2
 800dfda:	eb75 0e03 	sbcs.w	lr, r5, r3
 800dfde:	bf22      	ittt	cs
 800dfe0:	1ab6      	subcs	r6, r6, r2
 800dfe2:	4675      	movcs	r5, lr
 800dfe4:	ea40 000c 	orrcs.w	r0, r0, ip
 800dfe8:	085b      	lsrs	r3, r3, #1
 800dfea:	ea4f 0232 	mov.w	r2, r2, rrx
 800dfee:	ebb6 0e02 	subs.w	lr, r6, r2
 800dff2:	eb75 0e03 	sbcs.w	lr, r5, r3
 800dff6:	bf22      	ittt	cs
 800dff8:	1ab6      	subcs	r6, r6, r2
 800dffa:	4675      	movcs	r5, lr
 800dffc:	ea40 005c 	orrcs.w	r0, r0, ip, lsr #1
 800e000:	085b      	lsrs	r3, r3, #1
 800e002:	ea4f 0232 	mov.w	r2, r2, rrx
 800e006:	ebb6 0e02 	subs.w	lr, r6, r2
 800e00a:	eb75 0e03 	sbcs.w	lr, r5, r3
 800e00e:	bf22      	ittt	cs
 800e010:	1ab6      	subcs	r6, r6, r2
 800e012:	4675      	movcs	r5, lr
 800e014:	ea40 009c 	orrcs.w	r0, r0, ip, lsr #2
 800e018:	085b      	lsrs	r3, r3, #1
 800e01a:	ea4f 0232 	mov.w	r2, r2, rrx
 800e01e:	ebb6 0e02 	subs.w	lr, r6, r2
 800e022:	eb75 0e03 	sbcs.w	lr, r5, r3
 800e026:	bf22      	ittt	cs
 800e028:	1ab6      	subcs	r6, r6, r2
 800e02a:	4675      	movcs	r5, lr
 800e02c:	ea40 00dc 	orrcs.w	r0, r0, ip, lsr #3
 800e030:	ea55 0e06 	orrs.w	lr, r5, r6
 800e034:	d018      	beq.n	800e068 <__aeabi_ddiv+0x114>
 800e036:	ea4f 1505 	mov.w	r5, r5, lsl #4
 800e03a:	ea45 7516 	orr.w	r5, r5, r6, lsr #28
 800e03e:	ea4f 1606 	mov.w	r6, r6, lsl #4
 800e042:	ea4f 03c3 	mov.w	r3, r3, lsl #3
 800e046:	ea43 7352 	orr.w	r3, r3, r2, lsr #29
 800e04a:	ea4f 02c2 	mov.w	r2, r2, lsl #3
 800e04e:	ea5f 1c1c 	movs.w	ip, ip, lsr #4
 800e052:	d1c0      	bne.n	800dfd6 <__aeabi_ddiv+0x82>
 800e054:	f411 1f80 	tst.w	r1, #1048576	; 0x100000
 800e058:	d10b      	bne.n	800e072 <__aeabi_ddiv+0x11e>
 800e05a:	ea41 0100 	orr.w	r1, r1, r0
 800e05e:	f04f 0000 	mov.w	r0, #0
 800e062:	f04f 4c00 	mov.w	ip, #2147483648	; 0x80000000
 800e066:	e7b6      	b.n	800dfd6 <__aeabi_ddiv+0x82>
 800e068:	f411 1f80 	tst.w	r1, #1048576	; 0x100000
 800e06c:	bf04      	itt	eq
 800e06e:	4301      	orreq	r1, r0
 800e070:	2000      	moveq	r0, #0
 800e072:	f1b4 0cfd 	subs.w	ip, r4, #253	; 0xfd
 800e076:	bf88      	it	hi
 800e078:	f5bc 6fe0 	cmphi.w	ip, #1792	; 0x700
 800e07c:	f63f aeaf 	bhi.w	800ddde <__aeabi_dmul+0xde>
 800e080:	ebb5 0c03 	subs.w	ip, r5, r3
 800e084:	bf04      	itt	eq
 800e086:	ebb6 0c02 	subseq.w	ip, r6, r2
 800e08a:	ea5f 0c50 	movseq.w	ip, r0, lsr #1
 800e08e:	f150 0000 	adcs.w	r0, r0, #0
 800e092:	eb41 5104 	adc.w	r1, r1, r4, lsl #20
 800e096:	bd70      	pop	{r4, r5, r6, pc}
 800e098:	f00e 4e00 	and.w	lr, lr, #2147483648	; 0x80000000
 800e09c:	ea4e 3111 	orr.w	r1, lr, r1, lsr #12
 800e0a0:	eb14 045c 	adds.w	r4, r4, ip, lsr #1
 800e0a4:	bfc2      	ittt	gt
 800e0a6:	ebd4 050c 	rsbsgt	r5, r4, ip
 800e0aa:	ea41 5104 	orrgt.w	r1, r1, r4, lsl #20
 800e0ae:	bd70      	popgt	{r4, r5, r6, pc}
 800e0b0:	f441 1180 	orr.w	r1, r1, #1048576	; 0x100000
 800e0b4:	f04f 0e00 	mov.w	lr, #0
 800e0b8:	3c01      	subs	r4, #1
 800e0ba:	e690      	b.n	800ddde <__aeabi_dmul+0xde>
 800e0bc:	ea45 0e06 	orr.w	lr, r5, r6
 800e0c0:	e68d      	b.n	800ddde <__aeabi_dmul+0xde>
 800e0c2:	ea0c 5513 	and.w	r5, ip, r3, lsr #20
 800e0c6:	ea94 0f0c 	teq	r4, ip
 800e0ca:	bf08      	it	eq
 800e0cc:	ea95 0f0c 	teqeq	r5, ip
 800e0d0:	f43f af3b 	beq.w	800df4a <__aeabi_dmul+0x24a>
 800e0d4:	ea94 0f0c 	teq	r4, ip
 800e0d8:	d10a      	bne.n	800e0f0 <__aeabi_ddiv+0x19c>
 800e0da:	ea50 3401 	orrs.w	r4, r0, r1, lsl #12
 800e0de:	f47f af34 	bne.w	800df4a <__aeabi_dmul+0x24a>
 800e0e2:	ea95 0f0c 	teq	r5, ip
 800e0e6:	f47f af25 	bne.w	800df34 <__aeabi_dmul+0x234>
 800e0ea:	4610      	mov	r0, r2
 800e0ec:	4619      	mov	r1, r3
 800e0ee:	e72c      	b.n	800df4a <__aeabi_dmul+0x24a>
 800e0f0:	ea95 0f0c 	teq	r5, ip
 800e0f4:	d106      	bne.n	800e104 <__aeabi_ddiv+0x1b0>
 800e0f6:	ea52 3503 	orrs.w	r5, r2, r3, lsl #12
 800e0fa:	f43f aefd 	beq.w	800def8 <__aeabi_dmul+0x1f8>
 800e0fe:	4610      	mov	r0, r2
 800e100:	4619      	mov	r1, r3
 800e102:	e722      	b.n	800df4a <__aeabi_dmul+0x24a>
 800e104:	ea50 0641 	orrs.w	r6, r0, r1, lsl #1
 800e108:	bf18      	it	ne
 800e10a:	ea52 0643 	orrsne.w	r6, r2, r3, lsl #1
 800e10e:	f47f aec5 	bne.w	800de9c <__aeabi_dmul+0x19c>
 800e112:	ea50 0441 	orrs.w	r4, r0, r1, lsl #1
 800e116:	f47f af0d 	bne.w	800df34 <__aeabi_dmul+0x234>
 800e11a:	ea52 0543 	orrs.w	r5, r2, r3, lsl #1
 800e11e:	f47f aeeb 	bne.w	800def8 <__aeabi_dmul+0x1f8>
 800e122:	e712      	b.n	800df4a <__aeabi_dmul+0x24a>

0800e124 <__gedf2>:
 800e124:	f04f 3cff 	mov.w	ip, #4294967295
 800e128:	e006      	b.n	800e138 <__cmpdf2+0x4>
 800e12a:	bf00      	nop

0800e12c <__ledf2>:
 800e12c:	f04f 0c01 	mov.w	ip, #1
 800e130:	e002      	b.n	800e138 <__cmpdf2+0x4>
 800e132:	bf00      	nop

0800e134 <__cmpdf2>:
 800e134:	f04f 0c01 	mov.w	ip, #1
 800e138:	f84d cd04 	str.w	ip, [sp, #-4]!
 800e13c:	ea4f 0c41 	mov.w	ip, r1, lsl #1
 800e140:	ea7f 5c6c 	mvns.w	ip, ip, asr #21
 800e144:	ea4f 0c43 	mov.w	ip, r3, lsl #1
 800e148:	bf18      	it	ne
 800e14a:	ea7f 5c6c 	mvnsne.w	ip, ip, asr #21
 800e14e:	d01b      	beq.n	800e188 <__cmpdf2+0x54>
 800e150:	b001      	add	sp, #4
 800e152:	ea50 0c41 	orrs.w	ip, r0, r1, lsl #1
 800e156:	bf0c      	ite	eq
 800e158:	ea52 0c43 	orrseq.w	ip, r2, r3, lsl #1
 800e15c:	ea91 0f03 	teqne	r1, r3
 800e160:	bf02      	ittt	eq
 800e162:	ea90 0f02 	teqeq	r0, r2
 800e166:	2000      	moveq	r0, #0
 800e168:	4770      	bxeq	lr
 800e16a:	f110 0f00 	cmn.w	r0, #0
 800e16e:	ea91 0f03 	teq	r1, r3
 800e172:	bf58      	it	pl
 800e174:	4299      	cmppl	r1, r3
 800e176:	bf08      	it	eq
 800e178:	4290      	cmpeq	r0, r2
 800e17a:	bf2c      	ite	cs
 800e17c:	17d8      	asrcs	r0, r3, #31
 800e17e:	ea6f 70e3 	mvncc.w	r0, r3, asr #31
 800e182:	f040 0001 	orr.w	r0, r0, #1
 800e186:	4770      	bx	lr
 800e188:	ea4f 0c41 	mov.w	ip, r1, lsl #1
 800e18c:	ea7f 5c6c 	mvns.w	ip, ip, asr #21
 800e190:	d102      	bne.n	800e198 <__cmpdf2+0x64>
 800e192:	ea50 3c01 	orrs.w	ip, r0, r1, lsl #12
 800e196:	d107      	bne.n	800e1a8 <__cmpdf2+0x74>
 800e198:	ea4f 0c43 	mov.w	ip, r3, lsl #1
 800e19c:	ea7f 5c6c 	mvns.w	ip, ip, asr #21
 800e1a0:	d1d6      	bne.n	800e150 <__cmpdf2+0x1c>
 800e1a2:	ea52 3c03 	orrs.w	ip, r2, r3, lsl #12
 800e1a6:	d0d3      	beq.n	800e150 <__cmpdf2+0x1c>
 800e1a8:	f85d 0b04 	ldr.w	r0, [sp], #4
 800e1ac:	4770      	bx	lr
 800e1ae:	bf00      	nop

0800e1b0 <__aeabi_cdrcmple>:
 800e1b0:	4684      	mov	ip, r0
 800e1b2:	4610      	mov	r0, r2
 800e1b4:	4662      	mov	r2, ip
 800e1b6:	468c      	mov	ip, r1
 800e1b8:	4619      	mov	r1, r3
 800e1ba:	4663      	mov	r3, ip
 800e1bc:	e000      	b.n	800e1c0 <__aeabi_cdcmpeq>
 800e1be:	bf00      	nop

0800e1c0 <__aeabi_cdcmpeq>:
 800e1c0:	b501      	push	{r0, lr}
 800e1c2:	f7ff ffb7 	bl	800e134 <__cmpdf2>
 800e1c6:	2800      	cmp	r0, #0
 800e1c8:	bf48      	it	mi
 800e1ca:	f110 0f00 	cmnmi.w	r0, #0
 800e1ce:	bd01      	pop	{r0, pc}

0800e1d0 <__aeabi_dcmpeq>:
 800e1d0:	f84d ed08 	str.w	lr, [sp, #-8]!
 800e1d4:	f7ff fff4 	bl	800e1c0 <__aeabi_cdcmpeq>
 800e1d8:	bf0c      	ite	eq
 800e1da:	2001      	moveq	r0, #1
 800e1dc:	2000      	movne	r0, #0
 800e1de:	f85d fb08 	ldr.w	pc, [sp], #8
 800e1e2:	bf00      	nop

0800e1e4 <__aeabi_dcmplt>:
 800e1e4:	f84d ed08 	str.w	lr, [sp, #-8]!
 800e1e8:	f7ff ffea 	bl	800e1c0 <__aeabi_cdcmpeq>
 800e1ec:	bf34      	ite	cc
 800e1ee:	2001      	movcc	r0, #1
 800e1f0:	2000      	movcs	r0, #0
 800e1f2:	f85d fb08 	ldr.w	pc, [sp], #8
 800e1f6:	bf00      	nop

0800e1f8 <__aeabi_dcmple>:
 800e1f8:	f84d ed08 	str.w	lr, [sp, #-8]!
 800e1fc:	f7ff ffe0 	bl	800e1c0 <__aeabi_cdcmpeq>
 800e200:	bf94      	ite	ls
 800e202:	2001      	movls	r0, #1
 800e204:	2000      	movhi	r0, #0
 800e206:	f85d fb08 	ldr.w	pc, [sp], #8
 800e20a:	bf00      	nop

0800e20c <__aeabi_dcmpge>:
 800e20c:	f84d ed08 	str.w	lr, [sp, #-8]!
 800e210:	f7ff ffce 	bl	800e1b0 <__aeabi_cdrcmple>
 800e214:	bf94      	ite	ls
 800e216:	2001      	movls	r0, #1
 800e218:	2000      	movhi	r0, #0
 800e21a:	f85d fb08 	ldr.w	pc, [sp], #8
 800e21e:	bf00      	nop

0800e220 <__aeabi_dcmpgt>:
 800e220:	f84d ed08 	str.w	lr, [sp, #-8]!
 800e224:	f7ff ffc4 	bl	800e1b0 <__aeabi_cdrcmple>
 800e228:	bf34      	ite	cc
 800e22a:	2001      	movcc	r0, #1
 800e22c:	2000      	movcs	r0, #0
 800e22e:	f85d fb08 	ldr.w	pc, [sp], #8
 800e232:	bf00      	nop

0800e234 <__aeabi_d2uiz>:
 800e234:	004a      	lsls	r2, r1, #1
 800e236:	d211      	bcs.n	800e25c <__aeabi_d2uiz+0x28>
 800e238:	f512 1200 	adds.w	r2, r2, #2097152	; 0x200000
 800e23c:	d211      	bcs.n	800e262 <__aeabi_d2uiz+0x2e>
 800e23e:	d50d      	bpl.n	800e25c <__aeabi_d2uiz+0x28>
 800e240:	f46f 7378 	mvn.w	r3, #992	; 0x3e0
 800e244:	ebb3 5262 	subs.w	r2, r3, r2, asr #21
 800e248:	d40e      	bmi.n	800e268 <__aeabi_d2uiz+0x34>
 800e24a:	ea4f 23c1 	mov.w	r3, r1, lsl #11
 800e24e:	f043 4300 	orr.w	r3, r3, #2147483648	; 0x80000000
 800e252:	ea43 5350 	orr.w	r3, r3, r0, lsr #21
 800e256:	fa23 f002 	lsr.w	r0, r3, r2
 800e25a:	4770      	bx	lr
 800e25c:	f04f 0000 	mov.w	r0, #0
 800e260:	4770      	bx	lr
 800e262:	ea50 3001 	orrs.w	r0, r0, r1, lsl #12
 800e266:	d102      	bne.n	800e26e <__aeabi_d2uiz+0x3a>
 800e268:	f04f 30ff 	mov.w	r0, #4294967295
 800e26c:	4770      	bx	lr
 800e26e:	f04f 0000 	mov.w	r0, #0
 800e272:	4770      	bx	lr

0800e274 <__aeabi_uldivmod>:
 800e274:	b953      	cbnz	r3, 800e28c <__aeabi_uldivmod+0x18>
 800e276:	b94a      	cbnz	r2, 800e28c <__aeabi_uldivmod+0x18>
 800e278:	2900      	cmp	r1, #0
 800e27a:	bf08      	it	eq
 800e27c:	2800      	cmpeq	r0, #0
 800e27e:	bf1c      	itt	ne
 800e280:	f04f 31ff 	movne.w	r1, #4294967295
 800e284:	f04f 30ff 	movne.w	r0, #4294967295
 800e288:	f000 b994 	b.w	800e5b4 <__aeabi_idiv0>
 800e28c:	f1ad 0c08 	sub.w	ip, sp, #8
 800e290:	e96d ce04 	strd	ip, lr, [sp, #-16]!
 800e294:	f000 f828 	bl	800e2e8 <__udivmoddi4>
 800e298:	f8dd e004 	ldr.w	lr, [sp, #4]
 800e29c:	e9dd 2302 	ldrd	r2, r3, [sp, #8]
 800e2a0:	b004      	add	sp, #16
 800e2a2:	4770      	bx	lr

0800e2a4 <__aeabi_d2ulz>:
 800e2a4:	b5d0      	push	{r4, r6, r7, lr}
 800e2a6:	2200      	movs	r2, #0
 800e2a8:	4b0d      	ldr	r3, [pc, #52]	; (800e2e0 <__aeabi_d2ulz+0x3c>)
 800e2aa:	4606      	mov	r6, r0
 800e2ac:	460f      	mov	r7, r1
 800e2ae:	f7ff fd27 	bl	800dd00 <__aeabi_dmul>
 800e2b2:	f7ff ffbf 	bl	800e234 <__aeabi_d2uiz>
 800e2b6:	4604      	mov	r4, r0
 800e2b8:	f7ff fca8 	bl	800dc0c <__aeabi_ui2d>
 800e2bc:	2200      	movs	r2, #0
 800e2be:	4b09      	ldr	r3, [pc, #36]	; (800e2e4 <__aeabi_d2ulz+0x40>)
 800e2c0:	f7ff fd1e 	bl	800dd00 <__aeabi_dmul>
 800e2c4:	4602      	mov	r2, r0
 800e2c6:	460b      	mov	r3, r1
 800e2c8:	4630      	mov	r0, r6
 800e2ca:	4639      	mov	r1, r7
 800e2cc:	f7ff fb60 	bl	800d990 <__aeabi_dsub>
 800e2d0:	f7ff ffb0 	bl	800e234 <__aeabi_d2uiz>
 800e2d4:	2200      	movs	r2, #0
 800e2d6:	4623      	mov	r3, r4
 800e2d8:	4310      	orrs	r0, r2
 800e2da:	4619      	mov	r1, r3
 800e2dc:	bdd0      	pop	{r4, r6, r7, pc}
 800e2de:	bf00      	nop
 800e2e0:	3df00000 	.word	0x3df00000
 800e2e4:	41f00000 	.word	0x41f00000

0800e2e8 <__udivmoddi4>:
 800e2e8:	e92d 47f0 	stmdb	sp!, {r4, r5, r6, r7, r8, r9, sl, lr}
 800e2ec:	9e08      	ldr	r6, [sp, #32]
 800e2ee:	4604      	mov	r4, r0
 800e2f0:	4688      	mov	r8, r1
 800e2f2:	2b00      	cmp	r3, #0
 800e2f4:	d14b      	bne.n	800e38e <__udivmoddi4+0xa6>
 800e2f6:	428a      	cmp	r2, r1
 800e2f8:	4615      	mov	r5, r2
 800e2fa:	d967      	bls.n	800e3cc <__udivmoddi4+0xe4>
 800e2fc:	fab2 f282 	clz	r2, r2
 800e300:	b14a      	cbz	r2, 800e316 <__udivmoddi4+0x2e>
 800e302:	f1c2 0720 	rsb	r7, r2, #32
 800e306:	fa01 f302 	lsl.w	r3, r1, r2
 800e30a:	fa20 f707 	lsr.w	r7, r0, r7
 800e30e:	4095      	lsls	r5, r2
 800e310:	ea47 0803 	orr.w	r8, r7, r3
 800e314:	4094      	lsls	r4, r2
 800e316:	ea4f 4e15 	mov.w	lr, r5, lsr #16
 800e31a:	0c23      	lsrs	r3, r4, #16
 800e31c:	fbb8 f7fe 	udiv	r7, r8, lr
 800e320:	fa1f fc85 	uxth.w	ip, r5
 800e324:	fb0e 8817 	mls	r8, lr, r7, r8
 800e328:	ea43 4308 	orr.w	r3, r3, r8, lsl #16
 800e32c:	fb07 f10c 	mul.w	r1, r7, ip
 800e330:	4299      	cmp	r1, r3
 800e332:	d909      	bls.n	800e348 <__udivmoddi4+0x60>
 800e334:	18eb      	adds	r3, r5, r3
 800e336:	f107 30ff 	add.w	r0, r7, #4294967295
 800e33a:	f080 811b 	bcs.w	800e574 <__udivmoddi4+0x28c>
 800e33e:	4299      	cmp	r1, r3
 800e340:	f240 8118 	bls.w	800e574 <__udivmoddi4+0x28c>
 800e344:	3f02      	subs	r7, #2
 800e346:	442b      	add	r3, r5
 800e348:	1a5b      	subs	r3, r3, r1
 800e34a:	b2a4      	uxth	r4, r4
 800e34c:	fbb3 f0fe 	udiv	r0, r3, lr
 800e350:	fb0e 3310 	mls	r3, lr, r0, r3
 800e354:	ea44 4403 	orr.w	r4, r4, r3, lsl #16
 800e358:	fb00 fc0c 	mul.w	ip, r0, ip
 800e35c:	45a4      	cmp	ip, r4
 800e35e:	d909      	bls.n	800e374 <__udivmoddi4+0x8c>
 800e360:	192c      	adds	r4, r5, r4
 800e362:	f100 33ff 	add.w	r3, r0, #4294967295
 800e366:	f080 8107 	bcs.w	800e578 <__udivmoddi4+0x290>
 800e36a:	45a4      	cmp	ip, r4
 800e36c:	f240 8104 	bls.w	800e578 <__udivmoddi4+0x290>
 800e370:	3802      	subs	r0, #2
 800e372:	442c      	add	r4, r5
 800e374:	ea40 4007 	orr.w	r0, r0, r7, lsl #16
 800e378:	eba4 040c 	sub.w	r4, r4, ip
 800e37c:	2700      	movs	r7, #0
 800e37e:	b11e      	cbz	r6, 800e388 <__udivmoddi4+0xa0>
 800e380:	40d4      	lsrs	r4, r2
 800e382:	2300      	movs	r3, #0
 800e384:	e9c6 4300 	strd	r4, r3, [r6]
 800e388:	4639      	mov	r1, r7
 800e38a:	e8bd 87f0 	ldmia.w	sp!, {r4, r5, r6, r7, r8, r9, sl, pc}
 800e38e:	428b      	cmp	r3, r1
 800e390:	d909      	bls.n	800e3a6 <__udivmoddi4+0xbe>
 800e392:	2e00      	cmp	r6, #0
 800e394:	f000 80eb 	beq.w	800e56e <__udivmoddi4+0x286>
 800e398:	2700      	movs	r7, #0
 800e39a:	e9c6 0100 	strd	r0, r1, [r6]
 800e39e:	4638      	mov	r0, r7
 800e3a0:	4639      	mov	r1, r7
 800e3a2:	e8bd 87f0 	ldmia.w	sp!, {r4, r5, r6, r7, r8, r9, sl, pc}
 800e3a6:	fab3 f783 	clz	r7, r3
 800e3aa:	2f00      	cmp	r7, #0
 800e3ac:	d147      	bne.n	800e43e <__udivmoddi4+0x156>
 800e3ae:	428b      	cmp	r3, r1
 800e3b0:	d302      	bcc.n	800e3b8 <__udivmoddi4+0xd0>
 800e3b2:	4282      	cmp	r2, r0
 800e3b4:	f200 80fa 	bhi.w	800e5ac <__udivmoddi4+0x2c4>
 800e3b8:	1a84      	subs	r4, r0, r2
 800e3ba:	eb61 0303 	sbc.w	r3, r1, r3
 800e3be:	2001      	movs	r0, #1
 800e3c0:	4698      	mov	r8, r3
 800e3c2:	2e00      	cmp	r6, #0
 800e3c4:	d0e0      	beq.n	800e388 <__udivmoddi4+0xa0>
 800e3c6:	e9c6 4800 	strd	r4, r8, [r6]
 800e3ca:	e7dd      	b.n	800e388 <__udivmoddi4+0xa0>
 800e3cc:	b902      	cbnz	r2, 800e3d0 <__udivmoddi4+0xe8>
 800e3ce:	deff      	udf	#255	; 0xff
 800e3d0:	fab2 f282 	clz	r2, r2
 800e3d4:	2a00      	cmp	r2, #0
 800e3d6:	f040 808f 	bne.w	800e4f8 <__udivmoddi4+0x210>
 800e3da:	1b49      	subs	r1, r1, r5
 800e3dc:	ea4f 4e15 	mov.w	lr, r5, lsr #16
 800e3e0:	fa1f f885 	uxth.w	r8, r5
 800e3e4:	2701      	movs	r7, #1
 800e3e6:	fbb1 fcfe 	udiv	ip, r1, lr
 800e3ea:	0c23      	lsrs	r3, r4, #16
 800e3ec:	fb0e 111c 	mls	r1, lr, ip, r1
 800e3f0:	ea43 4301 	orr.w	r3, r3, r1, lsl #16
 800e3f4:	fb08 f10c 	mul.w	r1, r8, ip
 800e3f8:	4299      	cmp	r1, r3
 800e3fa:	d907      	bls.n	800e40c <__udivmoddi4+0x124>
 800e3fc:	18eb      	adds	r3, r5, r3
 800e3fe:	f10c 30ff 	add.w	r0, ip, #4294967295
 800e402:	d202      	bcs.n	800e40a <__udivmoddi4+0x122>
 800e404:	4299      	cmp	r1, r3
 800e406:	f200 80cd 	bhi.w	800e5a4 <__udivmoddi4+0x2bc>
 800e40a:	4684      	mov	ip, r0
 800e40c:	1a59      	subs	r1, r3, r1
 800e40e:	b2a3      	uxth	r3, r4
 800e410:	fbb1 f0fe 	udiv	r0, r1, lr
 800e414:	fb0e 1410 	mls	r4, lr, r0, r1
 800e418:	ea43 4404 	orr.w	r4, r3, r4, lsl #16
 800e41c:	fb08 f800 	mul.w	r8, r8, r0
 800e420:	45a0      	cmp	r8, r4
 800e422:	d907      	bls.n	800e434 <__udivmoddi4+0x14c>
 800e424:	192c      	adds	r4, r5, r4
 800e426:	f100 33ff 	add.w	r3, r0, #4294967295
 800e42a:	d202      	bcs.n	800e432 <__udivmoddi4+0x14a>
 800e42c:	45a0      	cmp	r8, r4
 800e42e:	f200 80b6 	bhi.w	800e59e <__udivmoddi4+0x2b6>
 800e432:	4618      	mov	r0, r3
 800e434:	eba4 0408 	sub.w	r4, r4, r8
 800e438:	ea40 400c 	orr.w	r0, r0, ip, lsl #16
 800e43c:	e79f      	b.n	800e37e <__udivmoddi4+0x96>
 800e43e:	f1c7 0c20 	rsb	ip, r7, #32
 800e442:	40bb      	lsls	r3, r7
 800e444:	fa22 fe0c 	lsr.w	lr, r2, ip
 800e448:	ea4e 0e03 	orr.w	lr, lr, r3
 800e44c:	fa01 f407 	lsl.w	r4, r1, r7
 800e450:	fa20 f50c 	lsr.w	r5, r0, ip
 800e454:	fa21 f30c 	lsr.w	r3, r1, ip
 800e458:	ea4f 481e 	mov.w	r8, lr, lsr #16
 800e45c:	4325      	orrs	r5, r4
 800e45e:	fbb3 f9f8 	udiv	r9, r3, r8
 800e462:	0c2c      	lsrs	r4, r5, #16
 800e464:	fb08 3319 	mls	r3, r8, r9, r3
 800e468:	fa1f fa8e 	uxth.w	sl, lr
 800e46c:	ea44 4303 	orr.w	r3, r4, r3, lsl #16
 800e470:	fb09 f40a 	mul.w	r4, r9, sl
 800e474:	429c      	cmp	r4, r3
 800e476:	fa02 f207 	lsl.w	r2, r2, r7
 800e47a:	fa00 f107 	lsl.w	r1, r0, r7
 800e47e:	d90b      	bls.n	800e498 <__udivmoddi4+0x1b0>
 800e480:	eb1e 0303 	adds.w	r3, lr, r3
 800e484:	f109 30ff 	add.w	r0, r9, #4294967295
 800e488:	f080 8087 	bcs.w	800e59a <__udivmoddi4+0x2b2>
 800e48c:	429c      	cmp	r4, r3
 800e48e:	f240 8084 	bls.w	800e59a <__udivmoddi4+0x2b2>
 800e492:	f1a9 0902 	sub.w	r9, r9, #2
 800e496:	4473      	add	r3, lr
 800e498:	1b1b      	subs	r3, r3, r4
 800e49a:	b2ad      	uxth	r5, r5
 800e49c:	fbb3 f0f8 	udiv	r0, r3, r8
 800e4a0:	fb08 3310 	mls	r3, r8, r0, r3
 800e4a4:	ea45 4403 	orr.w	r4, r5, r3, lsl #16
 800e4a8:	fb00 fa0a 	mul.w	sl, r0, sl
 800e4ac:	45a2      	cmp	sl, r4
 800e4ae:	d908      	bls.n	800e4c2 <__udivmoddi4+0x1da>
 800e4b0:	eb1e 0404 	adds.w	r4, lr, r4
 800e4b4:	f100 33ff 	add.w	r3, r0, #4294967295
 800e4b8:	d26b      	bcs.n	800e592 <__udivmoddi4+0x2aa>
 800e4ba:	45a2      	cmp	sl, r4
 800e4bc:	d969      	bls.n	800e592 <__udivmoddi4+0x2aa>
 800e4be:	3802      	subs	r0, #2
 800e4c0:	4474      	add	r4, lr
 800e4c2:	ea40 4009 	orr.w	r0, r0, r9, lsl #16
 800e4c6:	fba0 8902 	umull	r8, r9, r0, r2
 800e4ca:	eba4 040a 	sub.w	r4, r4, sl
 800e4ce:	454c      	cmp	r4, r9
 800e4d0:	46c2      	mov	sl, r8
 800e4d2:	464b      	mov	r3, r9
 800e4d4:	d354      	bcc.n	800e580 <__udivmoddi4+0x298>
 800e4d6:	d051      	beq.n	800e57c <__udivmoddi4+0x294>
 800e4d8:	2e00      	cmp	r6, #0
 800e4da:	d069      	beq.n	800e5b0 <__udivmoddi4+0x2c8>
 800e4dc:	ebb1 050a 	subs.w	r5, r1, sl
 800e4e0:	eb64 0403 	sbc.w	r4, r4, r3
 800e4e4:	fa04 fc0c 	lsl.w	ip, r4, ip
 800e4e8:	40fd      	lsrs	r5, r7
 800e4ea:	40fc      	lsrs	r4, r7
 800e4ec:	ea4c 0505 	orr.w	r5, ip, r5
 800e4f0:	e9c6 5400 	strd	r5, r4, [r6]
 800e4f4:	2700      	movs	r7, #0
 800e4f6:	e747      	b.n	800e388 <__udivmoddi4+0xa0>
 800e4f8:	f1c2 0320 	rsb	r3, r2, #32
 800e4fc:	fa20 f703 	lsr.w	r7, r0, r3
 800e500:	4095      	lsls	r5, r2
 800e502:	fa01 f002 	lsl.w	r0, r1, r2
 800e506:	fa21 f303 	lsr.w	r3, r1, r3
 800e50a:	ea4f 4e15 	mov.w	lr, r5, lsr #16
 800e50e:	4338      	orrs	r0, r7
 800e510:	0c01      	lsrs	r1, r0, #16
 800e512:	fbb3 f7fe 	udiv	r7, r3, lr
 800e516:	fa1f f885 	uxth.w	r8, r5
 800e51a:	fb0e 3317 	mls	r3, lr, r7, r3
 800e51e:	ea41 4103 	orr.w	r1, r1, r3, lsl #16
 800e522:	fb07 f308 	mul.w	r3, r7, r8
 800e526:	428b      	cmp	r3, r1
 800e528:	fa04 f402 	lsl.w	r4, r4, r2
 800e52c:	d907      	bls.n	800e53e <__udivmoddi4+0x256>
 800e52e:	1869      	adds	r1, r5, r1
 800e530:	f107 3cff 	add.w	ip, r7, #4294967295
 800e534:	d22f      	bcs.n	800e596 <__udivmoddi4+0x2ae>
 800e536:	428b      	cmp	r3, r1
 800e538:	d92d      	bls.n	800e596 <__udivmoddi4+0x2ae>
 800e53a:	3f02      	subs	r7, #2
 800e53c:	4429      	add	r1, r5
 800e53e:	1acb      	subs	r3, r1, r3
 800e540:	b281      	uxth	r1, r0
 800e542:	fbb3 f0fe 	udiv	r0, r3, lr
 800e546:	fb0e 3310 	mls	r3, lr, r0, r3
 800e54a:	ea41 4103 	orr.w	r1, r1, r3, lsl #16
 800e54e:	fb00 f308 	mul.w	r3, r0, r8
 800e552:	428b      	cmp	r3, r1
 800e554:	d907      	bls.n	800e566 <__udivmoddi4+0x27e>
 800e556:	1869      	adds	r1, r5, r1
 800e558:	f100 3cff 	add.w	ip, r0, #4294967295
 800e55c:	d217      	bcs.n	800e58e <__udivmoddi4+0x2a6>
 800e55e:	428b      	cmp	r3, r1
 800e560:	d915      	bls.n	800e58e <__udivmoddi4+0x2a6>
 800e562:	3802      	subs	r0, #2
 800e564:	4429      	add	r1, r5
 800e566:	1ac9      	subs	r1, r1, r3
 800e568:	ea40 4707 	orr.w	r7, r0, r7, lsl #16
 800e56c:	e73b      	b.n	800e3e6 <__udivmoddi4+0xfe>
 800e56e:	4637      	mov	r7, r6
 800e570:	4630      	mov	r0, r6
 800e572:	e709      	b.n	800e388 <__udivmoddi4+0xa0>
 800e574:	4607      	mov	r7, r0
 800e576:	e6e7      	b.n	800e348 <__udivmoddi4+0x60>
 800e578:	4618      	mov	r0, r3
 800e57a:	e6fb      	b.n	800e374 <__udivmoddi4+0x8c>
 800e57c:	4541      	cmp	r1, r8
 800e57e:	d2ab      	bcs.n	800e4d8 <__udivmoddi4+0x1f0>
 800e580:	ebb8 0a02 	subs.w	sl, r8, r2
 800e584:	eb69 020e 	sbc.w	r2, r9, lr
 800e588:	3801      	subs	r0, #1
 800e58a:	4613      	mov	r3, r2
 800e58c:	e7a4      	b.n	800e4d8 <__udivmoddi4+0x1f0>
 800e58e:	4660      	mov	r0, ip
 800e590:	e7e9      	b.n	800e566 <__udivmoddi4+0x27e>
 800e592:	4618      	mov	r0, r3
 800e594:	e795      	b.n	800e4c2 <__udivmoddi4+0x1da>
 800e596:	4667      	mov	r7, ip
 800e598:	e7d1      	b.n	800e53e <__udivmoddi4+0x256>
 800e59a:	4681      	mov	r9, r0
 800e59c:	e77c      	b.n	800e498 <__udivmoddi4+0x1b0>
 800e59e:	3802      	subs	r0, #2
 800e5a0:	442c      	add	r4, r5
 800e5a2:	e747      	b.n	800e434 <__udivmoddi4+0x14c>
 800e5a4:	f1ac 0c02 	sub.w	ip, ip, #2
 800e5a8:	442b      	add	r3, r5
 800e5aa:	e72f      	b.n	800e40c <__udivmoddi4+0x124>
 800e5ac:	4638      	mov	r0, r7
 800e5ae:	e708      	b.n	800e3c2 <__udivmoddi4+0xda>
 800e5b0:	4637      	mov	r7, r6
 800e5b2:	e6e9      	b.n	800e388 <__udivmoddi4+0xa0>

0800e5b4 <__aeabi_idiv0>:
 800e5b4:	4770      	bx	lr
 800e5b6:	bf00      	nop

0800e5b8 <rti_board_start>:
INIT_EXPORT(rti_start, "0");

static int rti_board_start(void)
{
    return 0;
}
 800e5b8:	2000      	movs	r0, #0
 800e5ba:	4770      	bx	lr

0800e5bc <rti_board_end>:
INIT_EXPORT(rti_board_start, "0.end");

static int rti_board_end(void)
{
    return 0;
}
 800e5bc:	2000      	movs	r0, #0
 800e5be:	4770      	bx	lr

0800e5c0 <rt_components_board_init>:

/**
 * RT-Thread Components Initialization for board
 */
void rt_components_board_init(void)
{
 800e5c0:	b510      	push	{r4, lr}
        rt_kprintf(":%d done\n", result);
    }
#else
    const init_fn_t *fn_ptr;

    for (fn_ptr = &__rt_init_rti_board_start; fn_ptr < &__rt_init_rti_board_end; fn_ptr++)
 800e5c2:	4c04      	ldr	r4, [pc, #16]	; (800e5d4 <rt_components_board_init+0x14>)
 800e5c4:	e002      	b.n	800e5cc <rt_components_board_init+0xc>
    {
        (*fn_ptr)();
 800e5c6:	f854 3b04 	ldr.w	r3, [r4], #4
 800e5ca:	4798      	blx	r3
    for (fn_ptr = &__rt_init_rti_board_start; fn_ptr < &__rt_init_rti_board_end; fn_ptr++)
 800e5cc:	4b02      	ldr	r3, [pc, #8]	; (800e5d8 <rt_components_board_init+0x18>)
 800e5ce:	429c      	cmp	r4, r3
 800e5d0:	d3f9      	bcc.n	800e5c6 <rt_components_board_init+0x6>
    }
#endif
}
 800e5d2:	bd10      	pop	{r4, pc}
 800e5d4:	08012ec0 	.word	0x08012ec0
 800e5d8:	08012ec4 	.word	0x08012ec4

0800e5dc <thread_eventGreen>:
//参数说明：无
//功能概要：等待绿灯事件被触发，反转绿灯
//内部调用：无
//======================================================================
void thread_eventGreen()
{
 800e5dc:	b500      	push	{lr}
 800e5de:	b085      	sub	sp, #20
	//（1）======申请局部变量=========================================
    uint32_t recvedstate;
    printf("第一次进入绿灯线程!\r\n");
 800e5e0:	4813      	ldr	r0, [pc, #76]	; (800e630 <thread_eventGreen+0x54>)
 800e5e2:	f000 fd11 	bl	800f008 <myprintf>
	gpio_init(LIGHT_GREEN,GPIO_OUTPUT,LIGHT_OFF);
 800e5e6:	2201      	movs	r2, #1
 800e5e8:	4611      	mov	r1, r2
 800e5ea:	f44f 7084 	mov.w	r0, #264	; 0x108
 800e5ee:	f001 fbe3 	bl	800fdb8 <gpio_init>
	//（2）======主循环（开始）==========================================
    while (1)
    {
    	uart_send_string(UART_User,(void *)"在绿灯线程中，等待绿灯事件被触发\r\n");
 800e5f2:	4910      	ldr	r1, [pc, #64]	; (800e634 <thread_eventGreen+0x58>)
 800e5f4:	2002      	movs	r0, #2
 800e5f6:	f002 fe49 	bl	801128c <uart_send_string>
    	//一直等待GREEN_LIGHT_EVENT事件字
        rt_event_recv(EventWord,GREEN_LIGHT_EVENT,RT_EVENT_FLAG_OR|RT_EVENT_FLAG_CLEAR,RT_WAITING_FOREVER,&recvedstate);
 800e5fa:	4b0f      	ldr	r3, [pc, #60]	; (800e638 <thread_eventGreen+0x5c>)
 800e5fc:	6818      	ldr	r0, [r3, #0]
 800e5fe:	ab03      	add	r3, sp, #12
 800e600:	9300      	str	r3, [sp, #0]
 800e602:	f04f 33ff 	mov.w	r3, #4294967295
 800e606:	2206      	movs	r2, #6
 800e608:	2104      	movs	r1, #4
 800e60a:	f001 fe1c 	bl	8010246 <rt_event_recv>
    	if(recvedstate==GREEN_LIGHT_EVENT)  //如果接收完成且正确
 800e60e:	9b03      	ldr	r3, [sp, #12]
 800e610:	2b04      	cmp	r3, #4
 800e612:	d1ee      	bne.n	800e5f2 <thread_eventGreen+0x16>
    	{
			uart_send_string(UART_User,(void *)"在绿灯线程中，收到绿灯事件，绿灯反转\r\n");
 800e614:	4909      	ldr	r1, [pc, #36]	; (800e63c <thread_eventGreen+0x60>)
 800e616:	2002      	movs	r0, #2
 800e618:	f002 fe38 	bl	801128c <uart_send_string>
            gpio_reverse(LIGHT_GREEN);     //转换绿灯状态
 800e61c:	f44f 7084 	mov.w	r0, #264	; 0x108
 800e620:	f001 fc02 	bl	800fe28 <gpio_reverse>
			rt_event_send(EventWord,BLUE_LIGHT_EVENT);
 800e624:	2108      	movs	r1, #8
 800e626:	4b04      	ldr	r3, [pc, #16]	; (800e638 <thread_eventGreen+0x5c>)
 800e628:	6818      	ldr	r0, [r3, #0]
 800e62a:	f001 fdc0 	bl	80101ae <rt_event_send>
 800e62e:	e7e0      	b.n	800e5f2 <thread_eventGreen+0x16>
 800e630:	080122d8 	.word	0x080122d8
 800e634:	080122f0 	.word	0x080122f0
 800e638:	20007348 	.word	0x20007348
 800e63c:	08012314 	.word	0x08012314

0800e640 <rt_hw_stack_init>:
//======================================================================
rt_uint8_t *rt_hw_stack_init(void       *tentry,
                             void       *parameter,
                             rt_uint8_t *stack_addr,
                             void       *texit)
{
 800e640:	b470      	push	{r4, r5, r6}
 800e642:	4606      	mov	r6, r0
    struct stack_frame *stack_frame;
    rt_uint8_t         *stk;
    unsigned long       i;
    //（1）获取栈顶指针位置
    //（1.1）获取栈顶地址，rt_hw_stack_init在调用的时候，传给stack_addr的是(栈顶指针-4)，所以要sizeof(rt_uint32_t)加回来
    stk  = stack_addr + sizeof(rt_uint32_t);
 800e644:	3204      	adds	r2, #4
    //（1.2）因为浮点运算要求栈是8字节对齐的，且栈底在高地址，所以需要向下8字节对齐
    stk  = (rt_uint8_t *)RT_ALIGN_DOWN((rt_uint32_t)stk, 8);
 800e646:	f022 0507 	bic.w	r5, r2, #7
    //（1.3）栈顶指针stk指针继续向下移动sizeof(struct stack_frame)个偏移，即移动一个栈帧大小
    stk -= sizeof(struct stack_frame);
 800e64a:	f1a5 0044 	sub.w	r0, r5, #68	; 0x44
    //（1.4）将stk指针强制转化为stack_frame类型，得到stack_frame指针
    stack_frame = (struct stack_frame *)stk;

    //（2）将栈空间里面的stack_frame结构体内存初始化为0xdeadbeef
    for (i = 0; i < sizeof(struct stack_frame) / sizeof(rt_uint32_t); i ++)
 800e64e:	2200      	movs	r2, #0
 800e650:	e003      	b.n	800e65a <rt_hw_stack_init+0x1a>
    {
        ((rt_uint32_t *)stack_frame)[i] = 0xdeadbeef;
 800e652:	4c0e      	ldr	r4, [pc, #56]	; (800e68c <rt_hw_stack_init+0x4c>)
 800e654:	f840 4022 	str.w	r4, [r0, r2, lsl #2]
    for (i = 0; i < sizeof(struct stack_frame) / sizeof(rt_uint32_t); i ++)
 800e658:	3201      	adds	r2, #1
 800e65a:	2a10      	cmp	r2, #16
 800e65c:	d9f9      	bls.n	800e652 <rt_hw_stack_init+0x12>
    }
    //（3）初始化异常发生时自动保存的寄存器
    stack_frame->exception_stack_frame.r0  = (unsigned long)parameter; /* r0 : argument */
 800e65e:	f845 1c20 	str.w	r1, [r5, #-32]
    stack_frame->exception_stack_frame.r1  = 0;                        /* r1 */
 800e662:	2200      	movs	r2, #0
 800e664:	f845 2c1c 	str.w	r2, [r5, #-28]
    stack_frame->exception_stack_frame.r2  = 0;                        /* r2 */
 800e668:	f845 2c18 	str.w	r2, [r5, #-24]
    stack_frame->exception_stack_frame.r3  = 0;                        /* r3 */
 800e66c:	f845 2c14 	str.w	r2, [r5, #-20]
    stack_frame->exception_stack_frame.r12 = 0;                        /* r12 */
 800e670:	f845 2c10 	str.w	r2, [r5, #-16]
    stack_frame->exception_stack_frame.lr  = (unsigned long)texit;     /* lr */
 800e674:	f845 3c0c 	str.w	r3, [r5, #-12]
    stack_frame->exception_stack_frame.pc  = (unsigned long)tentry;    /* entry point, pc */
 800e678:	f845 6c08 	str.w	r6, [r5, #-8]
    stack_frame->exception_stack_frame.psr = 0x01000000L;              /* PSR */
 800e67c:	f04f 7380 	mov.w	r3, #16777216	; 0x1000000
 800e680:	f845 3c04 	str.w	r3, [r5, #-4]

#if USE_FPU
    stack_frame->flag = 0;
 800e684:	f845 2c44 	str.w	r2, [r5, #-68]
#endif /* USE_FPU */

    //（4）返回当前的栈顶指针
    return stk;
}
 800e688:	bc70      	pop	{r4, r5, r6}
 800e68a:	4770      	bx	lr
 800e68c:	deadbeef 	.word	0xdeadbeef

0800e690 <rt_hw_hard_fault_exception>:
    rt_uint32_t exc_return;
    struct stack_frame stack_frame;
};

void rt_hw_hard_fault_exception(struct exception_info *exception_info)
{
 800e690:	b510      	push	{r4, lr}
 800e692:	4604      	mov	r4, r0
    extern long list_thread(void);
    struct exception_stack_frame *exception_stack = &exception_info->stack_frame.exception_stack_frame;
    struct stack_frame *context = &exception_info->stack_frame;

    if (rt_exception_hook != RT_NULL)
 800e694:	4b2f      	ldr	r3, [pc, #188]	; (800e754 <rt_hw_hard_fault_exception+0xc4>)
 800e696:	681b      	ldr	r3, [r3, #0]
 800e698:	b11b      	cbz	r3, 800e6a2 <rt_hw_hard_fault_exception+0x12>
 800e69a:	3028      	adds	r0, #40	; 0x28
    {
        rt_err_t result;

        result = rt_exception_hook(exception_stack);
 800e69c:	4798      	blx	r3
        if (result == RT_EOK) return;
 800e69e:	2800      	cmp	r0, #0
 800e6a0:	d056      	beq.n	800e750 <rt_hw_hard_fault_exception+0xc0>
    }

    rt_kprintf("psr: 0x%08x\n", context->exception_stack_frame.psr);
 800e6a2:	6c61      	ldr	r1, [r4, #68]	; 0x44
 800e6a4:	482c      	ldr	r0, [pc, #176]	; (800e758 <rt_hw_hard_fault_exception+0xc8>)
 800e6a6:	f002 fa73 	bl	8010b90 <rt_kprintf>

    rt_kprintf("r00: 0x%08x\n", context->exception_stack_frame.r0);
 800e6aa:	6aa1      	ldr	r1, [r4, #40]	; 0x28
 800e6ac:	482b      	ldr	r0, [pc, #172]	; (800e75c <rt_hw_hard_fault_exception+0xcc>)
 800e6ae:	f002 fa6f 	bl	8010b90 <rt_kprintf>
    rt_kprintf("r01: 0x%08x\n", context->exception_stack_frame.r1);
 800e6b2:	6ae1      	ldr	r1, [r4, #44]	; 0x2c
 800e6b4:	482a      	ldr	r0, [pc, #168]	; (800e760 <rt_hw_hard_fault_exception+0xd0>)
 800e6b6:	f002 fa6b 	bl	8010b90 <rt_kprintf>
    rt_kprintf("r02: 0x%08x\n", context->exception_stack_frame.r2);
 800e6ba:	6b21      	ldr	r1, [r4, #48]	; 0x30
 800e6bc:	4829      	ldr	r0, [pc, #164]	; (800e764 <rt_hw_hard_fault_exception+0xd4>)
 800e6be:	f002 fa67 	bl	8010b90 <rt_kprintf>
    rt_kprintf("r03: 0x%08x\n", context->exception_stack_frame.r3);
 800e6c2:	6b61      	ldr	r1, [r4, #52]	; 0x34
 800e6c4:	4828      	ldr	r0, [pc, #160]	; (800e768 <rt_hw_hard_fault_exception+0xd8>)
 800e6c6:	f002 fa63 	bl	8010b90 <rt_kprintf>
    rt_kprintf("r04: 0x%08x\n", context->r4);
 800e6ca:	68a1      	ldr	r1, [r4, #8]
 800e6cc:	4827      	ldr	r0, [pc, #156]	; (800e76c <rt_hw_hard_fault_exception+0xdc>)
 800e6ce:	f002 fa5f 	bl	8010b90 <rt_kprintf>
    rt_kprintf("r05: 0x%08x\n", context->r5);
 800e6d2:	68e1      	ldr	r1, [r4, #12]
 800e6d4:	4826      	ldr	r0, [pc, #152]	; (800e770 <rt_hw_hard_fault_exception+0xe0>)
 800e6d6:	f002 fa5b 	bl	8010b90 <rt_kprintf>
    rt_kprintf("r06: 0x%08x\n", context->r6);
 800e6da:	6921      	ldr	r1, [r4, #16]
 800e6dc:	4825      	ldr	r0, [pc, #148]	; (800e774 <rt_hw_hard_fault_exception+0xe4>)
 800e6de:	f002 fa57 	bl	8010b90 <rt_kprintf>
    rt_kprintf("r07: 0x%08x\n", context->r7);
 800e6e2:	6961      	ldr	r1, [r4, #20]
 800e6e4:	4824      	ldr	r0, [pc, #144]	; (800e778 <rt_hw_hard_fault_exception+0xe8>)
 800e6e6:	f002 fa53 	bl	8010b90 <rt_kprintf>
    rt_kprintf("r08: 0x%08x\n", context->r8);
 800e6ea:	69a1      	ldr	r1, [r4, #24]
 800e6ec:	4823      	ldr	r0, [pc, #140]	; (800e77c <rt_hw_hard_fault_exception+0xec>)
 800e6ee:	f002 fa4f 	bl	8010b90 <rt_kprintf>
    rt_kprintf("r09: 0x%08x\n", context->r9);
 800e6f2:	69e1      	ldr	r1, [r4, #28]
 800e6f4:	4822      	ldr	r0, [pc, #136]	; (800e780 <rt_hw_hard_fault_exception+0xf0>)
 800e6f6:	f002 fa4b 	bl	8010b90 <rt_kprintf>
    rt_kprintf("r10: 0x%08x\n", context->r10);
 800e6fa:	6a21      	ldr	r1, [r4, #32]
 800e6fc:	4821      	ldr	r0, [pc, #132]	; (800e784 <rt_hw_hard_fault_exception+0xf4>)
 800e6fe:	f002 fa47 	bl	8010b90 <rt_kprintf>
    rt_kprintf("r11: 0x%08x\n", context->r11);
 800e702:	6a61      	ldr	r1, [r4, #36]	; 0x24
 800e704:	4820      	ldr	r0, [pc, #128]	; (800e788 <rt_hw_hard_fault_exception+0xf8>)
 800e706:	f002 fa43 	bl	8010b90 <rt_kprintf>
    rt_kprintf("r12: 0x%08x\n", context->exception_stack_frame.r12);
 800e70a:	6ba1      	ldr	r1, [r4, #56]	; 0x38
 800e70c:	481f      	ldr	r0, [pc, #124]	; (800e78c <rt_hw_hard_fault_exception+0xfc>)
 800e70e:	f002 fa3f 	bl	8010b90 <rt_kprintf>
    rt_kprintf(" lr: 0x%08x\n", context->exception_stack_frame.lr);
 800e712:	6be1      	ldr	r1, [r4, #60]	; 0x3c
 800e714:	481e      	ldr	r0, [pc, #120]	; (800e790 <rt_hw_hard_fault_exception+0x100>)
 800e716:	f002 fa3b 	bl	8010b90 <rt_kprintf>
    rt_kprintf(" pc: 0x%08x\n", context->exception_stack_frame.pc);
 800e71a:	6c21      	ldr	r1, [r4, #64]	; 0x40
 800e71c:	481d      	ldr	r0, [pc, #116]	; (800e794 <rt_hw_hard_fault_exception+0x104>)
 800e71e:	f002 fa37 	bl	8010b90 <rt_kprintf>

    if (exception_info->exc_return & (1 << 2))
 800e722:	6823      	ldr	r3, [r4, #0]
 800e724:	f013 0f04 	tst.w	r3, #4
 800e728:	d00a      	beq.n	800e740 <rt_hw_hard_fault_exception+0xb0>
    {
        rt_kprintf("hard fault on thread: %s\r\n\r\n", rt_thread_self()->name);
 800e72a:	f000 fd2d 	bl	800f188 <rt_thread_self>
 800e72e:	4601      	mov	r1, r0
 800e730:	4819      	ldr	r0, [pc, #100]	; (800e798 <rt_hw_hard_fault_exception+0x108>)
 800e732:	f002 fa2d 	bl	8010b90 <rt_kprintf>
    else
    {
        rt_kprintf("hard fault on handler\r\n\r\n");
    }

    if ( (exception_info->exc_return & 0x10) == 0)
 800e736:	6823      	ldr	r3, [r4, #0]
 800e738:	f013 0f10 	tst.w	r3, #16
 800e73c:	d004      	beq.n	800e748 <rt_hw_hard_fault_exception+0xb8>
 800e73e:	e7fe      	b.n	800e73e <rt_hw_hard_fault_exception+0xae>
        rt_kprintf("hard fault on handler\r\n\r\n");
 800e740:	4816      	ldr	r0, [pc, #88]	; (800e79c <rt_hw_hard_fault_exception+0x10c>)
 800e742:	f002 fa25 	bl	8010b90 <rt_kprintf>
 800e746:	e7f6      	b.n	800e736 <rt_hw_hard_fault_exception+0xa6>
    {
        rt_kprintf("FPU active!\r\n");
 800e748:	4815      	ldr	r0, [pc, #84]	; (800e7a0 <rt_hw_hard_fault_exception+0x110>)
 800e74a:	f002 fa21 	bl	8010b90 <rt_kprintf>
 800e74e:	e7f6      	b.n	800e73e <rt_hw_hard_fault_exception+0xae>
#ifdef RT_USING_FINSH
    hard_fault_track();
#endif /* RT_USING_FINSH */

    while (1);
}
 800e750:	bd10      	pop	{r4, pc}
 800e752:	bf00      	nop
 800e754:	200040bc 	.word	0x200040bc
 800e758:	0801233c 	.word	0x0801233c
 800e75c:	0801234c 	.word	0x0801234c
 800e760:	0801235c 	.word	0x0801235c
 800e764:	0801236c 	.word	0x0801236c
 800e768:	0801237c 	.word	0x0801237c
 800e76c:	0801238c 	.word	0x0801238c
 800e770:	0801239c 	.word	0x0801239c
 800e774:	080123ac 	.word	0x080123ac
 800e778:	080123bc 	.word	0x080123bc
 800e77c:	080123cc 	.word	0x080123cc
 800e780:	080123dc 	.word	0x080123dc
 800e784:	080123ec 	.word	0x080123ec
 800e788:	080123fc 	.word	0x080123fc
 800e78c:	0801240c 	.word	0x0801240c
 800e790:	0801241c 	.word	0x0801241c
 800e794:	0801242c 	.word	0x0801242c
 800e798:	0801243c 	.word	0x0801243c
 800e79c:	0801245c 	.word	0x0801245c
 800e7a0:	08012478 	.word	0x08012478

0800e7a4 <printk_putc>:
//功能概要：通过串口打出一个字符
//参数说明：data:数据：通过串口发送的一字节数据
//函数返回：无
//======================================================================
static void printk_putc(int c, int *count, PRINTK_INFO *info)
{
 800e7a4:	b510      	push	{r4, lr}
 800e7a6:	460c      	mov	r4, r1
	switch (info->dest) {
 800e7a8:	6813      	ldr	r3, [r2, #0]
 800e7aa:	2b01      	cmp	r3, #1
 800e7ac:	d005      	beq.n	800e7ba <printk_putc+0x16>
 800e7ae:	2b02      	cmp	r3, #2
 800e7b0:	d007      	beq.n	800e7c2 <printk_putc+0x1e>
		++(info->loc);
		break;
	default:
		break;
	}
	*count += 1;
 800e7b2:	6823      	ldr	r3, [r4, #0]
 800e7b4:	3301      	adds	r3, #1
 800e7b6:	6023      	str	r3, [r4, #0]
}
 800e7b8:	bd10      	pop	{r4, pc}
		info->func((char) c);
 800e7ba:	6853      	ldr	r3, [r2, #4]
 800e7bc:	b2c0      	uxtb	r0, r0
 800e7be:	4798      	blx	r3
		break;
 800e7c0:	e7f7      	b.n	800e7b2 <printk_putc+0xe>
		*(info->loc) = (unsigned char) c;
 800e7c2:	6893      	ldr	r3, [r2, #8]
 800e7c4:	7018      	strb	r0, [r3, #0]
		++(info->loc);
 800e7c6:	6893      	ldr	r3, [r2, #8]
 800e7c8:	3301      	adds	r3, #1
 800e7ca:	6093      	str	r3, [r2, #8]
		break;
 800e7cc:	e7f1      	b.n	800e7b2 <printk_putc+0xe>

0800e7ce <printk_mknumstr>:
//       neg:有无符号:判断数据时有符号还是无符号整形
//       radix:格式选择:确定输出格式例如：十进制或十六进制...
//函数返回：无
//======================================================================
static int printk_mknumstr(char *numstr, void *nump, int neg, int radix)
{
 800e7ce:	b430      	push	{r4, r5}
	int nlen;
	char *nstrp;

	nlen = 0;
	nstrp = numstr;
	*nstrp++ = '\0';
 800e7d0:	1c44      	adds	r4, r0, #1
 800e7d2:	2500      	movs	r5, #0
 800e7d4:	7005      	strb	r5, [r0, #0]

	if (neg) {
 800e7d6:	b1b2      	cbz	r2, 800e806 <printk_mknumstr+0x38>
		a = *(int *) nump;
 800e7d8:	6809      	ldr	r1, [r1, #0]
		if (a == 0) {
 800e7da:	b109      	cbz	r1, 800e7e0 <printk_mknumstr+0x12>
	nlen = 0;
 800e7dc:	2000      	movs	r0, #0
 800e7de:	e009      	b.n	800e7f4 <printk_mknumstr+0x26>
			*nstrp = '0';
 800e7e0:	2330      	movs	r3, #48	; 0x30
 800e7e2:	7043      	strb	r3, [r0, #1]
			++nlen;
 800e7e4:	2001      	movs	r0, #1
			goto done;
 800e7e6:	e024      	b.n	800e832 <printk_mknumstr+0x64>
		}
		while (a != 0) {
			b = (int) a / (int) radix;
			c = (int) a - ((int) b * (int) radix);
			if (c < 0) {
				c = ~c + 1 + '0';
 800e7e8:	f1c1 0130 	rsb	r1, r1, #48	; 0x30
			} else {
				c = c + '0';
			}
			a = b;
			*nstrp++ = (char) c;
 800e7ec:	7021      	strb	r1, [r4, #0]
			++nlen;
 800e7ee:	3001      	adds	r0, #1
			*nstrp++ = (char) c;
 800e7f0:	3401      	adds	r4, #1
			a = b;
 800e7f2:	4611      	mov	r1, r2
		while (a != 0) {
 800e7f4:	b1e9      	cbz	r1, 800e832 <printk_mknumstr+0x64>
			b = (int) a / (int) radix;
 800e7f6:	fb91 f2f3 	sdiv	r2, r1, r3
 800e7fa:	fb03 1112 	mls	r1, r3, r2, r1
			if (c < 0) {
 800e7fe:	2900      	cmp	r1, #0
 800e800:	dbf2      	blt.n	800e7e8 <printk_mknumstr+0x1a>
				c = c + '0';
 800e802:	3130      	adds	r1, #48	; 0x30
 800e804:	e7f2      	b.n	800e7ec <printk_mknumstr+0x1e>
 800e806:	4615      	mov	r5, r2
		}
	} else {
		ua = *(unsigned int *) nump;
 800e808:	680a      	ldr	r2, [r1, #0]
		if (ua == 0) {
 800e80a:	b942      	cbnz	r2, 800e81e <printk_mknumstr+0x50>
			*nstrp = '0';
 800e80c:	2330      	movs	r3, #48	; 0x30
 800e80e:	7043      	strb	r3, [r0, #1]
			++nlen;
 800e810:	2001      	movs	r0, #1
			goto done;
 800e812:	e00e      	b.n	800e832 <printk_mknumstr+0x64>
			ub = (unsigned int) ua / (unsigned int) radix;
			uc = (unsigned int) ua - ((unsigned int) ub * (unsigned int) radix);
			if (uc < 10) {
				uc = uc + '0';
			} else {
				uc = uc - 10 + 'A';
 800e814:	3237      	adds	r2, #55	; 0x37
			}
			ua = ub;
			*nstrp++ = (char) uc;
 800e816:	7022      	strb	r2, [r4, #0]
			++nlen;
 800e818:	3501      	adds	r5, #1
			*nstrp++ = (char) uc;
 800e81a:	3401      	adds	r4, #1
			ua = ub;
 800e81c:	460a      	mov	r2, r1
		while (ua != 0) {
 800e81e:	b13a      	cbz	r2, 800e830 <printk_mknumstr+0x62>
			ub = (unsigned int) ua / (unsigned int) radix;
 800e820:	fbb2 f1f3 	udiv	r1, r2, r3
			uc = (unsigned int) ua - ((unsigned int) ub * (unsigned int) radix);
 800e824:	fb01 2213 	mls	r2, r1, r3, r2
			if (uc < 10) {
 800e828:	2a09      	cmp	r2, #9
 800e82a:	d8f3      	bhi.n	800e814 <printk_mknumstr+0x46>
				uc = uc + '0';
 800e82c:	3230      	adds	r2, #48	; 0x30
 800e82e:	e7f2      	b.n	800e816 <printk_mknumstr+0x48>
		}
	}
	done: return nlen;
 800e830:	4628      	mov	r0, r5
}
 800e832:	bc30      	pop	{r4, r5}
 800e834:	4770      	bx	lr

0800e836 <printk_pad_zero>:
/********************************************************************/
static void printk_pad_zero(int curlen, int field_width, int *count,
		PRINTK_INFO *info) {
 800e836:	b5f8      	push	{r3, r4, r5, r6, r7, lr}
 800e838:	4604      	mov	r4, r0
 800e83a:	460d      	mov	r5, r1
 800e83c:	4617      	mov	r7, r2
 800e83e:	461e      	mov	r6, r3
	int i;

	for (i = curlen; i < field_width; i++) {
 800e840:	e005      	b.n	800e84e <printk_pad_zero+0x18>
		printk_putc('0', count, info);
 800e842:	4632      	mov	r2, r6
 800e844:	4639      	mov	r1, r7
 800e846:	2030      	movs	r0, #48	; 0x30
 800e848:	f7ff ffac 	bl	800e7a4 <printk_putc>
	for (i = curlen; i < field_width; i++) {
 800e84c:	3401      	adds	r4, #1
 800e84e:	42ac      	cmp	r4, r5
 800e850:	dbf7      	blt.n	800e842 <printk_pad_zero+0xc>
	}
}
 800e852:	bdf8      	pop	{r3, r4, r5, r6, r7, pc}

0800e854 <printk_pad_space>:

/********************************************************************/
static void printk_pad_space(int curlen, int field_width, int *count,
		PRINTK_INFO *info) {
 800e854:	b5f8      	push	{r3, r4, r5, r6, r7, lr}
 800e856:	4604      	mov	r4, r0
 800e858:	460d      	mov	r5, r1
 800e85a:	4617      	mov	r7, r2
 800e85c:	461e      	mov	r6, r3
	int i;

	for (i = curlen; i < field_width; i++) {
 800e85e:	e005      	b.n	800e86c <printk_pad_space+0x18>
		printk_putc(' ', count, info);
 800e860:	4632      	mov	r2, r6
 800e862:	4639      	mov	r1, r7
 800e864:	2020      	movs	r0, #32
 800e866:	f7ff ff9d 	bl	800e7a4 <printk_putc>
	for (i = curlen; i < field_width; i++) {
 800e86a:	3401      	adds	r4, #1
 800e86c:	42ac      	cmp	r4, r5
 800e86e:	dbf7      	blt.n	800e860 <printk_pad_space+0xc>
	}
}
 800e870:	bdf8      	pop	{r3, r4, r5, r6, r7, pc}

0800e872 <out_char>:
void out_char(char data) {
 800e872:	b508      	push	{r3, lr}
	uart_send1(UART_printf, data);
 800e874:	4601      	mov	r1, r0
 800e876:	2003      	movs	r0, #3
 800e878:	f002 fcca 	bl	8011210 <uart_send1>
}
 800e87c:	bd08      	pop	{r3, pc}

0800e87e <out_char2>:
void out_char2(char data){
 800e87e:	b508      	push	{r3, lr}
	uart_send1(UART_2,data);
 800e880:	4601      	mov	r1, r0
 800e882:	2002      	movs	r0, #2
 800e884:	f002 fcc4 	bl	8011210 <uart_send1>
}
 800e888:	bd08      	pop	{r3, pc}
 800e88a:	0000      	movs	r0, r0
 800e88c:	0000      	movs	r0, r0
	...

0800e890 <printk_mkfloatstr>:
{
 800e890:	e92d 4ff0 	stmdb	sp!, {r4, r5, r6, r7, r8, r9, sl, fp, lr}
 800e894:	b099      	sub	sp, #100	; 0x64
 800e896:	4604      	mov	r4, r0
 800e898:	4689      	mov	r9, r1
 800e89a:	4692      	mov	sl, r2
	uint32_t p,i,j,k,a[5]={0},b[19]={0};
 800e89c:	2100      	movs	r1, #0
 800e89e:	9113      	str	r1, [sp, #76]	; 0x4c
 800e8a0:	9114      	str	r1, [sp, #80]	; 0x50
 800e8a2:	9115      	str	r1, [sp, #84]	; 0x54
 800e8a4:	9116      	str	r1, [sp, #88]	; 0x58
 800e8a6:	9117      	str	r1, [sp, #92]	; 0x5c
 800e8a8:	224c      	movs	r2, #76	; 0x4c
 800e8aa:	4668      	mov	r0, sp
 800e8ac:	f003 fcf1 	bl	8012292 <memset>
	p=(uint32_t)*f;//整数部分
 800e8b0:	e9d4 4500 	ldrd	r4, r5, [r4]
 800e8b4:	4620      	mov	r0, r4
 800e8b6:	4629      	mov	r1, r5
 800e8b8:	f7ff fcbc 	bl	800e234 <__aeabi_d2uiz>
 800e8bc:	4680      	mov	r8, r0
	tempf=(*f-p);
 800e8be:	f7ff f9a5 	bl	800dc0c <__aeabi_ui2d>
 800e8c2:	4602      	mov	r2, r0
 800e8c4:	460b      	mov	r3, r1
 800e8c6:	4620      	mov	r0, r4
 800e8c8:	4629      	mov	r1, r5
 800e8ca:	f7ff f861 	bl	800d990 <__aeabi_dsub>
 800e8ce:	4604      	mov	r4, r0
 800e8d0:	460d      	mov	r5, r1
	if(precision_width==0)
 800e8d2:	f1ba 0f00 	cmp.w	sl, #0
 800e8d6:	d118      	bne.n	800e90a <printk_mkfloatstr+0x7a>
	   q=(*f-p)*100000000000000000;    //小数部分
 800e8d8:	a35c      	add	r3, pc, #368	; (adr r3, 800ea4c <printk_mkfloatstr+0x1bc>)
 800e8da:	e9d3 2300 	ldrd	r2, r3, [r3]
 800e8de:	f7ff fa0f 	bl	800dd00 <__aeabi_dmul>
 800e8e2:	f7ff fcdf 	bl	800e2a4 <__aeabi_d2ulz>
 800e8e6:	4606      	mov	r6, r0
 800e8e8:	460f      	mov	r7, r1
	k=0;
 800e8ea:	f04f 0b00 	mov.w	fp, #0
	while(m<1&&m!=0)    //【20201119】-2/3   原为while(m<1)
 800e8ee:	e018      	b.n	800e922 <printk_mkfloatstr+0x92>
		tempf*=10;
 800e8f0:	2200      	movs	r2, #0
 800e8f2:	4b53      	ldr	r3, [pc, #332]	; (800ea40 <printk_mkfloatstr+0x1b0>)
 800e8f4:	f7ff fa04 	bl	800dd00 <__aeabi_dmul>
		while(precision_width--)    
 800e8f8:	4633      	mov	r3, r6
 800e8fa:	1e5e      	subs	r6, r3, #1
 800e8fc:	2b00      	cmp	r3, #0
 800e8fe:	d1f7      	bne.n	800e8f0 <printk_mkfloatstr+0x60>
		q=tempf;
 800e900:	f7ff fcd0 	bl	800e2a4 <__aeabi_d2ulz>
 800e904:	4606      	mov	r6, r0
 800e906:	460f      	mov	r7, r1
 800e908:	e7ef      	b.n	800e8ea <printk_mkfloatstr+0x5a>
 800e90a:	4653      	mov	r3, sl
 800e90c:	e7f5      	b.n	800e8fa <printk_mkfloatstr+0x6a>
		m=m*10;
 800e90e:	2200      	movs	r2, #0
 800e910:	4b4b      	ldr	r3, [pc, #300]	; (800ea40 <printk_mkfloatstr+0x1b0>)
 800e912:	4620      	mov	r0, r4
 800e914:	4629      	mov	r1, r5
 800e916:	f7ff f9f3 	bl	800dd00 <__aeabi_dmul>
 800e91a:	4604      	mov	r4, r0
 800e91c:	460d      	mov	r5, r1
		k++;
 800e91e:	f10b 0b01 	add.w	fp, fp, #1
	while(m<1&&m!=0)    //【20201119】-2/3   原为while(m<1)
 800e922:	2200      	movs	r2, #0
 800e924:	4b47      	ldr	r3, [pc, #284]	; (800ea44 <printk_mkfloatstr+0x1b4>)
 800e926:	4620      	mov	r0, r4
 800e928:	4629      	mov	r1, r5
 800e92a:	f7ff fc5b 	bl	800e1e4 <__aeabi_dcmplt>
 800e92e:	b138      	cbz	r0, 800e940 <printk_mkfloatstr+0xb0>
 800e930:	2200      	movs	r2, #0
 800e932:	2300      	movs	r3, #0
 800e934:	4620      	mov	r0, r4
 800e936:	4629      	mov	r1, r5
 800e938:	f7ff fc4a 	bl	800e1d0 <__aeabi_dcmpeq>
 800e93c:	2800      	cmp	r0, #0
 800e93e:	d0e6      	beq.n	800e90e <printk_mkfloatstr+0x7e>
	k--;          //记录小数点后到第一位不为零的小数之前 有多少个0.
 800e940:	f10b 35ff 	add.w	r5, fp, #4294967295
	if(0==p)//整数部分为0
 800e944:	f1b8 0f00 	cmp.w	r8, #0
 800e948:	d123      	bne.n	800e992 <printk_mkfloatstr+0x102>
		c[i++]='0';
 800e94a:	2330      	movs	r3, #48	; 0x30
 800e94c:	f889 3000 	strb.w	r3, [r9]
 800e950:	f04f 0801 	mov.w	r8, #1
	c[i++]='.';   //小数点
 800e954:	f108 0b01 	add.w	fp, r8, #1
 800e958:	232e      	movs	r3, #46	; 0x2e
 800e95a:	f809 3008 	strb.w	r3, [r9, r8]
	if(0==q)     //小数部分为0
 800e95e:	ea56 0307 	orrs.w	r3, r6, r7
 800e962:	d02c      	beq.n	800e9be <printk_mkfloatstr+0x12e>
		j=0;
 800e964:	2400      	movs	r4, #0
 800e966:	e04c      	b.n	800ea02 <printk_mkfloatstr+0x172>
			a[j++]=p%10;
 800e968:	4b37      	ldr	r3, [pc, #220]	; (800ea48 <printk_mkfloatstr+0x1b8>)
 800e96a:	fba3 1308 	umull	r1, r3, r3, r8
 800e96e:	08db      	lsrs	r3, r3, #3
 800e970:	4618      	mov	r0, r3
 800e972:	eb03 0383 	add.w	r3, r3, r3, lsl #2
 800e976:	0059      	lsls	r1, r3, #1
 800e978:	eba8 0301 	sub.w	r3, r8, r1
 800e97c:	a918      	add	r1, sp, #96	; 0x60
 800e97e:	eb01 0182 	add.w	r1, r1, r2, lsl #2
 800e982:	f841 3c14 	str.w	r3, [r1, #-20]
			p/=10;
 800e986:	4680      	mov	r8, r0
			a[j++]=p%10;
 800e988:	3201      	adds	r2, #1
		while(p!=0)//倒序的数字
 800e98a:	f1b8 0f00 	cmp.w	r8, #0
 800e98e:	d1eb      	bne.n	800e968 <printk_mkfloatstr+0xd8>
 800e990:	e00c      	b.n	800e9ac <printk_mkfloatstr+0x11c>
		j=0;
 800e992:	2200      	movs	r2, #0
 800e994:	e7f9      	b.n	800e98a <printk_mkfloatstr+0xfa>
			c[i++]=a[j-1]+'0';
 800e996:	3a01      	subs	r2, #1
 800e998:	ab18      	add	r3, sp, #96	; 0x60
 800e99a:	eb03 0382 	add.w	r3, r3, r2, lsl #2
 800e99e:	f853 3c14 	ldr.w	r3, [r3, #-20]
 800e9a2:	3330      	adds	r3, #48	; 0x30
 800e9a4:	f809 3008 	strb.w	r3, [r9, r8]
 800e9a8:	f108 0801 	add.w	r8, r8, #1
		while(j>0)//将倒序数字转为正序，并转换为对应的字符形式
 800e9ac:	2a00      	cmp	r2, #0
 800e9ae:	d1f2      	bne.n	800e996 <printk_mkfloatstr+0x106>
 800e9b0:	e7d0      	b.n	800e954 <printk_mkfloatstr+0xc4>
		while(zeroNum--) c[i++]='0';     //【20201119】-3/3   原为 c[i++]='0';
 800e9b2:	2230      	movs	r2, #48	; 0x30
 800e9b4:	f809 200b 	strb.w	r2, [r9, fp]
 800e9b8:	469a      	mov	sl, r3
 800e9ba:	f10b 0b01 	add.w	fp, fp, #1
 800e9be:	f10a 33ff 	add.w	r3, sl, #4294967295
 800e9c2:	f1ba 0f00 	cmp.w	sl, #0
 800e9c6:	d1f4      	bne.n	800e9b2 <printk_mkfloatstr+0x122>
	c[i]='\0';
 800e9c8:	2300      	movs	r3, #0
 800e9ca:	f809 300b 	strb.w	r3, [r9, fp]
}
 800e9ce:	4658      	mov	r0, fp
 800e9d0:	b019      	add	sp, #100	; 0x64
 800e9d2:	e8bd 8ff0 	ldmia.w	sp!, {r4, r5, r6, r7, r8, r9, sl, fp, pc}
			b[j++]=q%10;
 800e9d6:	220a      	movs	r2, #10
 800e9d8:	2300      	movs	r3, #0
 800e9da:	4630      	mov	r0, r6
 800e9dc:	4639      	mov	r1, r7
 800e9de:	f7ff fc49 	bl	800e274 <__aeabi_uldivmod>
 800e9e2:	f104 0801 	add.w	r8, r4, #1
 800e9e6:	ab18      	add	r3, sp, #96	; 0x60
 800e9e8:	eb03 0484 	add.w	r4, r3, r4, lsl #2
 800e9ec:	f844 2c60 	str.w	r2, [r4, #-96]
			q/=10;
 800e9f0:	220a      	movs	r2, #10
 800e9f2:	2300      	movs	r3, #0
 800e9f4:	4630      	mov	r0, r6
 800e9f6:	4639      	mov	r1, r7
 800e9f8:	f7ff fc3c 	bl	800e274 <__aeabi_uldivmod>
 800e9fc:	4606      	mov	r6, r0
 800e9fe:	460f      	mov	r7, r1
			b[j++]=q%10;
 800ea00:	4644      	mov	r4, r8
		while(q!=0)//倒序的数字
 800ea02:	ea56 0307 	orrs.w	r3, r6, r7
 800ea06:	d1e6      	bne.n	800e9d6 <printk_mkfloatstr+0x146>
 800ea08:	e007      	b.n	800ea1a <printk_mkfloatstr+0x18a>
			b[j++]=0;
 800ea0a:	ab18      	add	r3, sp, #96	; 0x60
 800ea0c:	eb03 0384 	add.w	r3, r3, r4, lsl #2
 800ea10:	2200      	movs	r2, #0
 800ea12:	f843 2c60 	str.w	r2, [r3, #-96]
			k--;
 800ea16:	3d01      	subs	r5, #1
			b[j++]=0;
 800ea18:	3401      	adds	r4, #1
		while(k!=0)
 800ea1a:	2d00      	cmp	r5, #0
 800ea1c:	d1f5      	bne.n	800ea0a <printk_mkfloatstr+0x17a>
 800ea1e:	e00a      	b.n	800ea36 <printk_mkfloatstr+0x1a6>
			c[i++]=b[j-1]+'0';
 800ea20:	3c01      	subs	r4, #1
 800ea22:	ab18      	add	r3, sp, #96	; 0x60
 800ea24:	eb03 0384 	add.w	r3, r3, r4, lsl #2
 800ea28:	f853 3c60 	ldr.w	r3, [r3, #-96]
 800ea2c:	3330      	adds	r3, #48	; 0x30
 800ea2e:	f809 300b 	strb.w	r3, [r9, fp]
 800ea32:	f10b 0b01 	add.w	fp, fp, #1
		while(j>0)//将倒序数字转为正序，并转换为对应的字符形式
 800ea36:	2c00      	cmp	r4, #0
 800ea38:	d1f2      	bne.n	800ea20 <printk_mkfloatstr+0x190>
 800ea3a:	e7c5      	b.n	800e9c8 <printk_mkfloatstr+0x138>
 800ea3c:	f3af 8000 	nop.w
 800ea40:	40240000 	.word	0x40240000
 800ea44:	3ff00000 	.word	0x3ff00000
 800ea48:	cccccccd 	.word	0xcccccccd
 800ea4c:	85d8a000 	.word	0x85d8a000
 800ea50:	43763457 	.word	0x43763457

0800ea54 <printk>:
//       fmt:输出格式信息
//       ap:va_list指针指向格式信息输出
//函数返回：无
//======================================================================
int printk(PRINTK_INFO *info, const char *fmt, char * ap)
{
 800ea54:	e92d 4ff0 	stmdb	sp!, {r4, r5, r6, r7, r8, r9, sl, fp, lr}
 800ea58:	b097      	sub	sp, #92	; 0x5c
 800ea5a:	9001      	str	r0, [sp, #4]
 800ea5c:	460c      	mov	r4, r1
 800ea5e:	4691      	mov	r9, r2

	}un1;*/
	char *p;
	int c;
	//char temp1;
	char vstr[33]={'0'};
 800ea60:	2221      	movs	r2, #33	; 0x21
 800ea62:	2100      	movs	r1, #0
 800ea64:	a80d      	add	r0, sp, #52	; 0x34
 800ea66:	f003 fc14 	bl	8012292 <memset>
 800ea6a:	2330      	movs	r3, #48	; 0x30
 800ea6c:	f88d 3034 	strb.w	r3, [sp, #52]	; 0x34
	int *ivalp;
	char *sval;
	int cval;
	unsigned int uval;

	count = 0;
 800ea70:	2300      	movs	r3, #0
 800ea72:	930c      	str	r3, [sp, #48]	; 0x30
	length_modifier=0;
	precision_used=TRUE;
 800ea74:	2201      	movs	r2, #1
 800ea76:	9202      	str	r2, [sp, #8]
	length_modifier=0;
 800ea78:	469b      	mov	fp, r3
	//从格式字符串第一个字符开始格式化输出数据
	for (p = (char *) fmt; (c = *p) != 0; p++)
 800ea7a:	e00b      	b.n	800ea94 <printk+0x40>
			if (c != '\n') {
				printk_putc(c, &count, info);
			}
			//输出换行符
			else {
				printk_putc(0x0D /* CR */, &count, info);
 800ea7c:	9d01      	ldr	r5, [sp, #4]
 800ea7e:	462a      	mov	r2, r5
 800ea80:	a90c      	add	r1, sp, #48	; 0x30
 800ea82:	200d      	movs	r0, #13
 800ea84:	f7ff fe8e 	bl	800e7a4 <printk_putc>
				printk_putc(0x0A /* LF */, &count, info);
 800ea88:	462a      	mov	r2, r5
 800ea8a:	a90c      	add	r1, sp, #48	; 0x30
 800ea8c:	200a      	movs	r0, #10
 800ea8e:	f7ff fe89 	bl	800e7a4 <printk_putc>
	for (p = (char *) fmt; (c = *p) != 0; p++)
 800ea92:	3401      	adds	r4, #1
 800ea94:	7820      	ldrb	r0, [r4, #0]
 800ea96:	2800      	cmp	r0, #0
 800ea98:	f000 82b2 	beq.w	800f000 <printk+0x5ac>
		if (c != '%')
 800ea9c:	2825      	cmp	r0, #37	; 0x25
 800ea9e:	d041      	beq.n	800eb24 <printk+0xd0>
			if (c != '\n') {
 800eaa0:	280a      	cmp	r0, #10
 800eaa2:	d0eb      	beq.n	800ea7c <printk+0x28>
				printk_putc(c, &count, info);
 800eaa4:	9a01      	ldr	r2, [sp, #4]
 800eaa6:	a90c      	add	r1, sp, #48	; 0x30
 800eaa8:	f7ff fe7c 	bl	800e7a4 <printk_putc>
 800eaac:	e7f1      	b.n	800ea92 <printk+0x3e>
		flags_used = 0;
		done = FALSE;
		while (!done) {
			switch (/* c = */*++p) {
			case '-':
				flags_used |= FLAGS_MINUS;
 800eaae:	f046 0601 	orr.w	r6, r6, #1
{
 800eab2:	4614      	mov	r4, r2
		while (!done) {
 800eab4:	2900      	cmp	r1, #0
 800eab6:	d13a      	bne.n	800eb2e <printk+0xda>
			switch (/* c = */*++p) {
 800eab8:	1c62      	adds	r2, r4, #1
 800eaba:	7863      	ldrb	r3, [r4, #1]
 800eabc:	3b20      	subs	r3, #32
 800eabe:	2b10      	cmp	r3, #16
 800eac0:	d833      	bhi.n	800eb2a <printk+0xd6>
 800eac2:	a001      	add	r0, pc, #4	; (adr r0, 800eac8 <printk+0x74>)
 800eac4:	f850 f023 	ldr.w	pc, [r0, r3, lsl #2]
 800eac8:	0800eb13 	.word	0x0800eb13
 800eacc:	0800eb2b 	.word	0x0800eb2b
 800ead0:	0800eb2b 	.word	0x0800eb2b
 800ead4:	0800eb1f 	.word	0x0800eb1f
 800ead8:	0800eb2b 	.word	0x0800eb2b
 800eadc:	0800eb2b 	.word	0x0800eb2b
 800eae0:	0800eb2b 	.word	0x0800eb2b
 800eae4:	0800eb2b 	.word	0x0800eb2b
 800eae8:	0800eb2b 	.word	0x0800eb2b
 800eaec:	0800eb2b 	.word	0x0800eb2b
 800eaf0:	0800eb2b 	.word	0x0800eb2b
 800eaf4:	0800eb0d 	.word	0x0800eb0d
 800eaf8:	0800eb2b 	.word	0x0800eb2b
 800eafc:	0800eaaf 	.word	0x0800eaaf
 800eb00:	0800eb2b 	.word	0x0800eb2b
 800eb04:	0800eb2b 	.word	0x0800eb2b
 800eb08:	0800eb19 	.word	0x0800eb19
				break;
			case '+':
				flags_used |= FLAGS_PLUS;
 800eb0c:	f046 0602 	orr.w	r6, r6, #2
				break;
 800eb10:	e7cf      	b.n	800eab2 <printk+0x5e>
			case ' ':
				flags_used |= FLAGS_SPACE;
 800eb12:	f046 0604 	orr.w	r6, r6, #4
				break;
 800eb16:	e7cc      	b.n	800eab2 <printk+0x5e>
			case '0':
				flags_used |= FLAGS_ZERO;
 800eb18:	f046 0608 	orr.w	r6, r6, #8
				break;
 800eb1c:	e7c9      	b.n	800eab2 <printk+0x5e>
			case '#':
				flags_used |= FLAGS_POUND;
 800eb1e:	f046 0610 	orr.w	r6, r6, #16
				break;
 800eb22:	e7c6      	b.n	800eab2 <printk+0x5e>
		flags_used = 0;
 800eb24:	2600      	movs	r6, #0
		done = FALSE;
 800eb26:	4631      	mov	r1, r6
 800eb28:	e7c4      	b.n	800eab4 <printk+0x60>
			default:
				/* we've gone one char too far */
				--p;
				done = TRUE;
 800eb2a:	2101      	movs	r1, #1
 800eb2c:	e7c2      	b.n	800eab4 <printk+0x60>
			}
		}


		//检查%后再下一个字符 确定输出长度
		field_width = 0;
 800eb2e:	2500      	movs	r5, #0
		done = FALSE;
 800eb30:	462f      	mov	r7, r5
 800eb32:	e000      	b.n	800eb36 <printk+0xe2>
				field_width = (field_width * 10) + (c - '0');
				break;
			default:
				/* we've gone one char too far */
				--p;
				done = TRUE;
 800eb34:	460f      	mov	r7, r1
		while (!done) {
 800eb36:	b967      	cbnz	r7, 800eb52 <printk+0xfe>
			switch (c = *++p) {
 800eb38:	1c60      	adds	r0, r4, #1
 800eb3a:	7863      	ldrb	r3, [r4, #1]
 800eb3c:	f1a3 0230 	sub.w	r2, r3, #48	; 0x30
 800eb40:	2a09      	cmp	r2, #9
 800eb42:	d8f7      	bhi.n	800eb34 <printk+0xe0>
				field_width = (field_width * 10) + (c - '0');
 800eb44:	eb05 0585 	add.w	r5, r5, r5, lsl #2
 800eb48:	006a      	lsls	r2, r5, #1
 800eb4a:	3b30      	subs	r3, #48	; 0x30
 800eb4c:	18d5      	adds	r5, r2, r3
			switch (c = *++p) {
 800eb4e:	4604      	mov	r4, r0
				break;
 800eb50:	e7f1      	b.n	800eb36 <printk+0xe2>
				break;
			}
		}
		//此时字符为%看是否有.输入
		if (/* (c = *++p) */*++p == '.') {
 800eb52:	1c62      	adds	r2, r4, #1
 800eb54:	7863      	ldrb	r3, [r4, #1]
 800eb56:	2b2e      	cmp	r3, #46	; 0x2e
 800eb58:	d036      	beq.n	800ebc8 <printk+0x174>
		} else {
			/* we've gone one char too far */
			--p;
#if 1
			precision_used = FALSE;
			precision_width = 0;
 800eb5a:	f04f 0800 	mov.w	r8, #0
			precision_used = FALSE;
 800eb5e:	f8cd 8008 	str.w	r8, [sp, #8]
#endif
		}
		//判断 输出的是否有lf、LF等
		switch (/* c = */*++p) {
 800eb62:	1c63      	adds	r3, r4, #1
 800eb64:	7862      	ldrb	r2, [r4, #1]
 800eb66:	2a68      	cmp	r2, #104	; 0x68
 800eb68:	d004      	beq.n	800eb74 <printk+0x120>
 800eb6a:	2a6c      	cmp	r2, #108	; 0x6c
 800eb6c:	d042      	beq.n	800ebf4 <printk+0x1a0>
 800eb6e:	2a4c      	cmp	r2, #76	; 0x4c
 800eb70:	d043      	beq.n	800ebfa <printk+0x1a6>
		case 'L':
			 length_modifier |= LENMOD_L;
			break;
		default:
			/* we've gone one char too far */
			--p;
 800eb72:	4623      	mov	r3, r4
			break;
		}

		//p为格式字符串的首地址
		switch (c = *++p) {
 800eb74:	1c5c      	adds	r4, r3, #1
 800eb76:	7858      	ldrb	r0, [r3, #1]
 800eb78:	f1a0 0358 	sub.w	r3, r0, #88	; 0x58
 800eb7c:	2b20      	cmp	r3, #32
 800eb7e:	f200 8238 	bhi.w	800eff2 <printk+0x59e>
 800eb82:	e8df f013 	tbh	[pc, r3, lsl #1]
 800eb86:	011f      	.short	0x011f
 800eb88:	02360236 	.word	0x02360236
 800eb8c:	02360236 	.word	0x02360236
 800eb90:	02360236 	.word	0x02360236
 800eb94:	02360236 	.word	0x02360236
 800eb98:	01a20236 	.word	0x01a20236
 800eb9c:	003d01ef 	.word	0x003d01ef
 800eba0:	009a0236 	.word	0x009a0236
 800eba4:	02360236 	.word	0x02360236
 800eba8:	0236003d 	.word	0x0236003d
 800ebac:	02360236 	.word	0x02360236
 800ebb0:	022f0236 	.word	0x022f0236
 800ebb4:	01b10184 	.word	0x01b10184
 800ebb8:	02360236 	.word	0x02360236
 800ebbc:	023601f9 	.word	0x023601f9
 800ebc0:	023601c0 	.word	0x023601c0
 800ebc4:	011f0236 	.word	0x011f0236
			precision_width = 0;
 800ebc8:	f04f 0800 	mov.w	r8, #0
			done = FALSE;
 800ebcc:	4640      	mov	r0, r8
 800ebce:	e000      	b.n	800ebd2 <printk+0x17e>
					done = TRUE;
 800ebd0:	4638      	mov	r0, r7
			while (!done) {
 800ebd2:	b968      	cbnz	r0, 800ebf0 <printk+0x19c>
				switch ( c = *++p) {
 800ebd4:	1c54      	adds	r4, r2, #1
 800ebd6:	7853      	ldrb	r3, [r2, #1]
 800ebd8:	f1a3 0130 	sub.w	r1, r3, #48	; 0x30
 800ebdc:	2909      	cmp	r1, #9
 800ebde:	d8f7      	bhi.n	800ebd0 <printk+0x17c>
				precision_width = (precision_width * 10) +	(c - '0');
 800ebe0:	eb08 0888 	add.w	r8, r8, r8, lsl #2
 800ebe4:	ea4f 0248 	mov.w	r2, r8, lsl #1
 800ebe8:	eb02 0801 	add.w	r8, r2, r1
				switch ( c = *++p) {
 800ebec:	4622      	mov	r2, r4
					break;
 800ebee:	e7f0      	b.n	800ebd2 <printk+0x17e>
 800ebf0:	4614      	mov	r4, r2
 800ebf2:	e7b6      	b.n	800eb62 <printk+0x10e>
			 length_modifier |= LENMOD_l;
 800ebf4:	f04b 0b01 	orr.w	fp, fp, #1
			break;
 800ebf8:	e7bc      	b.n	800eb74 <printk+0x120>
			 length_modifier |= LENMOD_L;
 800ebfa:	f04b 0b02 	orr.w	fp, fp, #2
			break;
 800ebfe:	e7b9      	b.n	800eb74 <printk+0x120>
		case 'd':
		case 'i':
			 //此时ap为指向可变参数列表的第一个参数
			ival = (int) va_arg(ap, int);  //返回当前参数，并将ap指向下一个参数
 800ec00:	f109 0704 	add.w	r7, r9, #4
 800ec04:	f8d9 3000 	ldr.w	r3, [r9]
 800ec08:	a916      	add	r1, sp, #88	; 0x58
 800ec0a:	f841 3d2c 	str.w	r3, [r1, #-44]!
			vlen = printk_mknumstr(vstr, &ival, TRUE, 10);//将整型转换成字符型保存在vstr中，返回字符数vlen
 800ec0e:	230a      	movs	r3, #10
 800ec10:	2201      	movs	r2, #1
 800ec12:	a80d      	add	r0, sp, #52	; 0x34
 800ec14:	f7ff fddb 	bl	800e7ce <printk_mknumstr>
 800ec18:	4682      	mov	sl, r0
			vstrp = &vstr[vlen];  //指向转换后的最后一个字符
 800ec1a:	ab0d      	add	r3, sp, #52	; 0x34
 800ec1c:	eb03 0800 	add.w	r8, r3, r0

			//若参数小于0，添加'-'号，并将字符长度加1
			if (ival < 0) {
 800ec20:	9b0b      	ldr	r3, [sp, #44]	; 0x2c
 800ec22:	2b00      	cmp	r3, #0
 800ec24:	db07      	blt.n	800ec36 <printk+0x1e2>
				schar = '-';
				++vlen;
			}
			//若参数不小于0，添加‘+’号或者‘ ’或者为0，并将字符长度加1
			else {
				if (IS_FLAG_PLUS(flags_used)) {
 800ec26:	f016 0f02 	tst.w	r6, #2
 800ec2a:	d017      	beq.n	800ec5c <printk+0x208>
					schar = '+';
					++vlen;
 800ec2c:	f100 0a01 	add.w	sl, r0, #1
					schar = '+';
 800ec30:	f04f 092b 	mov.w	r9, #43	; 0x2b
 800ec34:	e003      	b.n	800ec3e <printk+0x1ea>
				++vlen;
 800ec36:	f100 0a01 	add.w	sl, r0, #1
				schar = '-';
 800ec3a:	f04f 092d 	mov.w	r9, #45	; 0x2d
			dschar = FALSE;

			/*
			 * do the ZERO pad.
			 */
			if (IS_FLAG_ZERO(flags_used)) {
 800ec3e:	f016 0f08 	tst.w	r6, #8
 800ec42:	d019      	beq.n	800ec78 <printk+0x224>
				if (schar)
 800ec44:	f1b9 0f00 	cmp.w	r9, #0
 800ec48:	d110      	bne.n	800ec6c <printk+0x218>
					printk_putc(schar, &count, info);  //输出符号
				dschar = TRUE;
				printk_pad_zero(vlen, field_width, &count, info);
 800ec4a:	9b01      	ldr	r3, [sp, #4]
 800ec4c:	aa0c      	add	r2, sp, #48	; 0x30
 800ec4e:	4629      	mov	r1, r5
 800ec50:	4650      	mov	r0, sl
 800ec52:	f7ff fdf0 	bl	800e836 <printk_pad_zero>
				vlen = field_width;
 800ec56:	46aa      	mov	sl, r5
			ival = (int) va_arg(ap, int);  //返回当前参数，并将ap指向下一个参数
 800ec58:	46b9      	mov	r9, r7
 800ec5a:	e171      	b.n	800ef40 <printk+0x4ec>
					if (IS_FLAG_SPACE(flags_used)) {
 800ec5c:	f016 0904 	ands.w	r9, r6, #4
 800ec60:	d0ed      	beq.n	800ec3e <printk+0x1ea>
						++vlen;
 800ec62:	f100 0a01 	add.w	sl, r0, #1
						schar = ' ';
 800ec66:	f04f 0920 	mov.w	r9, #32
 800ec6a:	e7e8      	b.n	800ec3e <printk+0x1ea>
					printk_putc(schar, &count, info);  //输出符号
 800ec6c:	9a01      	ldr	r2, [sp, #4]
 800ec6e:	a90c      	add	r1, sp, #48	; 0x30
 800ec70:	4648      	mov	r0, r9
 800ec72:	f7ff fd97 	bl	800e7a4 <printk_putc>
 800ec76:	e7e8      	b.n	800ec4a <printk+0x1f6>
			} else {
				if (!IS_FLAG_MINUS(flags_used)) {
 800ec78:	f016 0f01 	tst.w	r6, #1
 800ec7c:	d004      	beq.n	800ec88 <printk+0x234>
				}
			}

			/* the string was built in reverse order, now display in */
			/* correct order */
			if (!dschar && schar) {
 800ec7e:	f1b9 0f00 	cmp.w	r9, #0
 800ec82:	d113      	bne.n	800ecac <printk+0x258>
			ival = (int) va_arg(ap, int);  //返回当前参数，并将ap指向下一个参数
 800ec84:	46b9      	mov	r9, r7
 800ec86:	e15b      	b.n	800ef40 <printk+0x4ec>
					printk_pad_space(vlen, field_width, &count, info);  //输出空格
 800ec88:	9b01      	ldr	r3, [sp, #4]
 800ec8a:	aa0c      	add	r2, sp, #48	; 0x30
 800ec8c:	4629      	mov	r1, r5
 800ec8e:	4650      	mov	r0, sl
 800ec90:	f7ff fde0 	bl	800e854 <printk_pad_space>
					if (schar)
 800ec94:	f1b9 0f00 	cmp.w	r9, #0
 800ec98:	d101      	bne.n	800ec9e <printk+0x24a>
			ival = (int) va_arg(ap, int);  //返回当前参数，并将ap指向下一个参数
 800ec9a:	46b9      	mov	r9, r7
 800ec9c:	e150      	b.n	800ef40 <printk+0x4ec>
						printk_putc(schar, &count, info);
 800ec9e:	9a01      	ldr	r2, [sp, #4]
 800eca0:	a90c      	add	r1, sp, #48	; 0x30
 800eca2:	4648      	mov	r0, r9
 800eca4:	f7ff fd7e 	bl	800e7a4 <printk_putc>
			ival = (int) va_arg(ap, int);  //返回当前参数，并将ap指向下一个参数
 800eca8:	46b9      	mov	r9, r7
 800ecaa:	e149      	b.n	800ef40 <printk+0x4ec>
				printk_putc(schar, &count, info);
 800ecac:	9a01      	ldr	r2, [sp, #4]
 800ecae:	a90c      	add	r1, sp, #48	; 0x30
 800ecb0:	4648      	mov	r0, r9
 800ecb2:	f7ff fd77 	bl	800e7a4 <printk_putc>
			ival = (int) va_arg(ap, int);  //返回当前参数，并将ap指向下一个参数
 800ecb6:	46b9      	mov	r9, r7
 800ecb8:	e142      	b.n	800ef40 <printk+0x4ec>
			//实际传入变参数 函数后 浮点数变为:0x6000000040091EB8 实际是将其转化为double型数据
			//但是顺序反了，我们要做的是将后四字节提前，然后把0x60移到紧接着前四个字节后的位置。
			
			//【20200816】  XSX，解决浮点数不优化问题
			ap=ap+4;
			fval= (double)va_arg(ap,double);
 800ecba:	f109 070c 	add.w	r7, r9, #12
 800ecbe:	e9d9 9a01 	ldrd	r9, sl, [r9, #4]
 800ecc2:	e9cd 9a08 	strd	r9, sl, [sp, #32]
			
			//【20200816】  XSX，解决负数的浮点数输出问题
			//若参数小于0，添加'-'号，并将字符长度加1
			if (fval < 0) {
 800ecc6:	2200      	movs	r2, #0
 800ecc8:	2300      	movs	r3, #0
 800ecca:	4648      	mov	r0, r9
 800eccc:	4651      	mov	r1, sl
 800ecce:	f7ff fa89 	bl	800e1e4 <__aeabi_dcmplt>
 800ecd2:	b940      	cbnz	r0, 800ece6 <printk+0x292>
				fval = -fval;				//负数取它的正数
				++vlen;
			}
			//若参数不小于0，添加‘+’号或者‘ ’或者为0，并将字符长度加1
			else {
				if (IS_FLAG_PLUS(flags_used)) {
 800ecd4:	f016 0f02 	tst.w	r6, #2
 800ecd8:	d12b      	bne.n	800ed32 <printk+0x2de>
					schar = '+';
					++vlen;
				} else {
					if (IS_FLAG_SPACE(flags_used)) {
 800ecda:	f016 0904 	ands.w	r9, r6, #4
 800ecde:	d00d      	beq.n	800ecfc <printk+0x2a8>
						schar = ' ';
 800ece0:	f04f 0920 	mov.w	r9, #32
 800ece4:	e00a      	b.n	800ecfc <printk+0x2a8>
				fval = -fval;				//负数取它的正数
 800ece6:	f8cd 9010 	str.w	r9, [sp, #16]
 800ecea:	f10a 4300 	add.w	r3, sl, #2147483648	; 0x80000000
 800ecee:	9305      	str	r3, [sp, #20]
 800ecf0:	ed9d 7b04 	vldr	d7, [sp, #16]
 800ecf4:	ed8d 7b08 	vstr	d7, [sp, #32]
				schar = '-';
 800ecf8:	f04f 092d 	mov.w	r9, #45	; 0x2d
				}
			}
			dschar = FALSE;
			
			//确定是否使用小数点精度数值
			if(precision_used)
 800ecfc:	9b02      	ldr	r3, [sp, #8]
 800ecfe:	b9db      	cbnz	r3, 800ed38 <printk+0x2e4>
				vlen = printk_mkfloatstr(&fval,vstr,precision_width);//将整型转换成字符型保存在vstr中，返回字符数vlen
				vstrp = &vstr[0];  //指向转换后的第一个字符
			}
			else
			{
				if(length_modifier==0)   //浮点型精度到小数点后8位
 800ed00:	f1bb 0f00 	cmp.w	fp, #0
 800ed04:	d11f      	bne.n	800ed46 <printk+0x2f2>
				{
					vlen = printk_mkfloatstr(&fval,vstr,6);//将整型转换成字符型保存在vstr中，返回字符数vlen
 800ed06:	2206      	movs	r2, #6
 800ed08:	a90d      	add	r1, sp, #52	; 0x34
 800ed0a:	a808      	add	r0, sp, #32
 800ed0c:	f7ff fdc0 	bl	800e890 <printk_mkfloatstr>
 800ed10:	4680      	mov	r8, r0
			

			/*
			 * do the ZERO pad.
			 */
			if (IS_FLAG_ZERO(flags_used)) {
 800ed12:	f016 0f08 	tst.w	r6, #8
 800ed16:	d023      	beq.n	800ed60 <printk+0x30c>
				if (schar)
 800ed18:	f1b9 0f00 	cmp.w	r9, #0
 800ed1c:	d11a      	bne.n	800ed54 <printk+0x300>
					printk_putc(schar, &count, info);  //输出符号
				dschar = TRUE;
				printk_pad_zero(vlen, field_width, &count, info);
 800ed1e:	9b01      	ldr	r3, [sp, #4]
 800ed20:	aa0c      	add	r2, sp, #48	; 0x30
 800ed22:	4629      	mov	r1, r5
 800ed24:	4640      	mov	r0, r8
 800ed26:	f7ff fd86 	bl	800e836 <printk_pad_zero>
				vlen = field_width;
 800ed2a:	46a8      	mov	r8, r5
 800ed2c:	f10d 0934 	add.w	r9, sp, #52	; 0x34
 800ed30:	e037      	b.n	800eda2 <printk+0x34e>
					schar = '+';
 800ed32:	f04f 092b 	mov.w	r9, #43	; 0x2b
 800ed36:	e7e1      	b.n	800ecfc <printk+0x2a8>
				vlen = printk_mkfloatstr(&fval,vstr,precision_width);//将整型转换成字符型保存在vstr中，返回字符数vlen
 800ed38:	4642      	mov	r2, r8
 800ed3a:	a90d      	add	r1, sp, #52	; 0x34
 800ed3c:	a808      	add	r0, sp, #32
 800ed3e:	f7ff fda7 	bl	800e890 <printk_mkfloatstr>
 800ed42:	4680      	mov	r8, r0
 800ed44:	e7e5      	b.n	800ed12 <printk+0x2be>
					vlen = printk_mkfloatstr(&fval,vstr,6);//将整型转换成字符型保存在vstr中，返回字符数vlen
 800ed46:	2206      	movs	r2, #6
 800ed48:	a90d      	add	r1, sp, #52	; 0x34
 800ed4a:	a808      	add	r0, sp, #32
 800ed4c:	f7ff fda0 	bl	800e890 <printk_mkfloatstr>
 800ed50:	4680      	mov	r8, r0
 800ed52:	e7de      	b.n	800ed12 <printk+0x2be>
					printk_putc(schar, &count, info);  //输出符号
 800ed54:	9a01      	ldr	r2, [sp, #4]
 800ed56:	a90c      	add	r1, sp, #48	; 0x30
 800ed58:	4648      	mov	r0, r9
 800ed5a:	f7ff fd23 	bl	800e7a4 <printk_putc>
 800ed5e:	e7de      	b.n	800ed1e <printk+0x2ca>
			} else {
				if (!IS_FLAG_MINUS(flags_used)) {
 800ed60:	f016 0f01 	tst.w	r6, #1
 800ed64:	d008      	beq.n	800ed78 <printk+0x324>
				}
			}

			/* the string was built in reverse order, now display in */
			/* correct order */
			if (!dschar && schar) {
 800ed66:	f1b9 0f00 	cmp.w	r9, #0
 800ed6a:	d0df      	beq.n	800ed2c <printk+0x2d8>
				printk_putc(schar, &count, info);
 800ed6c:	9a01      	ldr	r2, [sp, #4]
 800ed6e:	a90c      	add	r1, sp, #48	; 0x30
 800ed70:	4648      	mov	r0, r9
 800ed72:	f7ff fd17 	bl	800e7a4 <printk_putc>
 800ed76:	e7d9      	b.n	800ed2c <printk+0x2d8>
					printk_pad_space(vlen, field_width, &count, info);  //输出空格
 800ed78:	9b01      	ldr	r3, [sp, #4]
 800ed7a:	aa0c      	add	r2, sp, #48	; 0x30
 800ed7c:	4629      	mov	r1, r5
 800ed7e:	4640      	mov	r0, r8
 800ed80:	f7ff fd68 	bl	800e854 <printk_pad_space>
					if (schar)
 800ed84:	f1b9 0f00 	cmp.w	r9, #0
 800ed88:	d0d0      	beq.n	800ed2c <printk+0x2d8>
						printk_putc(schar, &count, info);
 800ed8a:	9a01      	ldr	r2, [sp, #4]
 800ed8c:	a90c      	add	r1, sp, #48	; 0x30
 800ed8e:	4648      	mov	r0, r9
 800ed90:	f7ff fd08 	bl	800e7a4 <printk_putc>
 800ed94:	e7ca      	b.n	800ed2c <printk+0x2d8>
			}
			while (*vstrp)
				printk_putc(*vstrp++, &count, info);
 800ed96:	f109 0901 	add.w	r9, r9, #1
 800ed9a:	9a01      	ldr	r2, [sp, #4]
 800ed9c:	a90c      	add	r1, sp, #48	; 0x30
 800ed9e:	f7ff fd01 	bl	800e7a4 <printk_putc>
			while (*vstrp)
 800eda2:	f899 0000 	ldrb.w	r0, [r9]
 800eda6:	2800      	cmp	r0, #0
 800eda8:	d1f5      	bne.n	800ed96 <printk+0x342>
			if (IS_FLAG_MINUS(flags_used)) {
 800edaa:	f016 0f01 	tst.w	r6, #1
 800edae:	d101      	bne.n	800edb4 <printk+0x360>
			fval= (double)va_arg(ap,double);
 800edb0:	46b9      	mov	r9, r7
 800edb2:	e66e      	b.n	800ea92 <printk+0x3e>
				printk_pad_space(vlen, field_width, &count, info);
 800edb4:	9b01      	ldr	r3, [sp, #4]
 800edb6:	aa0c      	add	r2, sp, #48	; 0x30
 800edb8:	4629      	mov	r1, r5
 800edba:	4640      	mov	r0, r8
 800edbc:	f7ff fd4a 	bl	800e854 <printk_pad_space>
			fval= (double)va_arg(ap,double);
 800edc0:	46b9      	mov	r9, r7
 800edc2:	e666      	b.n	800ea92 <printk+0x3e>
			}
            break;
        //以下是16进制整形输出
		case 'x':
		case 'X':
			uval = (unsigned int) va_arg(ap, unsigned int);
 800edc4:	f109 0304 	add.w	r3, r9, #4
 800edc8:	9303      	str	r3, [sp, #12]
 800edca:	f8d9 3000 	ldr.w	r3, [r9]
 800edce:	a916      	add	r1, sp, #88	; 0x58
 800edd0:	f841 3d3c 	str.w	r3, [r1, #-60]!
			vlen = printk_mknumstr(vstr, &uval, FALSE, 16);
 800edd4:	2310      	movs	r3, #16
 800edd6:	2200      	movs	r2, #0
 800edd8:	a80d      	add	r0, sp, #52	; 0x34
 800edda:	f7ff fcf8 	bl	800e7ce <printk_mknumstr>
 800edde:	4682      	mov	sl, r0
			vstrp = &vstr[vlen];
 800ede0:	ab0d      	add	r3, sp, #52	; 0x34
 800ede2:	eb03 0800 	add.w	r8, r3, r0

			dschar = FALSE;
			if (IS_FLAG_ZERO(flags_used)) {
 800ede6:	f016 0908 	ands.w	r9, r6, #8
 800edea:	d021      	beq.n	800ee30 <printk+0x3dc>
				if (IS_FLAG_POUND(flags_used)) {
 800edec:	f016 0910 	ands.w	r9, r6, #16
 800edf0:	d110      	bne.n	800ee14 <printk+0x3c0>
					printk_putc('0', &count, info);
					printk_putc('x', &count, info);
					/*vlen += 2;*/
					dschar = TRUE;
				}
				printk_pad_zero(vlen, field_width, &count, info);
 800edf2:	9b01      	ldr	r3, [sp, #4]
 800edf4:	aa0c      	add	r2, sp, #48	; 0x30
 800edf6:	4629      	mov	r1, r5
 800edf8:	4650      	mov	r0, sl
 800edfa:	f7ff fd1c 	bl	800e836 <printk_pad_zero>
				vlen = field_width;
 800edfe:	46aa      	mov	sl, r5
						dschar = TRUE;
					}
				}
			}

			if ((IS_FLAG_POUND(flags_used)) && !dschar) {
 800ee00:	f016 0f10 	tst.w	r6, #16
 800ee04:	f000 80ab 	beq.w	800ef5e <printk+0x50a>
 800ee08:	f1b9 0f00 	cmp.w	r9, #0
 800ee0c:	d02f      	beq.n	800ee6e <printk+0x41a>
			uval = (unsigned int) va_arg(ap, unsigned int);
 800ee0e:	f8dd 900c 	ldr.w	r9, [sp, #12]
 800ee12:	e095      	b.n	800ef40 <printk+0x4ec>
					printk_putc('0', &count, info);
 800ee14:	f8dd 9004 	ldr.w	r9, [sp, #4]
 800ee18:	464a      	mov	r2, r9
 800ee1a:	a90c      	add	r1, sp, #48	; 0x30
 800ee1c:	2030      	movs	r0, #48	; 0x30
 800ee1e:	f7ff fcc1 	bl	800e7a4 <printk_putc>
					printk_putc('x', &count, info);
 800ee22:	464a      	mov	r2, r9
 800ee24:	a90c      	add	r1, sp, #48	; 0x30
 800ee26:	2078      	movs	r0, #120	; 0x78
 800ee28:	f7ff fcbc 	bl	800e7a4 <printk_putc>
					dschar = TRUE;
 800ee2c:	46b9      	mov	r9, r7
 800ee2e:	e7e0      	b.n	800edf2 <printk+0x39e>
				if (!IS_FLAG_MINUS(flags_used)) {
 800ee30:	f016 0f01 	tst.w	r6, #1
 800ee34:	d1e4      	bne.n	800ee00 <printk+0x3ac>
					if (IS_FLAG_POUND(flags_used)) {
 800ee36:	f016 0910 	ands.w	r9, r6, #16
 800ee3a:	d001      	beq.n	800ee40 <printk+0x3ec>
						vlen += 2;
 800ee3c:	f100 0a02 	add.w	sl, r0, #2
					printk_pad_space(vlen, field_width, &count, info);
 800ee40:	9b01      	ldr	r3, [sp, #4]
 800ee42:	aa0c      	add	r2, sp, #48	; 0x30
 800ee44:	4629      	mov	r1, r5
 800ee46:	4650      	mov	r0, sl
 800ee48:	f7ff fd04 	bl	800e854 <printk_pad_space>
					if (IS_FLAG_POUND(flags_used)) {
 800ee4c:	f1b9 0f00 	cmp.w	r9, #0
 800ee50:	d0d6      	beq.n	800ee00 <printk+0x3ac>
						printk_putc('0', &count, info);
 800ee52:	f8dd 9004 	ldr.w	r9, [sp, #4]
 800ee56:	464a      	mov	r2, r9
 800ee58:	a90c      	add	r1, sp, #48	; 0x30
 800ee5a:	2030      	movs	r0, #48	; 0x30
 800ee5c:	f7ff fca2 	bl	800e7a4 <printk_putc>
						printk_putc('x', &count, info);
 800ee60:	464a      	mov	r2, r9
 800ee62:	a90c      	add	r1, sp, #48	; 0x30
 800ee64:	2078      	movs	r0, #120	; 0x78
 800ee66:	f7ff fc9d 	bl	800e7a4 <printk_putc>
						dschar = TRUE;
 800ee6a:	46b9      	mov	r9, r7
 800ee6c:	e7c8      	b.n	800ee00 <printk+0x3ac>
				printk_putc('0', &count, info);
 800ee6e:	9f01      	ldr	r7, [sp, #4]
 800ee70:	463a      	mov	r2, r7
 800ee72:	a90c      	add	r1, sp, #48	; 0x30
 800ee74:	2030      	movs	r0, #48	; 0x30
 800ee76:	f7ff fc95 	bl	800e7a4 <printk_putc>
				printk_putc('x', &count, info);
 800ee7a:	463a      	mov	r2, r7
 800ee7c:	a90c      	add	r1, sp, #48	; 0x30
 800ee7e:	2078      	movs	r0, #120	; 0x78
 800ee80:	f7ff fc90 	bl	800e7a4 <printk_putc>
				vlen += 2;
 800ee84:	f10a 0a02 	add.w	sl, sl, #2
			uval = (unsigned int) va_arg(ap, unsigned int);
 800ee88:	f8dd 900c 	ldr.w	r9, [sp, #12]
 800ee8c:	e058      	b.n	800ef40 <printk+0x4ec>
			}
			goto cont_xd;
		//无符号以八进制表示的整数输出
		case 'o':
			uval = (unsigned int) va_arg(ap, unsigned int);
 800ee8e:	f109 0704 	add.w	r7, r9, #4
 800ee92:	f8d9 3000 	ldr.w	r3, [r9]
 800ee96:	a916      	add	r1, sp, #88	; 0x58
 800ee98:	f841 3d3c 	str.w	r3, [r1, #-60]!
			vlen = printk_mknumstr(vstr, &uval, FALSE, 8);
 800ee9c:	2308      	movs	r3, #8
 800ee9e:	2200      	movs	r2, #0
 800eea0:	a80d      	add	r0, sp, #52	; 0x34
 800eea2:	f7ff fc94 	bl	800e7ce <printk_mknumstr>
 800eea6:	4682      	mov	sl, r0
			uval = (unsigned int) va_arg(ap, unsigned int);
 800eea8:	46b9      	mov	r9, r7
			goto cont_u;
		case 'u':
			uval = (unsigned int) va_arg(ap, unsigned int);
			vlen = printk_mknumstr(vstr, &uval, FALSE, 10);

			cont_u: vstrp = &vstr[vlen];
 800eeaa:	ab0d      	add	r3, sp, #52	; 0x34
 800eeac:	eb03 080a 	add.w	r8, r3, sl

			if (IS_FLAG_ZERO(flags_used)) {
 800eeb0:	f016 0f08 	tst.w	r6, #8
 800eeb4:	d136      	bne.n	800ef24 <printk+0x4d0>
				printk_pad_zero(vlen, field_width, &count, info);
				vlen = field_width;
			} else {
				if (!IS_FLAG_MINUS(flags_used)) {
 800eeb6:	f016 0f01 	tst.w	r6, #1
 800eeba:	d141      	bne.n	800ef40 <printk+0x4ec>
					printk_pad_space(vlen, field_width, &count, info);
 800eebc:	9b01      	ldr	r3, [sp, #4]
 800eebe:	aa0c      	add	r2, sp, #48	; 0x30
 800eec0:	4629      	mov	r1, r5
 800eec2:	4650      	mov	r0, sl
 800eec4:	f7ff fcc6 	bl	800e854 <printk_pad_space>
 800eec8:	e03a      	b.n	800ef40 <printk+0x4ec>
			uval = (unsigned int) va_arg(ap, unsigned int);
 800eeca:	f109 0704 	add.w	r7, r9, #4
 800eece:	f8d9 3000 	ldr.w	r3, [r9]
 800eed2:	a916      	add	r1, sp, #88	; 0x58
 800eed4:	f841 3d3c 	str.w	r3, [r1, #-60]!
			vlen = printk_mknumstr(vstr, &uval, FALSE, 2);
 800eed8:	2302      	movs	r3, #2
 800eeda:	2200      	movs	r2, #0
 800eedc:	a80d      	add	r0, sp, #52	; 0x34
 800eede:	f7ff fc76 	bl	800e7ce <printk_mknumstr>
 800eee2:	4682      	mov	sl, r0
			uval = (unsigned int) va_arg(ap, unsigned int);
 800eee4:	46b9      	mov	r9, r7
			goto cont_u;
 800eee6:	e7e0      	b.n	800eeaa <printk+0x456>
			uval = (unsigned int) va_arg(ap, void *);
 800eee8:	f109 0704 	add.w	r7, r9, #4
 800eeec:	f8d9 3000 	ldr.w	r3, [r9]
 800eef0:	a916      	add	r1, sp, #88	; 0x58
 800eef2:	f841 3d3c 	str.w	r3, [r1, #-60]!
			vlen = printk_mknumstr(vstr, &uval, FALSE, 16);
 800eef6:	2310      	movs	r3, #16
 800eef8:	2200      	movs	r2, #0
 800eefa:	a80d      	add	r0, sp, #52	; 0x34
 800eefc:	f7ff fc67 	bl	800e7ce <printk_mknumstr>
 800ef00:	4682      	mov	sl, r0
			uval = (unsigned int) va_arg(ap, void *);
 800ef02:	46b9      	mov	r9, r7
			goto cont_u;
 800ef04:	e7d1      	b.n	800eeaa <printk+0x456>
			uval = (unsigned int) va_arg(ap, unsigned int);
 800ef06:	f109 0704 	add.w	r7, r9, #4
 800ef0a:	f8d9 3000 	ldr.w	r3, [r9]
 800ef0e:	a916      	add	r1, sp, #88	; 0x58
 800ef10:	f841 3d3c 	str.w	r3, [r1, #-60]!
			vlen = printk_mknumstr(vstr, &uval, FALSE, 10);
 800ef14:	230a      	movs	r3, #10
 800ef16:	2200      	movs	r2, #0
 800ef18:	a80d      	add	r0, sp, #52	; 0x34
 800ef1a:	f7ff fc58 	bl	800e7ce <printk_mknumstr>
 800ef1e:	4682      	mov	sl, r0
			uval = (unsigned int) va_arg(ap, unsigned int);
 800ef20:	46b9      	mov	r9, r7
 800ef22:	e7c2      	b.n	800eeaa <printk+0x456>
				printk_pad_zero(vlen, field_width, &count, info);
 800ef24:	9b01      	ldr	r3, [sp, #4]
 800ef26:	aa0c      	add	r2, sp, #48	; 0x30
 800ef28:	4629      	mov	r1, r5
 800ef2a:	4650      	mov	r0, sl
 800ef2c:	f7ff fc83 	bl	800e836 <printk_pad_zero>
				vlen = field_width;
 800ef30:	46aa      	mov	sl, r5
 800ef32:	e005      	b.n	800ef40 <printk+0x4ec>
				}
			}

			cont_xd: while (*vstrp)
				printk_putc(*vstrp--, &count, info);
 800ef34:	f108 38ff 	add.w	r8, r8, #4294967295
 800ef38:	9a01      	ldr	r2, [sp, #4]
 800ef3a:	a90c      	add	r1, sp, #48	; 0x30
 800ef3c:	f7ff fc32 	bl	800e7a4 <printk_putc>
			cont_xd: while (*vstrp)
 800ef40:	f898 0000 	ldrb.w	r0, [r8]
 800ef44:	2800      	cmp	r0, #0
 800ef46:	d1f5      	bne.n	800ef34 <printk+0x4e0>

			if (IS_FLAG_MINUS(flags_used)) {
 800ef48:	f016 0f01 	tst.w	r6, #1
 800ef4c:	f43f ada1 	beq.w	800ea92 <printk+0x3e>
				printk_pad_space(vlen, field_width, &count, info);
 800ef50:	9b01      	ldr	r3, [sp, #4]
 800ef52:	aa0c      	add	r2, sp, #48	; 0x30
 800ef54:	4629      	mov	r1, r5
 800ef56:	4650      	mov	r0, sl
 800ef58:	f7ff fc7c 	bl	800e854 <printk_pad_space>
 800ef5c:	e599      	b.n	800ea92 <printk+0x3e>
			uval = (unsigned int) va_arg(ap, unsigned int);
 800ef5e:	f8dd 900c 	ldr.w	r9, [sp, #12]
 800ef62:	e7ed      	b.n	800ef40 <printk+0x4ec>
			}

			break;
        //字符型输出
		case 'c':
			cval = (char) va_arg(ap, unsigned int);
 800ef64:	f109 0504 	add.w	r5, r9, #4
			printk_putc(cval, &count, info);
 800ef68:	9a01      	ldr	r2, [sp, #4]
 800ef6a:	a90c      	add	r1, sp, #48	; 0x30
 800ef6c:	f899 0000 	ldrb.w	r0, [r9]
 800ef70:	f7ff fc18 	bl	800e7a4 <printk_putc>
			cval = (char) va_arg(ap, unsigned int);
 800ef74:	46a9      	mov	r9, r5
			break;
 800ef76:	e58c      	b.n	800ea92 <printk+0x3e>
		case 's':
			sval = (char *) va_arg(ap, char *);
 800ef78:	f109 0a04 	add.w	sl, r9, #4
 800ef7c:	f8d9 7000 	ldr.w	r7, [r9]
			if (sval) {
 800ef80:	2f00      	cmp	r7, #0
 800ef82:	d03b      	beq.n	800effc <printk+0x5a8>
				vlen = strlen(sval);
 800ef84:	4638      	mov	r0, r7
 800ef86:	f7fe fcf7 	bl	800d978 <strlen>
 800ef8a:	4681      	mov	r9, r0
				if (!IS_FLAG_MINUS(flags_used)) {
 800ef8c:	f016 0601 	ands.w	r6, r6, #1
 800ef90:	d00f      	beq.n	800efb2 <printk+0x55e>
					printk_pad_space(vlen, field_width, &count, info);
				}
				if(precision_width!=0)
 800ef92:	f1b8 0f00 	cmp.w	r8, #0
 800ef96:	d017      	beq.n	800efc8 <printk+0x574>
				{
					while (*sval)
 800ef98:	7838      	ldrb	r0, [r7, #0]
 800ef9a:	b1c0      	cbz	r0, 800efce <printk+0x57a>
					{
						if(precision_width>=1)
 800ef9c:	f1b8 0f00 	cmp.w	r8, #0
 800efa0:	ddfa      	ble.n	800ef98 <printk+0x544>
						{
							precision_width--;
 800efa2:	f108 38ff 	add.w	r8, r8, #4294967295
							printk_putc(*sval++, &count, info);
 800efa6:	3701      	adds	r7, #1
 800efa8:	9a01      	ldr	r2, [sp, #4]
 800efaa:	a90c      	add	r1, sp, #48	; 0x30
 800efac:	f7ff fbfa 	bl	800e7a4 <printk_putc>
 800efb0:	e7f2      	b.n	800ef98 <printk+0x544>
					printk_pad_space(vlen, field_width, &count, info);
 800efb2:	9b01      	ldr	r3, [sp, #4]
 800efb4:	aa0c      	add	r2, sp, #48	; 0x30
 800efb6:	4629      	mov	r1, r5
 800efb8:	f7ff fc4c 	bl	800e854 <printk_pad_space>
 800efbc:	e7e9      	b.n	800ef92 <printk+0x53e>
					}
				}
				else    //precision_width=0情况
				{
					while (*sval)
					   printk_putc(*sval++, &count, info);
 800efbe:	3701      	adds	r7, #1
 800efc0:	9a01      	ldr	r2, [sp, #4]
 800efc2:	a90c      	add	r1, sp, #48	; 0x30
 800efc4:	f7ff fbee 	bl	800e7a4 <printk_putc>
					while (*sval)
 800efc8:	7838      	ldrb	r0, [r7, #0]
 800efca:	2800      	cmp	r0, #0
 800efcc:	d1f7      	bne.n	800efbe <printk+0x56a>
				}
				if (IS_FLAG_MINUS(flags_used)) {
 800efce:	b90e      	cbnz	r6, 800efd4 <printk+0x580>
			sval = (char *) va_arg(ap, char *);
 800efd0:	46d1      	mov	r9, sl
 800efd2:	e55e      	b.n	800ea92 <printk+0x3e>
					printk_pad_space(vlen, field_width, &count, info);
 800efd4:	9b01      	ldr	r3, [sp, #4]
 800efd6:	aa0c      	add	r2, sp, #48	; 0x30
 800efd8:	4629      	mov	r1, r5
 800efda:	4648      	mov	r0, r9
 800efdc:	f7ff fc3a 	bl	800e854 <printk_pad_space>
			sval = (char *) va_arg(ap, char *);
 800efe0:	46d1      	mov	r9, sl
 800efe2:	e556      	b.n	800ea92 <printk+0x3e>
				}
			}
			break;
		case 'n':
			ivalp = (int *) va_arg(ap, int *);
 800efe4:	f8d9 3000 	ldr.w	r3, [r9]
			*ivalp = count;
 800efe8:	9a0c      	ldr	r2, [sp, #48]	; 0x30
 800efea:	601a      	str	r2, [r3, #0]
			ivalp = (int *) va_arg(ap, int *);
 800efec:	f109 0904 	add.w	r9, r9, #4
			break;
 800eff0:	e54f      	b.n	800ea92 <printk+0x3e>

		default:
			printk_putc(c, &count, info);
 800eff2:	9a01      	ldr	r2, [sp, #4]
 800eff4:	a90c      	add	r1, sp, #48	; 0x30
 800eff6:	f7ff fbd5 	bl	800e7a4 <printk_putc>
			break;
 800effa:	e54a      	b.n	800ea92 <printk+0x3e>
			sval = (char *) va_arg(ap, char *);
 800effc:	46d1      	mov	r9, sl
 800effe:	e548      	b.n	800ea92 <printk+0x3e>
		}
	}
	return count;
}
 800f000:	980c      	ldr	r0, [sp, #48]	; 0x30
 800f002:	b017      	add	sp, #92	; 0x5c
 800f004:	e8bd 8ff0 	ldmia.w	sp!, {r4, r5, r6, r7, r8, r9, sl, fp, pc}

0800f008 <myprintf>:
//参数说明：const char *:打印参数字符串：对输入的字符串进行解析并按格式输出
//       例如： printf("c=%c\n",c); 将c按char型进行输出
//函数返回：字符串长度
//======================================================================
int myprintf(const char *fmt, ...)
{
 800f008:	b40f      	push	{r0, r1, r2, r3}
 800f00a:	b500      	push	{lr}
 800f00c:	b085      	sub	sp, #20
	char * ap;
	int rvalue;
	PRINTK_INFO info;
	info.dest = DEST_CONSOLE;  //宏定义为1
 800f00e:	2301      	movs	r3, #1
 800f010:	9301      	str	r3, [sp, #4]
	info.func = &out_char;     //调用的串口输出函数
 800f012:	4b06      	ldr	r3, [pc, #24]	; (800f02c <myprintf+0x24>)
 800f014:	9302      	str	r3, [sp, #8]
	va_start(ap, fmt);  //对ap 进行初始化，让它指向可变参数表里面的第一个参数
	rvalue = printk(&info, fmt, ap);
 800f016:	aa06      	add	r2, sp, #24
 800f018:	f852 1b04 	ldr.w	r1, [r2], #4
 800f01c:	a801      	add	r0, sp, #4
 800f01e:	f7ff fd19 	bl	800ea54 <printk>

	va_end(ap);

	return rvalue;
}
 800f022:	b005      	add	sp, #20
 800f024:	f85d eb04 	ldr.w	lr, [sp], #4
 800f028:	b004      	add	sp, #16
 800f02a:	4770      	bx	lr
 800f02c:	0800e873 	.word	0x0800e873

0800f030 <userprintf>:


int userprintf(const char *fmt, ...)
{
 800f030:	b40f      	push	{r0, r1, r2, r3}
 800f032:	b500      	push	{lr}
 800f034:	b085      	sub	sp, #20
	char * ap;
	int rvalue;
	PRINTK_INFO info;
	info.dest = DEST_CONSOLE;  //宏定义为1
 800f036:	2301      	movs	r3, #1
 800f038:	9301      	str	r3, [sp, #4]
	info.func = &out_char2;     //调用的串口输出函数
 800f03a:	4b06      	ldr	r3, [pc, #24]	; (800f054 <userprintf+0x24>)
 800f03c:	9302      	str	r3, [sp, #8]
	va_start(ap, fmt);  //对ap 进行初始化，让它指向可变参数表里面的第一个参数
	rvalue = printk(&info, fmt, ap);
 800f03e:	aa06      	add	r2, sp, #24
 800f040:	f852 1b04 	ldr.w	r1, [r2], #4
 800f044:	a801      	add	r0, sp, #4
 800f046:	f7ff fd05 	bl	800ea54 <printk>

	va_end(ap);

	return rvalue;
}
 800f04a:	b005      	add	sp, #20
 800f04c:	f85d eb04 	ldr.w	lr, [sp], #4
 800f050:	b004      	add	sp, #16
 800f052:	4770      	bx	lr
 800f054:	0800e87f 	.word	0x0800e87f

0800f058 <rt_thread_exit>:
}

#endif

void rt_thread_exit(void)
{
 800f058:	b538      	push	{r3, r4, r5, lr}
    struct rt_thread *thread;
    register rt_base_t level;

    /* get current thread */
    thread = rt_current_thread;
 800f05a:	4b14      	ldr	r3, [pc, #80]	; (800f0ac <rt_thread_exit+0x54>)
 800f05c:	681c      	ldr	r4, [r3, #0]

    /* disable interrupt */
    level = rt_hw_interrupt_disable();
 800f05e:	f7fe fbef 	bl	800d840 <rt_hw_interrupt_disable>
 800f062:	4605      	mov	r5, r0

    /* remove from schedule */
    rt_schedule_remove_thread(thread);
 800f064:	4620      	mov	r0, r4
 800f066:	f001 feaf 	bl	8010dc8 <rt_schedule_remove_thread>
    /* change stat */
    thread->stat = RT_THREAD_CLOSE;
 800f06a:	2304      	movs	r3, #4
 800f06c:	f884 3034 	strb.w	r3, [r4, #52]	; 0x34

    /* remove it from timer list */
    rt_timer_detach(&thread->thread_timer);
 800f070:	f104 004c 	add.w	r0, r4, #76	; 0x4c
 800f074:	f000 fa1a 	bl	800f4ac <rt_timer_detach>

    if ((rt_object_is_systemobject((rt_object_t)thread) == RT_TRUE) &&
 800f078:	4620      	mov	r0, r4
 800f07a:	f000 fcd2 	bl	800fa22 <rt_object_is_systemobject>
 800f07e:	2801      	cmp	r0, #1
 800f080:	d00d      	beq.n	800f09e <rt_thread_exit+0x46>
        rt_object_detach((rt_object_t)thread);
    }
    else
    {
        /* insert to defunct thread list */
        rt_list_insert_after(&rt_thread_defunct, &(thread->tlist));
 800f082:	f104 0214 	add.w	r2, r4, #20
 * @param l list to insert it
 * @param n new node to be inserted
 */
rt_inline void rt_list_insert_after(rt_list_t *l, rt_list_t *n)
{
    l->next->prev = n;
 800f086:	4b0a      	ldr	r3, [pc, #40]	; (800f0b0 <rt_thread_exit+0x58>)
 800f088:	6819      	ldr	r1, [r3, #0]
 800f08a:	604a      	str	r2, [r1, #4]
    n->next = l->next;
 800f08c:	6161      	str	r1, [r4, #20]

    l->next = n;
 800f08e:	601a      	str	r2, [r3, #0]
    n->prev = l;
 800f090:	61a3      	str	r3, [r4, #24]
    }

    /* enable interrupt */
    rt_hw_interrupt_enable(level);
 800f092:	4628      	mov	r0, r5
 800f094:	f7fe fbd8 	bl	800d848 <rt_hw_interrupt_enable>

    /* switch to next task */
    rt_schedule();
 800f098:	f001 fe34 	bl	8010d04 <rt_schedule>
}
 800f09c:	bd38      	pop	{r3, r4, r5, pc}
        thread->cleanup == RT_NULL)
 800f09e:	6fa3      	ldr	r3, [r4, #120]	; 0x78
    if ((rt_object_is_systemobject((rt_object_t)thread) == RT_TRUE) &&
 800f0a0:	2b00      	cmp	r3, #0
 800f0a2:	d1ee      	bne.n	800f082 <rt_thread_exit+0x2a>
        rt_object_detach((rt_object_t)thread);
 800f0a4:	4620      	mov	r0, r4
 800f0a6:	f000 fc6b 	bl	800f980 <rt_object_detach>
 800f0aa:	e7f2      	b.n	800f092 <rt_thread_exit+0x3a>
 800f0ac:	20007c60 	.word	0x20007c60
 800f0b0:	20007c68 	.word	0x20007c68

0800f0b4 <_rt_thread_init>:
                                void             *parameter,
                                void             *stack_start,
                                rt_uint32_t       stack_size,
                                rt_uint8_t        priority,
                                rt_uint32_t       tick)
{
 800f0b4:	b5f0      	push	{r4, r5, r6, r7, lr}
 800f0b6:	b083      	sub	sp, #12
 800f0b8:	4604      	mov	r4, r0
 800f0ba:	9808      	ldr	r0, [sp, #32]
 800f0bc:	9909      	ldr	r1, [sp, #36]	; 0x24
 800f0be:	f89d 5028 	ldrb.w	r5, [sp, #40]	; 0x28
 800f0c2:	9e0b      	ldr	r6, [sp, #44]	; 0x2c
    /* init thread list */
    rt_list_init(&(thread->tlist));
 800f0c4:	f104 0714 	add.w	r7, r4, #20
    l->next = l->prev = l;
 800f0c8:	61a7      	str	r7, [r4, #24]
 800f0ca:	6167      	str	r7, [r4, #20]

    thread->entry = (void *)entry;
 800f0cc:	6222      	str	r2, [r4, #32]
    thread->parameter = parameter;
 800f0ce:	6263      	str	r3, [r4, #36]	; 0x24

    /* stack init */
    thread->stack_addr = stack_start;
 800f0d0:	62a0      	str	r0, [r4, #40]	; 0x28
    thread->stack_size = stack_size;
 800f0d2:	62e1      	str	r1, [r4, #44]	; 0x2c

    /* init thread stack */
    rt_memset(thread->stack_addr, '#', thread->stack_size);
 800f0d4:	460a      	mov	r2, r1
 800f0d6:	2123      	movs	r1, #35	; 0x23
 800f0d8:	f001 fb42 	bl	8010760 <rt_memset>
    thread->sp = (void *)rt_hw_stack_init(thread->entry, thread->parameter,
                                          (void *)((char *)thread->stack_addr),
                                          (void *)rt_thread_exit);
#else
    thread->sp = (void *)rt_hw_stack_init(thread->entry, thread->parameter,
                                          (void *)((char *)thread->stack_addr + thread->stack_size - 4),
 800f0dc:	6aa1      	ldr	r1, [r4, #40]	; 0x28
 800f0de:	6ae3      	ldr	r3, [r4, #44]	; 0x2c
 800f0e0:	1f1a      	subs	r2, r3, #4
    thread->sp = (void *)rt_hw_stack_init(thread->entry, thread->parameter,
 800f0e2:	4b10      	ldr	r3, [pc, #64]	; (800f124 <_rt_thread_init+0x70>)
 800f0e4:	440a      	add	r2, r1
 800f0e6:	6a61      	ldr	r1, [r4, #36]	; 0x24
 800f0e8:	6a20      	ldr	r0, [r4, #32]
 800f0ea:	f7ff faa9 	bl	800e640 <rt_hw_stack_init>
 800f0ee:	61e0      	str	r0, [r4, #28]
                                          (void *)rt_thread_exit);
#endif

    /* priority init */
    RT_ASSERT(priority < RT_THREAD_PRIORITY_MAX);
    thread->init_priority    = priority;
 800f0f0:	f884 5036 	strb.w	r5, [r4, #54]	; 0x36
    thread->current_priority = priority;
 800f0f4:	f884 5035 	strb.w	r5, [r4, #53]	; 0x35

    thread->number_mask = 0;
 800f0f8:	2500      	movs	r5, #0
 800f0fa:	63a5      	str	r5, [r4, #56]	; 0x38
    thread->number = 0;
    thread->high_mask = 0;
#endif

    /* tick init */
    thread->init_tick      = tick;
 800f0fc:	6466      	str	r6, [r4, #68]	; 0x44
    thread->remaining_tick = tick;
 800f0fe:	64a6      	str	r6, [r4, #72]	; 0x48

    /* error and flags */
    thread->error = RT_EOK;
 800f100:	6325      	str	r5, [r4, #48]	; 0x30
    thread->stat  = RT_THREAD_INIT;
 800f102:	f884 5034 	strb.w	r5, [r4, #52]	; 0x34

    /* initialize cleanup function and user data */
    thread->cleanup   = 0;
 800f106:	67a5      	str	r5, [r4, #120]	; 0x78
    thread->user_data = 0;
 800f108:	67e5      	str	r5, [r4, #124]	; 0x7c

    /* init thread timer */
    rt_timer_init(&(thread->thread_timer),
 800f10a:	9501      	str	r5, [sp, #4]
 800f10c:	9500      	str	r5, [sp, #0]
 800f10e:	4623      	mov	r3, r4
 800f110:	4a05      	ldr	r2, [pc, #20]	; (800f128 <_rt_thread_init+0x74>)
 800f112:	4621      	mov	r1, r4
 800f114:	f104 004c 	add.w	r0, r4, #76	; 0x4c
 800f118:	f000 f9b4 	bl	800f484 <rt_timer_init>
#endif

    RT_OBJECT_HOOK_CALL(rt_thread_inited_hook, (thread));

    return RT_EOK;
}
 800f11c:	4628      	mov	r0, r5
 800f11e:	b003      	add	sp, #12
 800f120:	bdf0      	pop	{r4, r5, r6, r7, pc}
 800f122:	bf00      	nop
 800f124:	0800f059 	.word	0x0800f059
 800f128:	0800f12d 	.word	0x0800f12d

0800f12c <rt_thread_timeout>:
 * when thread is timeout to wait some resource.
 *
 * @param parameter the parameter of thread timeout function
 */
void rt_thread_timeout(void *parameter)
{
 800f12c:	b510      	push	{r4, lr}
    RT_ASSERT(thread != RT_NULL);
    RT_ASSERT((thread->stat & RT_THREAD_STAT_MASK) == RT_THREAD_SUSPEND);
    RT_ASSERT(rt_object_get_type((rt_object_t)thread) == RT_Object_Class_Thread);

    /* set error number */
    thread->error = -RT_ETIMEOUT;
 800f12e:	f06f 0201 	mvn.w	r2, #1
 800f132:	6302      	str	r2, [r0, #48]	; 0x30

    /* remove from suspend list */
    rt_list_remove(&(thread->tlist));
 800f134:	f100 0214 	add.w	r2, r0, #20
 * @brief remove node from list.
 * @param n the node to remove from the list.
 */
rt_inline void rt_list_remove(rt_list_t *n)
{
    n->next->prev = n->prev;
 800f138:	6941      	ldr	r1, [r0, #20]
 800f13a:	6984      	ldr	r4, [r0, #24]
 800f13c:	604c      	str	r4, [r1, #4]
    n->prev->next = n->next;
 800f13e:	6981      	ldr	r1, [r0, #24]
 800f140:	6944      	ldr	r4, [r0, #20]
 800f142:	600c      	str	r4, [r1, #0]

    n->next = n->prev = n;
 800f144:	6182      	str	r2, [r0, #24]
 800f146:	6142      	str	r2, [r0, #20]

    /* insert to schedule ready list */
    rt_schedule_insert_thread(thread);
 800f148:	f001 fe18 	bl	8010d7c <rt_schedule_insert_thread>

    /* do schedule */
    rt_schedule();
 800f14c:	f001 fdda 	bl	8010d04 <rt_schedule>
}
 800f150:	bd10      	pop	{r4, pc}

0800f152 <rt_thread_init>:
{
 800f152:	b5f0      	push	{r4, r5, r6, r7, lr}
 800f154:	b085      	sub	sp, #20
 800f156:	4605      	mov	r5, r0
 800f158:	460c      	mov	r4, r1
 800f15a:	4616      	mov	r6, r2
 800f15c:	461f      	mov	r7, r3
    rt_object_init((rt_object_t)thread, RT_Object_Class_Thread, name);
 800f15e:	460a      	mov	r2, r1
 800f160:	2101      	movs	r1, #1
 800f162:	f000 fbeb 	bl	800f93c <rt_object_init>
    return _rt_thread_init(thread,
 800f166:	9b0d      	ldr	r3, [sp, #52]	; 0x34
 800f168:	9303      	str	r3, [sp, #12]
 800f16a:	f89d 3030 	ldrb.w	r3, [sp, #48]	; 0x30
 800f16e:	9302      	str	r3, [sp, #8]
 800f170:	9b0b      	ldr	r3, [sp, #44]	; 0x2c
 800f172:	9301      	str	r3, [sp, #4]
 800f174:	9b0a      	ldr	r3, [sp, #40]	; 0x28
 800f176:	9300      	str	r3, [sp, #0]
 800f178:	463b      	mov	r3, r7
 800f17a:	4632      	mov	r2, r6
 800f17c:	4621      	mov	r1, r4
 800f17e:	4628      	mov	r0, r5
 800f180:	f7ff ff98 	bl	800f0b4 <_rt_thread_init>
}
 800f184:	b005      	add	sp, #20
 800f186:	bdf0      	pop	{r4, r5, r6, r7, pc}

0800f188 <rt_thread_self>:
}
 800f188:	4b01      	ldr	r3, [pc, #4]	; (800f190 <rt_thread_self+0x8>)
 800f18a:	6818      	ldr	r0, [r3, #0]
 800f18c:	4770      	bx	lr
 800f18e:	bf00      	nop
 800f190:	20007c60 	.word	0x20007c60

0800f194 <rt_thread_detach>:
{
 800f194:	b510      	push	{r4, lr}
 800f196:	4604      	mov	r4, r0
    if ((thread->stat & RT_THREAD_STAT_MASK) != RT_THREAD_INIT)
 800f198:	f890 3034 	ldrb.w	r3, [r0, #52]	; 0x34
 800f19c:	f013 0f0f 	tst.w	r3, #15
 800f1a0:	d11b      	bne.n	800f1da <rt_thread_detach+0x46>
    rt_timer_detach(&(thread->thread_timer));
 800f1a2:	f104 004c 	add.w	r0, r4, #76	; 0x4c
 800f1a6:	f000 f981 	bl	800f4ac <rt_timer_detach>
    thread->stat = RT_THREAD_CLOSE;
 800f1aa:	2304      	movs	r3, #4
 800f1ac:	f884 3034 	strb.w	r3, [r4, #52]	; 0x34
    if ((rt_object_is_systemobject((rt_object_t)thread) == RT_TRUE) &&
 800f1b0:	4620      	mov	r0, r4
 800f1b2:	f000 fc36 	bl	800fa22 <rt_object_is_systemobject>
 800f1b6:	2801      	cmp	r0, #1
 800f1b8:	d101      	bne.n	800f1be <rt_thread_detach+0x2a>
        thread->cleanup == RT_NULL)
 800f1ba:	6fa3      	ldr	r3, [r4, #120]	; 0x78
    if ((rt_object_is_systemobject((rt_object_t)thread) == RT_TRUE) &&
 800f1bc:	b183      	cbz	r3, 800f1e0 <rt_thread_detach+0x4c>
        lock = rt_hw_interrupt_disable();
 800f1be:	f7fe fb3f 	bl	800d840 <rt_hw_interrupt_disable>
        rt_list_insert_after(&rt_thread_defunct, &(thread->tlist));
 800f1c2:	f104 0214 	add.w	r2, r4, #20
    l->next->prev = n;
 800f1c6:	4b08      	ldr	r3, [pc, #32]	; (800f1e8 <rt_thread_detach+0x54>)
 800f1c8:	6819      	ldr	r1, [r3, #0]
 800f1ca:	604a      	str	r2, [r1, #4]
    n->next = l->next;
 800f1cc:	6161      	str	r1, [r4, #20]
    l->next = n;
 800f1ce:	601a      	str	r2, [r3, #0]
    n->prev = l;
 800f1d0:	61a3      	str	r3, [r4, #24]
        rt_hw_interrupt_enable(lock);
 800f1d2:	f7fe fb39 	bl	800d848 <rt_hw_interrupt_enable>
}
 800f1d6:	2000      	movs	r0, #0
 800f1d8:	bd10      	pop	{r4, pc}
        rt_schedule_remove_thread(thread);
 800f1da:	f001 fdf5 	bl	8010dc8 <rt_schedule_remove_thread>
 800f1de:	e7e0      	b.n	800f1a2 <rt_thread_detach+0xe>
        rt_object_detach((rt_object_t)thread);
 800f1e0:	4620      	mov	r0, r4
 800f1e2:	f000 fbcd 	bl	800f980 <rt_object_detach>
 800f1e6:	e7f6      	b.n	800f1d6 <rt_thread_detach+0x42>
 800f1e8:	20007c68 	.word	0x20007c68

0800f1ec <rt_thread_create>:
{
 800f1ec:	e92d 41f0 	stmdb	sp!, {r4, r5, r6, r7, r8, lr}
 800f1f0:	b084      	sub	sp, #16
 800f1f2:	4605      	mov	r5, r0
 800f1f4:	460f      	mov	r7, r1
 800f1f6:	4690      	mov	r8, r2
 800f1f8:	461e      	mov	r6, r3
    thread = (struct rt_thread *)rt_object_allocate(RT_Object_Class_Thread,
 800f1fa:	4601      	mov	r1, r0
 800f1fc:	2001      	movs	r0, #1
 800f1fe:	f000 fbd2 	bl	800f9a6 <rt_object_allocate>
    if (thread == RT_NULL)
 800f202:	b1d0      	cbz	r0, 800f23a <rt_thread_create+0x4e>
 800f204:	4604      	mov	r4, r0
    stack_start = (void *)RT_KERNEL_MALLOC(stack_size);
 800f206:	4630      	mov	r0, r6
 800f208:	f002 fc04 	bl	8011a14 <rt_malloc>
    if (stack_start == RT_NULL)
 800f20c:	b180      	cbz	r0, 800f230 <rt_thread_create+0x44>
    _rt_thread_init(thread,
 800f20e:	9a0b      	ldr	r2, [sp, #44]	; 0x2c
 800f210:	9203      	str	r2, [sp, #12]
 800f212:	f89d 2028 	ldrb.w	r2, [sp, #40]	; 0x28
 800f216:	9202      	str	r2, [sp, #8]
 800f218:	9601      	str	r6, [sp, #4]
 800f21a:	9000      	str	r0, [sp, #0]
 800f21c:	4643      	mov	r3, r8
 800f21e:	463a      	mov	r2, r7
 800f220:	4629      	mov	r1, r5
 800f222:	4620      	mov	r0, r4
 800f224:	f7ff ff46 	bl	800f0b4 <_rt_thread_init>
}
 800f228:	4620      	mov	r0, r4
 800f22a:	b004      	add	sp, #16
 800f22c:	e8bd 81f0 	ldmia.w	sp!, {r4, r5, r6, r7, r8, pc}
        rt_object_delete((rt_object_t)thread);
 800f230:	4620      	mov	r0, r4
 800f232:	f000 fbe0 	bl	800f9f6 <rt_object_delete>
        return RT_NULL;
 800f236:	2400      	movs	r4, #0
 800f238:	e7f6      	b.n	800f228 <rt_thread_create+0x3c>
        return RT_NULL;
 800f23a:	2400      	movs	r4, #0
 800f23c:	e7f4      	b.n	800f228 <rt_thread_create+0x3c>
	...

0800f240 <rt_thread_delete>:
{
 800f240:	b510      	push	{r4, lr}
 800f242:	4604      	mov	r4, r0
    if ((thread->stat & RT_THREAD_STAT_MASK) != RT_THREAD_INIT)
 800f244:	f890 3034 	ldrb.w	r3, [r0, #52]	; 0x34
 800f248:	f013 0f0f 	tst.w	r3, #15
 800f24c:	d114      	bne.n	800f278 <rt_thread_delete+0x38>
    rt_timer_detach(&(thread->thread_timer));
 800f24e:	f104 004c 	add.w	r0, r4, #76	; 0x4c
 800f252:	f000 f92b 	bl	800f4ac <rt_timer_detach>
    thread->stat = RT_THREAD_CLOSE;
 800f256:	2304      	movs	r3, #4
 800f258:	f884 3034 	strb.w	r3, [r4, #52]	; 0x34
    lock = rt_hw_interrupt_disable();
 800f25c:	f7fe faf0 	bl	800d840 <rt_hw_interrupt_disable>
    rt_list_insert_after(&rt_thread_defunct, &(thread->tlist));
 800f260:	f104 0214 	add.w	r2, r4, #20
    l->next->prev = n;
 800f264:	4b06      	ldr	r3, [pc, #24]	; (800f280 <rt_thread_delete+0x40>)
 800f266:	6819      	ldr	r1, [r3, #0]
 800f268:	604a      	str	r2, [r1, #4]
    n->next = l->next;
 800f26a:	6161      	str	r1, [r4, #20]
    l->next = n;
 800f26c:	601a      	str	r2, [r3, #0]
    n->prev = l;
 800f26e:	61a3      	str	r3, [r4, #24]
    rt_hw_interrupt_enable(lock);
 800f270:	f7fe faea 	bl	800d848 <rt_hw_interrupt_enable>
}
 800f274:	2000      	movs	r0, #0
 800f276:	bd10      	pop	{r4, pc}
        rt_schedule_remove_thread(thread);
 800f278:	f001 fda6 	bl	8010dc8 <rt_schedule_remove_thread>
 800f27c:	e7e7      	b.n	800f24e <rt_thread_delete+0xe>
 800f27e:	bf00      	nop
 800f280:	20007c68 	.word	0x20007c68

0800f284 <rt_thread_yield>:
{
 800f284:	b510      	push	{r4, lr}
    level = rt_hw_interrupt_disable();
 800f286:	f7fe fadb 	bl	800d840 <rt_hw_interrupt_disable>
    thread = rt_current_thread;
 800f28a:	4b14      	ldr	r3, [pc, #80]	; (800f2dc <rt_thread_yield+0x58>)
 800f28c:	681b      	ldr	r3, [r3, #0]
    if ((thread->stat & RT_THREAD_STAT_MASK) == RT_THREAD_READY &&
 800f28e:	f893 2034 	ldrb.w	r2, [r3, #52]	; 0x34
 800f292:	f002 020f 	and.w	r2, r2, #15
 800f296:	2a01      	cmp	r2, #1
 800f298:	d103      	bne.n	800f2a2 <rt_thread_yield+0x1e>
        thread->tlist.next != thread->tlist.prev)
 800f29a:	695a      	ldr	r2, [r3, #20]
 800f29c:	6999      	ldr	r1, [r3, #24]
    if ((thread->stat & RT_THREAD_STAT_MASK) == RT_THREAD_READY &&
 800f29e:	428a      	cmp	r2, r1
 800f2a0:	d103      	bne.n	800f2aa <rt_thread_yield+0x26>
    rt_hw_interrupt_enable(level);
 800f2a2:	f7fe fad1 	bl	800d848 <rt_hw_interrupt_enable>
}
 800f2a6:	2000      	movs	r0, #0
 800f2a8:	bd10      	pop	{r4, pc}
        rt_list_remove(&(thread->tlist));
 800f2aa:	f103 0414 	add.w	r4, r3, #20
    n->next->prev = n->prev;
 800f2ae:	6051      	str	r1, [r2, #4]
    n->prev->next = n->next;
 800f2b0:	699a      	ldr	r2, [r3, #24]
 800f2b2:	6959      	ldr	r1, [r3, #20]
 800f2b4:	6011      	str	r1, [r2, #0]
    n->next = n->prev = n;
 800f2b6:	619c      	str	r4, [r3, #24]
 800f2b8:	615c      	str	r4, [r3, #20]
        rt_list_insert_before(&(rt_thread_priority_table[thread->current_priority]),
 800f2ba:	f893 1035 	ldrb.w	r1, [r3, #53]	; 0x35
 800f2be:	4a08      	ldr	r2, [pc, #32]	; (800f2e0 <rt_thread_yield+0x5c>)
 800f2c0:	eb02 02c1 	add.w	r2, r2, r1, lsl #3
    l->prev->next = n;
 800f2c4:	6851      	ldr	r1, [r2, #4]
 800f2c6:	600c      	str	r4, [r1, #0]
    n->prev = l->prev;
 800f2c8:	6851      	ldr	r1, [r2, #4]
 800f2ca:	6199      	str	r1, [r3, #24]
    l->prev = n;
 800f2cc:	6054      	str	r4, [r2, #4]
    n->next = l;
 800f2ce:	615a      	str	r2, [r3, #20]
        rt_hw_interrupt_enable(level);
 800f2d0:	f7fe faba 	bl	800d848 <rt_hw_interrupt_enable>
        rt_schedule();
 800f2d4:	f001 fd16 	bl	8010d04 <rt_schedule>
        return RT_EOK;
 800f2d8:	e7e5      	b.n	800f2a6 <rt_thread_yield+0x22>
 800f2da:	bf00      	nop
 800f2dc:	20007c60 	.word	0x20007c60
 800f2e0:	20007b5c 	.word	0x20007b5c

0800f2e4 <rt_thread_suspend>:
{
 800f2e4:	b538      	push	{r3, r4, r5, lr}
    if ((thread->stat & RT_THREAD_STAT_MASK) != RT_THREAD_READY)
 800f2e6:	f890 3034 	ldrb.w	r3, [r0, #52]	; 0x34
 800f2ea:	f003 030f 	and.w	r3, r3, #15
 800f2ee:	2b01      	cmp	r3, #1
 800f2f0:	d117      	bne.n	800f322 <rt_thread_suspend+0x3e>
 800f2f2:	4604      	mov	r4, r0
    temp = rt_hw_interrupt_disable();
 800f2f4:	f7fe faa4 	bl	800d840 <rt_hw_interrupt_disable>
 800f2f8:	4605      	mov	r5, r0
    thread->stat = RT_THREAD_SUSPEND | (thread->stat & ~RT_THREAD_STAT_MASK);
 800f2fa:	f994 3034 	ldrsb.w	r3, [r4, #52]	; 0x34
 800f2fe:	f023 030f 	bic.w	r3, r3, #15
 800f302:	f043 0302 	orr.w	r3, r3, #2
 800f306:	f884 3034 	strb.w	r3, [r4, #52]	; 0x34
    rt_schedule_remove_thread(thread);
 800f30a:	4620      	mov	r0, r4
 800f30c:	f001 fd5c 	bl	8010dc8 <rt_schedule_remove_thread>
    rt_timer_stop(&(thread->thread_timer));
 800f310:	f104 004c 	add.w	r0, r4, #76	; 0x4c
 800f314:	f000 f946 	bl	800f5a4 <rt_timer_stop>
    rt_hw_interrupt_enable(temp);
 800f318:	4628      	mov	r0, r5
 800f31a:	f7fe fa95 	bl	800d848 <rt_hw_interrupt_enable>
    return RT_EOK;
 800f31e:	2000      	movs	r0, #0
}
 800f320:	bd38      	pop	{r3, r4, r5, pc}
        return -RT_ERROR;
 800f322:	f04f 30ff 	mov.w	r0, #4294967295
 800f326:	e7fb      	b.n	800f320 <rt_thread_suspend+0x3c>

0800f328 <rt_thread_sleep>:
{
 800f328:	b5f0      	push	{r4, r5, r6, r7, lr}
 800f32a:	b083      	sub	sp, #12
 800f32c:	ad02      	add	r5, sp, #8
 800f32e:	f845 0d04 	str.w	r0, [r5, #-4]!
    temp = rt_hw_interrupt_disable();
 800f332:	f7fe fa85 	bl	800d840 <rt_hw_interrupt_disable>
 800f336:	4607      	mov	r7, r0
    thread = rt_current_thread;
 800f338:	4b0e      	ldr	r3, [pc, #56]	; (800f374 <rt_thread_sleep+0x4c>)
 800f33a:	681c      	ldr	r4, [r3, #0]
    rt_thread_suspend(thread);
 800f33c:	4620      	mov	r0, r4
 800f33e:	f7ff ffd1 	bl	800f2e4 <rt_thread_suspend>
    rt_timer_control(&(thread->thread_timer), RT_TIMER_CTRL_SET_TIME, &tick);
 800f342:	f104 064c 	add.w	r6, r4, #76	; 0x4c
 800f346:	462a      	mov	r2, r5
 800f348:	2100      	movs	r1, #0
 800f34a:	4630      	mov	r0, r6
 800f34c:	f000 f94e 	bl	800f5ec <rt_timer_control>
    rt_timer_start(&(thread->thread_timer));
 800f350:	4630      	mov	r0, r6
 800f352:	f000 f8c7 	bl	800f4e4 <rt_timer_start>
    rt_hw_interrupt_enable(temp);
 800f356:	4638      	mov	r0, r7
 800f358:	f7fe fa76 	bl	800d848 <rt_hw_interrupt_enable>
    rt_schedule();
 800f35c:	f001 fcd2 	bl	8010d04 <rt_schedule>
    if (thread->error == -RT_ETIMEOUT)
 800f360:	6b23      	ldr	r3, [r4, #48]	; 0x30
 800f362:	f113 0f02 	cmn.w	r3, #2
 800f366:	d002      	beq.n	800f36e <rt_thread_sleep+0x46>
}
 800f368:	2000      	movs	r0, #0
 800f36a:	b003      	add	sp, #12
 800f36c:	bdf0      	pop	{r4, r5, r6, r7, pc}
        thread->error = RT_EOK;
 800f36e:	2300      	movs	r3, #0
 800f370:	6323      	str	r3, [r4, #48]	; 0x30
 800f372:	e7f9      	b.n	800f368 <rt_thread_sleep+0x40>
 800f374:	20007c60 	.word	0x20007c60

0800f378 <rt_thread_delay>:
{
 800f378:	b508      	push	{r3, lr}
    return rt_thread_sleep(tick);
 800f37a:	f7ff ffd5 	bl	800f328 <rt_thread_sleep>
}
 800f37e:	bd08      	pop	{r3, pc}

0800f380 <rt_thread_resume>:
{
 800f380:	b538      	push	{r3, r4, r5, lr}
    if ((thread->stat & RT_THREAD_STAT_MASK) != RT_THREAD_SUSPEND)
 800f382:	f890 3034 	ldrb.w	r3, [r0, #52]	; 0x34
 800f386:	f003 030f 	and.w	r3, r3, #15
 800f38a:	2b02      	cmp	r3, #2
 800f38c:	d119      	bne.n	800f3c2 <rt_thread_resume+0x42>
 800f38e:	4604      	mov	r4, r0
    temp = rt_hw_interrupt_disable();
 800f390:	f7fe fa56 	bl	800d840 <rt_hw_interrupt_disable>
 800f394:	4605      	mov	r5, r0
    rt_list_remove(&(thread->tlist));
 800f396:	f104 0314 	add.w	r3, r4, #20
    n->next->prev = n->prev;
 800f39a:	6962      	ldr	r2, [r4, #20]
 800f39c:	69a1      	ldr	r1, [r4, #24]
 800f39e:	6051      	str	r1, [r2, #4]
    n->prev->next = n->next;
 800f3a0:	69a2      	ldr	r2, [r4, #24]
 800f3a2:	6961      	ldr	r1, [r4, #20]
 800f3a4:	6011      	str	r1, [r2, #0]
    n->next = n->prev = n;
 800f3a6:	61a3      	str	r3, [r4, #24]
 800f3a8:	6163      	str	r3, [r4, #20]
    rt_timer_stop(&thread->thread_timer);
 800f3aa:	f104 004c 	add.w	r0, r4, #76	; 0x4c
 800f3ae:	f000 f8f9 	bl	800f5a4 <rt_timer_stop>
    rt_hw_interrupt_enable(temp);
 800f3b2:	4628      	mov	r0, r5
 800f3b4:	f7fe fa48 	bl	800d848 <rt_hw_interrupt_enable>
    rt_schedule_insert_thread(thread);
 800f3b8:	4620      	mov	r0, r4
 800f3ba:	f001 fcdf 	bl	8010d7c <rt_schedule_insert_thread>
    return RT_EOK;
 800f3be:	2000      	movs	r0, #0
}
 800f3c0:	bd38      	pop	{r3, r4, r5, pc}
        return -RT_ERROR;
 800f3c2:	f04f 30ff 	mov.w	r0, #4294967295
 800f3c6:	e7fb      	b.n	800f3c0 <rt_thread_resume+0x40>

0800f3c8 <rt_thread_startup>:
{
 800f3c8:	b508      	push	{r3, lr}
    thread->current_priority = thread->init_priority;
 800f3ca:	f890 1036 	ldrb.w	r1, [r0, #54]	; 0x36
 800f3ce:	f880 1035 	strb.w	r1, [r0, #53]	; 0x35
    thread->number_mask = 1L << thread->current_priority;
 800f3d2:	2201      	movs	r2, #1
 800f3d4:	408a      	lsls	r2, r1
 800f3d6:	6382      	str	r2, [r0, #56]	; 0x38
    thread->stat = RT_THREAD_SUSPEND;
 800f3d8:	2202      	movs	r2, #2
 800f3da:	f880 2034 	strb.w	r2, [r0, #52]	; 0x34
    rt_thread_resume(thread);
 800f3de:	f7ff ffcf 	bl	800f380 <rt_thread_resume>
    if (rt_thread_self() != RT_NULL)
 800f3e2:	f7ff fed1 	bl	800f188 <rt_thread_self>
 800f3e6:	b108      	cbz	r0, 800f3ec <rt_thread_startup+0x24>
        rt_schedule();
 800f3e8:	f001 fc8c 	bl	8010d04 <rt_schedule>
}
 800f3ec:	2000      	movs	r0, #0
 800f3ee:	bd08      	pop	{r3, pc}

0800f3f0 <rt_thread_control>:
{
 800f3f0:	b570      	push	{r4, r5, r6, lr}
 800f3f2:	4604      	mov	r4, r0
    switch (cmd)
 800f3f4:	2901      	cmp	r1, #1
 800f3f6:	d029      	beq.n	800f44c <rt_thread_control+0x5c>
 800f3f8:	4615      	mov	r5, r2
 800f3fa:	2902      	cmp	r1, #2
 800f3fc:	d002      	beq.n	800f404 <rt_thread_control+0x14>
 800f3fe:	b311      	cbz	r1, 800f446 <rt_thread_control+0x56>
    return RT_EOK;
 800f400:	2000      	movs	r0, #0
 800f402:	e012      	b.n	800f42a <rt_thread_control+0x3a>
        temp = rt_hw_interrupt_disable();
 800f404:	f7fe fa1c 	bl	800d840 <rt_hw_interrupt_disable>
 800f408:	4606      	mov	r6, r0
        if ((thread->stat & RT_THREAD_STAT_MASK) == RT_THREAD_READY)
 800f40a:	f894 3034 	ldrb.w	r3, [r4, #52]	; 0x34
 800f40e:	f003 030f 	and.w	r3, r3, #15
 800f412:	2b01      	cmp	r3, #1
 800f414:	d00a      	beq.n	800f42c <rt_thread_control+0x3c>
            thread->current_priority = *(rt_uint8_t *)arg;
 800f416:	782a      	ldrb	r2, [r5, #0]
 800f418:	f884 2035 	strb.w	r2, [r4, #53]	; 0x35
            thread->number_mask = 1 << thread->current_priority;
 800f41c:	2301      	movs	r3, #1
 800f41e:	4093      	lsls	r3, r2
 800f420:	63a3      	str	r3, [r4, #56]	; 0x38
        rt_hw_interrupt_enable(temp);
 800f422:	4630      	mov	r0, r6
 800f424:	f7fe fa10 	bl	800d848 <rt_hw_interrupt_enable>
    return RT_EOK;
 800f428:	2000      	movs	r0, #0
}
 800f42a:	bd70      	pop	{r4, r5, r6, pc}
            rt_schedule_remove_thread(thread);
 800f42c:	4620      	mov	r0, r4
 800f42e:	f001 fccb 	bl	8010dc8 <rt_schedule_remove_thread>
            thread->current_priority = *(rt_uint8_t *)arg;
 800f432:	782a      	ldrb	r2, [r5, #0]
 800f434:	f884 2035 	strb.w	r2, [r4, #53]	; 0x35
            thread->number_mask = 1 << thread->current_priority;
 800f438:	2301      	movs	r3, #1
 800f43a:	4093      	lsls	r3, r2
 800f43c:	63a3      	str	r3, [r4, #56]	; 0x38
            rt_schedule_insert_thread(thread);
 800f43e:	4620      	mov	r0, r4
 800f440:	f001 fc9c 	bl	8010d7c <rt_schedule_insert_thread>
 800f444:	e7ed      	b.n	800f422 <rt_thread_control+0x32>
        return rt_thread_startup(thread);
 800f446:	f7ff ffbf 	bl	800f3c8 <rt_thread_startup>
 800f44a:	e7ee      	b.n	800f42a <rt_thread_control+0x3a>
        return rt_thread_delete(thread);
 800f44c:	f7ff fef8 	bl	800f240 <rt_thread_delete>
 800f450:	e7eb      	b.n	800f42a <rt_thread_control+0x3a>

0800f452 <_rt_timer_init>:
static void _rt_timer_init(rt_timer_t timer,
                           void (*timeout)(void *parameter),
                           void      *parameter,
                           rt_tick_t  time,
                           rt_uint8_t flag)
{
 800f452:	b410      	push	{r4}

    /* set flag */
    timer->parent.flag  = flag;

    /* set deactivated */
    timer->parent.flag &= ~RT_TIMER_FLAG_ACTIVATED;
 800f454:	f89d 4004 	ldrb.w	r4, [sp, #4]
 800f458:	f024 0401 	bic.w	r4, r4, #1
 800f45c:	7244      	strb	r4, [r0, #9]

    timer->timeout_func = timeout;
 800f45e:	61c1      	str	r1, [r0, #28]
    timer->parameter    = parameter;
 800f460:	6202      	str	r2, [r0, #32]

    timer->timeout_tick = 0;
 800f462:	2200      	movs	r2, #0
 800f464:	6282      	str	r2, [r0, #40]	; 0x28
    timer->init_tick    = time;
 800f466:	6243      	str	r3, [r0, #36]	; 0x24

    /* initialize timer list */
    for (i = 0; i < RT_TIMER_SKIP_LIST_LEVEL; i++)
 800f468:	4613      	mov	r3, r2
 800f46a:	2b00      	cmp	r3, #0
 800f46c:	dd02      	ble.n	800f474 <_rt_timer_init+0x22>
    {
        rt_list_init(&(timer->row[i]));
    }
}
 800f46e:	f85d 4b04 	ldr.w	r4, [sp], #4
 800f472:	4770      	bx	lr
        rt_list_init(&(timer->row[i]));
 800f474:	1c9a      	adds	r2, r3, #2
 800f476:	eb00 02c2 	add.w	r2, r0, r2, lsl #3
 800f47a:	1d11      	adds	r1, r2, #4
    l->next = l->prev = l;
 800f47c:	6091      	str	r1, [r2, #8]
 800f47e:	6051      	str	r1, [r2, #4]
    for (i = 0; i < RT_TIMER_SKIP_LIST_LEVEL; i++)
 800f480:	3301      	adds	r3, #1
 800f482:	e7f2      	b.n	800f46a <_rt_timer_init+0x18>

0800f484 <rt_timer_init>:
                   const char *name,
                   void (*timeout)(void *parameter),
                   void       *parameter,
                   rt_tick_t   time,
                   rt_uint8_t  flag)
{
 800f484:	b570      	push	{r4, r5, r6, lr}
 800f486:	b082      	sub	sp, #8
 800f488:	4604      	mov	r4, r0
 800f48a:	4615      	mov	r5, r2
 800f48c:	461e      	mov	r6, r3
    /* timer check */
    RT_ASSERT(timer != RT_NULL);

    /* timer object initialization */
    rt_object_init((rt_object_t)timer, RT_Object_Class_Timer, name);
 800f48e:	460a      	mov	r2, r1
 800f490:	210a      	movs	r1, #10
 800f492:	f000 fa53 	bl	800f93c <rt_object_init>

    _rt_timer_init(timer, timeout, parameter, time, flag);
 800f496:	f89d 301c 	ldrb.w	r3, [sp, #28]
 800f49a:	9300      	str	r3, [sp, #0]
 800f49c:	9b06      	ldr	r3, [sp, #24]
 800f49e:	4632      	mov	r2, r6
 800f4a0:	4629      	mov	r1, r5
 800f4a2:	4620      	mov	r0, r4
 800f4a4:	f7ff ffd5 	bl	800f452 <_rt_timer_init>
}
 800f4a8:	b002      	add	sp, #8
 800f4aa:	bd70      	pop	{r4, r5, r6, pc}

0800f4ac <rt_timer_detach>:
 * @param timer the static timer object
 *
 * @return the operation status, RT_EOK on OK; RT_ERROR on error
 */
rt_err_t rt_timer_detach(rt_timer_t timer)
{
 800f4ac:	b570      	push	{r4, r5, r6, lr}
 800f4ae:	4604      	mov	r4, r0
    RT_ASSERT(timer != RT_NULL);
    RT_ASSERT(rt_object_get_type(&timer->parent) == RT_Object_Class_Timer);
    RT_ASSERT(rt_object_is_systemobject(&timer->parent));

    /* disable interrupt */
    level = rt_hw_interrupt_disable();
 800f4b0:	f7fe f9c6 	bl	800d840 <rt_hw_interrupt_disable>
    for (i = 0; i < RT_TIMER_SKIP_LIST_LEVEL; i++)
 800f4b4:	2200      	movs	r2, #0
 800f4b6:	2a00      	cmp	r2, #0
 800f4b8:	dd06      	ble.n	800f4c8 <rt_timer_detach+0x1c>

    _rt_timer_remove(timer);

    /* enable interrupt */
    rt_hw_interrupt_enable(level);
 800f4ba:	f7fe f9c5 	bl	800d848 <rt_hw_interrupt_enable>

    rt_object_detach((rt_object_t)timer);
 800f4be:	4620      	mov	r0, r4
 800f4c0:	f000 fa5e 	bl	800f980 <rt_object_detach>

    return RT_EOK;
}
 800f4c4:	2000      	movs	r0, #0
 800f4c6:	bd70      	pop	{r4, r5, r6, pc}
        rt_list_remove(&timer->row[i]);
 800f4c8:	1c93      	adds	r3, r2, #2
 800f4ca:	eb04 03c3 	add.w	r3, r4, r3, lsl #3
 800f4ce:	1d19      	adds	r1, r3, #4
    n->next->prev = n->prev;
 800f4d0:	685d      	ldr	r5, [r3, #4]
 800f4d2:	689e      	ldr	r6, [r3, #8]
 800f4d4:	606e      	str	r6, [r5, #4]
    n->prev->next = n->next;
 800f4d6:	689d      	ldr	r5, [r3, #8]
 800f4d8:	685e      	ldr	r6, [r3, #4]
 800f4da:	602e      	str	r6, [r5, #0]
    n->next = n->prev = n;
 800f4dc:	6099      	str	r1, [r3, #8]
 800f4de:	6059      	str	r1, [r3, #4]
    for (i = 0; i < RT_TIMER_SKIP_LIST_LEVEL; i++)
 800f4e0:	3201      	adds	r2, #1
 800f4e2:	e7e8      	b.n	800f4b6 <rt_timer_detach+0xa>

0800f4e4 <rt_timer_start>:
 * @param timer the timer to be started
 *
 * @return the operation status, RT_EOK on OK, -RT_ERROR on error
 */
rt_err_t rt_timer_start(rt_timer_t timer)
{
 800f4e4:	b570      	push	{r4, r5, r6, lr}
 800f4e6:	b082      	sub	sp, #8
 800f4e8:	4604      	mov	r4, r0
    /* timer check */
    RT_ASSERT(timer != RT_NULL);
    RT_ASSERT(rt_object_get_type(&timer->parent) == RT_Object_Class_Timer);

    /* stop timer firstly */
    level = rt_hw_interrupt_disable();
 800f4ea:	f7fe f9a9 	bl	800d840 <rt_hw_interrupt_disable>
    for (i = 0; i < RT_TIMER_SKIP_LIST_LEVEL; i++)
 800f4ee:	2200      	movs	r2, #0
 800f4f0:	2a00      	cmp	r2, #0
 800f4f2:	dd26      	ble.n	800f542 <rt_timer_start+0x5e>
    /* remove timer from list */
    _rt_timer_remove(timer);
    /* change status of timer */
    timer->parent.flag &= ~RT_TIMER_FLAG_ACTIVATED;
 800f4f4:	7a63      	ldrb	r3, [r4, #9]
 800f4f6:	f023 0301 	bic.w	r3, r3, #1
 800f4fa:	7263      	strb	r3, [r4, #9]
    rt_hw_interrupt_enable(level);
 800f4fc:	f7fe f9a4 	bl	800d848 <rt_hw_interrupt_enable>
    /*
     * get timeout tick,
     * the max timeout tick shall not great than RT_TICK_MAX/2
     */
    RT_ASSERT(timer->init_tick < RT_TICK_MAX / 2);
    timer->timeout_tick = rt_tick_get() + timer->init_tick;
 800f500:	f001 fba6 	bl	8010c50 <rt_tick_get>
 800f504:	6a63      	ldr	r3, [r4, #36]	; 0x24
 800f506:	4418      	add	r0, r3
 800f508:	62a0      	str	r0, [r4, #40]	; 0x28

    /* disable interrupt */
    level = rt_hw_interrupt_disable();
 800f50a:	f7fe f999 	bl	800d840 <rt_hw_interrupt_disable>
    {
        /* insert timer to system timer list */
        timer_list = rt_timer_list;
    }

    row_head[0]  = &timer_list[0];
 800f50e:	4b22      	ldr	r3, [pc, #136]	; (800f598 <rt_timer_start+0xb4>)
 800f510:	9301      	str	r3, [sp, #4]
    for (row_lvl = 0; row_lvl < RT_TIMER_SKIP_LIST_LEVEL; row_lvl++)
 800f512:	2100      	movs	r1, #0
 800f514:	b341      	cbz	r1, 800f568 <rt_timer_start+0x84>

    /* Interestingly, this super simple timer insert counter works very very
     * well on distributing the list height uniformly. By means of "very very
     * well", I mean it beats the randomness of timer->timeout_tick very easily
     * (actually, the timeout_tick is not random and easy to be attacked). */
    random_nr++;
 800f516:	4a21      	ldr	r2, [pc, #132]	; (800f59c <rt_timer_start+0xb8>)
 800f518:	6813      	ldr	r3, [r2, #0]
 800f51a:	3301      	adds	r3, #1
 800f51c:	6013      	str	r3, [r2, #0]
    tst_nr = random_nr;

    rt_list_insert_after(row_head[RT_TIMER_SKIP_LIST_LEVEL - 1],
 800f51e:	9b01      	ldr	r3, [sp, #4]
 800f520:	f104 0214 	add.w	r2, r4, #20
    l->next->prev = n;
 800f524:	6819      	ldr	r1, [r3, #0]
 800f526:	604a      	str	r2, [r1, #4]
    n->next = l->next;
 800f528:	6819      	ldr	r1, [r3, #0]
 800f52a:	6161      	str	r1, [r4, #20]
    l->next = n;
 800f52c:	601a      	str	r2, [r3, #0]
    n->prev = l;
 800f52e:	61a3      	str	r3, [r4, #24]
        /* Shift over the bits we have tested. Works well with 1 bit and 2
         * bits. */
        tst_nr >>= (RT_TIMER_SKIP_LIST_MASK + 1) >> 1;
    }

    timer->parent.flag |= RT_TIMER_FLAG_ACTIVATED;
 800f530:	7a63      	ldrb	r3, [r4, #9]
 800f532:	f043 0301 	orr.w	r3, r3, #1
 800f536:	7263      	strb	r3, [r4, #9]

    /* enable interrupt */
    rt_hw_interrupt_enable(level);
 800f538:	f7fe f986 	bl	800d848 <rt_hw_interrupt_enable>
        }
    }
#endif

    return RT_EOK;
}
 800f53c:	2000      	movs	r0, #0
 800f53e:	b002      	add	sp, #8
 800f540:	bd70      	pop	{r4, r5, r6, pc}
        rt_list_remove(&timer->row[i]);
 800f542:	1c93      	adds	r3, r2, #2
 800f544:	eb04 03c3 	add.w	r3, r4, r3, lsl #3
 800f548:	1d19      	adds	r1, r3, #4
    n->next->prev = n->prev;
 800f54a:	685d      	ldr	r5, [r3, #4]
 800f54c:	689e      	ldr	r6, [r3, #8]
 800f54e:	606e      	str	r6, [r5, #4]
    n->prev->next = n->next;
 800f550:	689d      	ldr	r5, [r3, #8]
 800f552:	685e      	ldr	r6, [r3, #4]
 800f554:	602e      	str	r6, [r5, #0]
    n->next = n->prev = n;
 800f556:	6099      	str	r1, [r3, #8]
 800f558:	6059      	str	r1, [r3, #4]
    for (i = 0; i < RT_TIMER_SKIP_LIST_LEVEL; i++)
 800f55a:	3201      	adds	r2, #1
 800f55c:	e7c8      	b.n	800f4f0 <rt_timer_start+0xc>
             row_head[row_lvl]  = row_head[row_lvl]->next)
 800f55e:	ab02      	add	r3, sp, #8
 800f560:	eb03 0381 	add.w	r3, r3, r1, lsl #2
 800f564:	f843 2c04 	str.w	r2, [r3, #-4]
        for (; row_head[row_lvl] != timer_list[row_lvl].prev;
 800f568:	ab02      	add	r3, sp, #8
 800f56a:	eb03 0381 	add.w	r3, r3, r1, lsl #2
 800f56e:	f853 5c04 	ldr.w	r5, [r3, #-4]
 800f572:	00cb      	lsls	r3, r1, #3
 800f574:	4a08      	ldr	r2, [pc, #32]	; (800f598 <rt_timer_start+0xb4>)
 800f576:	441a      	add	r2, r3
 800f578:	6852      	ldr	r2, [r2, #4]
 800f57a:	4295      	cmp	r5, r2
 800f57c:	d00a      	beq.n	800f594 <rt_timer_start+0xb0>
            rt_list_t *p = row_head[row_lvl]->next;
 800f57e:	682a      	ldr	r2, [r5, #0]
            t = rt_list_entry(p, struct rt_timer, row[row_lvl]);
 800f580:	3314      	adds	r3, #20
 800f582:	1ad3      	subs	r3, r2, r3
            if ((t->timeout_tick - timer->timeout_tick) == 0)
 800f584:	6a9b      	ldr	r3, [r3, #40]	; 0x28
 800f586:	6aa5      	ldr	r5, [r4, #40]	; 0x28
 800f588:	42ab      	cmp	r3, r5
 800f58a:	d0e8      	beq.n	800f55e <rt_timer_start+0x7a>
            else if ((t->timeout_tick - timer->timeout_tick) < RT_TICK_MAX / 2)
 800f58c:	1b5b      	subs	r3, r3, r5
 800f58e:	4d04      	ldr	r5, [pc, #16]	; (800f5a0 <rt_timer_start+0xbc>)
 800f590:	42ab      	cmp	r3, r5
 800f592:	d8e4      	bhi.n	800f55e <rt_timer_start+0x7a>
    for (row_lvl = 0; row_lvl < RT_TIMER_SKIP_LIST_LEVEL; row_lvl++)
 800f594:	3101      	adds	r1, #1
 800f596:	e7bd      	b.n	800f514 <rt_timer_start+0x30>
 800f598:	200040c4 	.word	0x200040c4
 800f59c:	200040c0 	.word	0x200040c0
 800f5a0:	7ffffffe 	.word	0x7ffffffe

0800f5a4 <rt_timer_stop>:

    /* timer check */
    RT_ASSERT(timer != RT_NULL);
    RT_ASSERT(rt_object_get_type(&timer->parent) == RT_Object_Class_Timer);

    if (!(timer->parent.flag & RT_TIMER_FLAG_ACTIVATED))
 800f5a4:	7a43      	ldrb	r3, [r0, #9]
 800f5a6:	f013 0f01 	tst.w	r3, #1
 800f5aa:	d01c      	beq.n	800f5e6 <rt_timer_stop+0x42>
{
 800f5ac:	b570      	push	{r4, r5, r6, lr}
 800f5ae:	4604      	mov	r4, r0
        return -RT_ERROR;

    RT_OBJECT_HOOK_CALL(rt_object_put_hook, (&(timer->parent)));

    /* disable interrupt */
    level = rt_hw_interrupt_disable();
 800f5b0:	f7fe f946 	bl	800d840 <rt_hw_interrupt_disable>
    for (i = 0; i < RT_TIMER_SKIP_LIST_LEVEL; i++)
 800f5b4:	2200      	movs	r2, #0
 800f5b6:	2a00      	cmp	r2, #0
 800f5b8:	dd07      	ble.n	800f5ca <rt_timer_stop+0x26>

    _rt_timer_remove(timer);

    /* enable interrupt */
    rt_hw_interrupt_enable(level);
 800f5ba:	f7fe f945 	bl	800d848 <rt_hw_interrupt_enable>

    /* change stat */
    timer->parent.flag &= ~RT_TIMER_FLAG_ACTIVATED;
 800f5be:	7a63      	ldrb	r3, [r4, #9]
 800f5c0:	f023 0301 	bic.w	r3, r3, #1
 800f5c4:	7263      	strb	r3, [r4, #9]

    return RT_EOK;
 800f5c6:	2000      	movs	r0, #0
}
 800f5c8:	bd70      	pop	{r4, r5, r6, pc}
        rt_list_remove(&timer->row[i]);
 800f5ca:	1c93      	adds	r3, r2, #2
 800f5cc:	eb04 03c3 	add.w	r3, r4, r3, lsl #3
 800f5d0:	1d19      	adds	r1, r3, #4
    n->next->prev = n->prev;
 800f5d2:	685d      	ldr	r5, [r3, #4]
 800f5d4:	689e      	ldr	r6, [r3, #8]
 800f5d6:	606e      	str	r6, [r5, #4]
    n->prev->next = n->next;
 800f5d8:	689d      	ldr	r5, [r3, #8]
 800f5da:	685e      	ldr	r6, [r3, #4]
 800f5dc:	602e      	str	r6, [r5, #0]
    n->next = n->prev = n;
 800f5de:	6099      	str	r1, [r3, #8]
 800f5e0:	6059      	str	r1, [r3, #4]
    for (i = 0; i < RT_TIMER_SKIP_LIST_LEVEL; i++)
 800f5e2:	3201      	adds	r2, #1
 800f5e4:	e7e7      	b.n	800f5b6 <rt_timer_stop+0x12>
        return -RT_ERROR;
 800f5e6:	f04f 30ff 	mov.w	r0, #4294967295
}
 800f5ea:	4770      	bx	lr

0800f5ec <rt_timer_control>:
{
    /* timer check */
    RT_ASSERT(timer != RT_NULL);
    RT_ASSERT(rt_object_get_type(&timer->parent) == RT_Object_Class_Timer);

    switch (cmd)
 800f5ec:	2903      	cmp	r1, #3
 800f5ee:	d805      	bhi.n	800f5fc <rt_timer_control+0x10>
 800f5f0:	e8df f001 	tbb	[pc, r1]
 800f5f4:	0e090206 	.word	0x0e090206
    {
    case RT_TIMER_CTRL_GET_TIME:
        *(rt_tick_t *)arg = timer->init_tick;
 800f5f8:	6a43      	ldr	r3, [r0, #36]	; 0x24
 800f5fa:	6013      	str	r3, [r2, #0]
        timer->parent.flag |= RT_TIMER_FLAG_PERIODIC;
        break;
    }

    return RT_EOK;
}
 800f5fc:	2000      	movs	r0, #0
 800f5fe:	4770      	bx	lr
        timer->init_tick = *(rt_tick_t *)arg;
 800f600:	6813      	ldr	r3, [r2, #0]
 800f602:	6243      	str	r3, [r0, #36]	; 0x24
        break;
 800f604:	e7fa      	b.n	800f5fc <rt_timer_control+0x10>
        timer->parent.flag &= ~RT_TIMER_FLAG_PERIODIC;
 800f606:	7a43      	ldrb	r3, [r0, #9]
 800f608:	f023 0302 	bic.w	r3, r3, #2
 800f60c:	7243      	strb	r3, [r0, #9]
        break;
 800f60e:	e7f5      	b.n	800f5fc <rt_timer_control+0x10>
        timer->parent.flag |= RT_TIMER_FLAG_PERIODIC;
 800f610:	7a43      	ldrb	r3, [r0, #9]
 800f612:	f043 0302 	orr.w	r3, r3, #2
 800f616:	7243      	strb	r3, [r0, #9]
        break;
 800f618:	e7f0      	b.n	800f5fc <rt_timer_control+0x10>
	...

0800f61c <rt_timer_check>:
 * corresponding timeout function will be invoked.
 *
 * @note this function shall be invoked in operating system timer interrupt.
 */
void rt_timer_check(void)
{
 800f61c:	b5f8      	push	{r3, r4, r5, r6, r7, lr}
    rt_tick_t current_tick;
    register rt_base_t level;

    RT_DEBUG_LOG(RT_DEBUG_TIMER, ("timer check enter\n"));

    current_tick = rt_tick_get();
 800f61e:	f001 fb17 	bl	8010c50 <rt_tick_get>
 800f622:	4607      	mov	r7, r0

    /* disable interrupt */
    level = rt_hw_interrupt_disable();
 800f624:	f7fe f90c 	bl	800d840 <rt_hw_interrupt_disable>
 800f628:	4605      	mov	r5, r0
 * @brief tests whether a list is empty
 * @param l the list to test.
 */
rt_inline int rt_list_isempty(const rt_list_t *l)
{
    return l->next == l;
 800f62a:	4b21      	ldr	r3, [pc, #132]	; (800f6b0 <rt_timer_check+0x94>)
 800f62c:	681c      	ldr	r4, [r3, #0]

    while (!rt_list_isempty(&rt_timer_list[RT_TIMER_SKIP_LIST_LEVEL - 1]))
 800f62e:	429c      	cmp	r4, r3
 800f630:	d103      	bne.n	800f63a <rt_timer_check+0x1e>
        else
            break;
    }

    /* enable interrupt */
    rt_hw_interrupt_enable(level);
 800f632:	4628      	mov	r0, r5
 800f634:	f7fe f908 	bl	800d848 <rt_hw_interrupt_enable>

    RT_DEBUG_LOG(RT_DEBUG_TIMER, ("timer check leave\n"));
}
 800f638:	bdf8      	pop	{r3, r4, r5, r6, r7, pc}
        t = rt_list_entry(rt_timer_list[RT_TIMER_SKIP_LIST_LEVEL - 1].next,
 800f63a:	f1a4 0614 	sub.w	r6, r4, #20
        if ((current_tick - t->timeout_tick) < RT_TICK_MAX / 2)
 800f63e:	6963      	ldr	r3, [r4, #20]
 800f640:	1aff      	subs	r7, r7, r3
 800f642:	4b1c      	ldr	r3, [pc, #112]	; (800f6b4 <rt_timer_check+0x98>)
 800f644:	429f      	cmp	r7, r3
 800f646:	d8f4      	bhi.n	800f632 <rt_timer_check+0x16>
    for (i = 0; i < RT_TIMER_SKIP_LIST_LEVEL; i++)
 800f648:	2100      	movs	r1, #0
 800f64a:	2900      	cmp	r1, #0
 800f64c:	dd10      	ble.n	800f670 <rt_timer_check+0x54>
            t->timeout_func(t->parameter);
 800f64e:	68a3      	ldr	r3, [r4, #8]
 800f650:	68e0      	ldr	r0, [r4, #12]
 800f652:	4798      	blx	r3
            current_tick = rt_tick_get();
 800f654:	f001 fafc 	bl	8010c50 <rt_tick_get>
 800f658:	4607      	mov	r7, r0
            if ((t->parent.flag & RT_TIMER_FLAG_PERIODIC) &&
 800f65a:	f814 3c0b 	ldrb.w	r3, [r4, #-11]
 800f65e:	f003 0203 	and.w	r2, r3, #3
 800f662:	2a03      	cmp	r2, #3
 800f664:	d01b      	beq.n	800f69e <rt_timer_check+0x82>
                t->parent.flag &= ~RT_TIMER_FLAG_ACTIVATED;
 800f666:	f023 0301 	bic.w	r3, r3, #1
 800f66a:	f804 3c0b 	strb.w	r3, [r4, #-11]
 800f66e:	e7dc      	b.n	800f62a <rt_timer_check+0xe>
        rt_list_remove(&timer->row[i]);
 800f670:	f1a4 0214 	sub.w	r2, r4, #20
 800f674:	1c8b      	adds	r3, r1, #2
 800f676:	00db      	lsls	r3, r3, #3
 800f678:	441a      	add	r2, r3
 800f67a:	3204      	adds	r2, #4
    n->next->prev = n->prev;
 800f67c:	4423      	add	r3, r4
 800f67e:	f853 0c10 	ldr.w	r0, [r3, #-16]
 800f682:	f853 7c0c 	ldr.w	r7, [r3, #-12]
 800f686:	6047      	str	r7, [r0, #4]
    n->prev->next = n->next;
 800f688:	f853 0c0c 	ldr.w	r0, [r3, #-12]
 800f68c:	f853 7c10 	ldr.w	r7, [r3, #-16]
 800f690:	6007      	str	r7, [r0, #0]
    n->next = n->prev = n;
 800f692:	f843 2c0c 	str.w	r2, [r3, #-12]
 800f696:	f843 2c10 	str.w	r2, [r3, #-16]
    for (i = 0; i < RT_TIMER_SKIP_LIST_LEVEL; i++)
 800f69a:	3101      	adds	r1, #1
 800f69c:	e7d5      	b.n	800f64a <rt_timer_check+0x2e>
                t->parent.flag &= ~RT_TIMER_FLAG_ACTIVATED;
 800f69e:	f023 0301 	bic.w	r3, r3, #1
 800f6a2:	f804 3c0b 	strb.w	r3, [r4, #-11]
                rt_timer_start(t);
 800f6a6:	4630      	mov	r0, r6
 800f6a8:	f7ff ff1c 	bl	800f4e4 <rt_timer_start>
 800f6ac:	e7bd      	b.n	800f62a <rt_timer_check+0xe>
 800f6ae:	bf00      	nop
 800f6b0:	200040c4 	.word	0x200040c4
 800f6b4:	7ffffffe 	.word	0x7ffffffe

0800f6b8 <rt_system_timer_init>:
 */
void rt_system_timer_init(void)
{
    int i;

    for (i = 0; i < sizeof(rt_timer_list) / sizeof(rt_timer_list[0]); i++)
 800f6b8:	2300      	movs	r3, #0
 800f6ba:	b103      	cbz	r3, 800f6be <rt_system_timer_init+0x6>
    {
        rt_list_init(rt_timer_list + i);
    }
}
 800f6bc:	4770      	bx	lr
        rt_list_init(rt_timer_list + i);
 800f6be:	4904      	ldr	r1, [pc, #16]	; (800f6d0 <rt_system_timer_init+0x18>)
 800f6c0:	eb01 02c3 	add.w	r2, r1, r3, lsl #3
    l->next = l->prev = l;
 800f6c4:	6052      	str	r2, [r2, #4]
 800f6c6:	f841 2033 	str.w	r2, [r1, r3, lsl #3]
    for (i = 0; i < sizeof(rt_timer_list) / sizeof(rt_timer_list[0]); i++)
 800f6ca:	3301      	adds	r3, #1
 800f6cc:	e7f5      	b.n	800f6ba <rt_system_timer_init+0x2>
 800f6ce:	bf00      	nop
 800f6d0:	200040c4 	.word	0x200040c4

0800f6d4 <SystemCoreClockUpdate>:
void SystemCoreClockUpdate(void)
{
  uint32_t tmp = 0U, msirange = 0U, pllvco = 0U, pllr = 2U, pllsource = 0U, pllm = 2U;

  /* Get MSI Range frequency--------------------------------------------------*/
  if((RCC->CR & RCC_CR_MSIRGSEL) == RESET)
 800f6d4:	4b2f      	ldr	r3, [pc, #188]	; (800f794 <SystemCoreClockUpdate+0xc0>)
 800f6d6:	681b      	ldr	r3, [r3, #0]
 800f6d8:	f013 0f08 	tst.w	r3, #8
 800f6dc:	d116      	bne.n	800f70c <SystemCoreClockUpdate+0x38>
  { /* MSISRANGE from RCC_CSR applies */
    msirange = (RCC->CSR & RCC_CSR_MSISRANGE) >> 8U;
 800f6de:	4b2d      	ldr	r3, [pc, #180]	; (800f794 <SystemCoreClockUpdate+0xc0>)
 800f6e0:	f8d3 3094 	ldr.w	r3, [r3, #148]	; 0x94
 800f6e4:	f3c3 2303 	ubfx	r3, r3, #8, #4
  else
  { /* MSIRANGE from RCC_CR applies */
    msirange = (RCC->CR & RCC_CR_MSIRANGE) >> 4U;
  }
  /*MSI frequency range in HZ*/
  msirange = MSIRangeTable[msirange];
 800f6e8:	4a2b      	ldr	r2, [pc, #172]	; (800f798 <SystemCoreClockUpdate+0xc4>)
 800f6ea:	f852 1023 	ldr.w	r1, [r2, r3, lsl #2]

  /* Get SYSCLK source -------------------------------------------------------*/
  switch (RCC->CFGR & RCC_CFGR_SWS)
 800f6ee:	4a29      	ldr	r2, [pc, #164]	; (800f794 <SystemCoreClockUpdate+0xc0>)
 800f6f0:	6893      	ldr	r3, [r2, #8]
 800f6f2:	f003 030c 	and.w	r3, r3, #12
 800f6f6:	2b0c      	cmp	r3, #12
 800f6f8:	d848      	bhi.n	800f78c <SystemCoreClockUpdate+0xb8>
 800f6fa:	e8df f003 	tbb	[pc, r3]
 800f6fe:	470c      	.short	0x470c
 800f700:	47194747 	.word	0x47194747
 800f704:	471d4747 	.word	0x471d4747
 800f708:	4747      	.short	0x4747
 800f70a:	21          	.byte	0x21
 800f70b:	00          	.byte	0x00
    msirange = (RCC->CR & RCC_CR_MSIRANGE) >> 4U;
 800f70c:	4b21      	ldr	r3, [pc, #132]	; (800f794 <SystemCoreClockUpdate+0xc0>)
 800f70e:	681b      	ldr	r3, [r3, #0]
 800f710:	f3c3 1303 	ubfx	r3, r3, #4, #4
 800f714:	e7e8      	b.n	800f6e8 <SystemCoreClockUpdate+0x14>
  {
    case 0x00:  /* MSI used as system clock source */
      SystemCoreClock = msirange;
 800f716:	4b21      	ldr	r3, [pc, #132]	; (800f79c <SystemCoreClockUpdate+0xc8>)
 800f718:	6019      	str	r1, [r3, #0]
      SystemCoreClock = msirange;
      break;
  }
  /* Compute HCLK clock frequency --------------------------------------------*/
  /* Get HCLK prescaler */
  tmp = AHBPrescTable[((RCC->CFGR & RCC_CFGR_HPRE) >> 4U)];
 800f71a:	4b1e      	ldr	r3, [pc, #120]	; (800f794 <SystemCoreClockUpdate+0xc0>)
 800f71c:	689b      	ldr	r3, [r3, #8]
 800f71e:	f3c3 1303 	ubfx	r3, r3, #4, #4
 800f722:	4a1f      	ldr	r2, [pc, #124]	; (800f7a0 <SystemCoreClockUpdate+0xcc>)
 800f724:	5cd1      	ldrb	r1, [r2, r3]
  /* HCLK clock frequency */
  SystemCoreClock >>= tmp;
 800f726:	4a1d      	ldr	r2, [pc, #116]	; (800f79c <SystemCoreClockUpdate+0xc8>)
 800f728:	6813      	ldr	r3, [r2, #0]
 800f72a:	40cb      	lsrs	r3, r1
 800f72c:	6013      	str	r3, [r2, #0]
}
 800f72e:	4770      	bx	lr
      SystemCoreClock = HSI_VALUE;
 800f730:	4b1a      	ldr	r3, [pc, #104]	; (800f79c <SystemCoreClockUpdate+0xc8>)
 800f732:	4a1c      	ldr	r2, [pc, #112]	; (800f7a4 <SystemCoreClockUpdate+0xd0>)
 800f734:	601a      	str	r2, [r3, #0]
      break;
 800f736:	e7f0      	b.n	800f71a <SystemCoreClockUpdate+0x46>
      SystemCoreClock = HSE_VALUE;
 800f738:	4b18      	ldr	r3, [pc, #96]	; (800f79c <SystemCoreClockUpdate+0xc8>)
 800f73a:	4a1b      	ldr	r2, [pc, #108]	; (800f7a8 <SystemCoreClockUpdate+0xd4>)
 800f73c:	601a      	str	r2, [r3, #0]
      break;
 800f73e:	e7ec      	b.n	800f71a <SystemCoreClockUpdate+0x46>
      pllsource = (RCC->PLLCFGR & RCC_PLLCFGR_PLLSRC);
 800f740:	4b14      	ldr	r3, [pc, #80]	; (800f794 <SystemCoreClockUpdate+0xc0>)
 800f742:	68da      	ldr	r2, [r3, #12]
 800f744:	f002 0203 	and.w	r2, r2, #3
      pllm = ((RCC->PLLCFGR & RCC_PLLCFGR_PLLM) >> 4U) + 1U ;
 800f748:	68db      	ldr	r3, [r3, #12]
 800f74a:	f3c3 1302 	ubfx	r3, r3, #4, #3
 800f74e:	3301      	adds	r3, #1
      switch (pllsource)
 800f750:	2a02      	cmp	r2, #2
 800f752:	d004      	beq.n	800f75e <SystemCoreClockUpdate+0x8a>
 800f754:	2a03      	cmp	r2, #3
 800f756:	d015      	beq.n	800f784 <SystemCoreClockUpdate+0xb0>
          pllvco = (msirange / pllm);
 800f758:	fbb1 f3f3 	udiv	r3, r1, r3
          break;
 800f75c:	e002      	b.n	800f764 <SystemCoreClockUpdate+0x90>
          pllvco = (HSI_VALUE / pllm);
 800f75e:	4a11      	ldr	r2, [pc, #68]	; (800f7a4 <SystemCoreClockUpdate+0xd0>)
 800f760:	fbb2 f3f3 	udiv	r3, r2, r3
      pllvco = pllvco * ((RCC->PLLCFGR & RCC_PLLCFGR_PLLN) >> 8U);
 800f764:	490b      	ldr	r1, [pc, #44]	; (800f794 <SystemCoreClockUpdate+0xc0>)
 800f766:	68ca      	ldr	r2, [r1, #12]
 800f768:	f3c2 2206 	ubfx	r2, r2, #8, #7
 800f76c:	fb03 f302 	mul.w	r3, r3, r2
      pllr = (((RCC->PLLCFGR & RCC_PLLCFGR_PLLR) >> 25U) + 1U) * 2U;
 800f770:	68ca      	ldr	r2, [r1, #12]
 800f772:	f3c2 6241 	ubfx	r2, r2, #25, #2
 800f776:	3201      	adds	r2, #1
 800f778:	0052      	lsls	r2, r2, #1
      SystemCoreClock = pllvco/pllr;
 800f77a:	fbb3 f3f2 	udiv	r3, r3, r2
 800f77e:	4a07      	ldr	r2, [pc, #28]	; (800f79c <SystemCoreClockUpdate+0xc8>)
 800f780:	6013      	str	r3, [r2, #0]
      break;
 800f782:	e7ca      	b.n	800f71a <SystemCoreClockUpdate+0x46>
          pllvco = (HSE_VALUE / pllm);
 800f784:	4a08      	ldr	r2, [pc, #32]	; (800f7a8 <SystemCoreClockUpdate+0xd4>)
 800f786:	fbb2 f3f3 	udiv	r3, r2, r3
          break;
 800f78a:	e7eb      	b.n	800f764 <SystemCoreClockUpdate+0x90>
      SystemCoreClock = msirange;
 800f78c:	4b03      	ldr	r3, [pc, #12]	; (800f79c <SystemCoreClockUpdate+0xc8>)
 800f78e:	6019      	str	r1, [r3, #0]
      break;
 800f790:	e7c3      	b.n	800f71a <SystemCoreClockUpdate+0x46>
 800f792:	bf00      	nop
 800f794:	40021000 	.word	0x40021000
 800f798:	08012498 	.word	0x08012498
 800f79c:	20004000 	.word	0x20004000
 800f7a0:	08012488 	.word	0x08012488
 800f7a4:	00f42400 	.word	0x00f42400
 800f7a8:	007a1200 	.word	0x007a1200

0800f7ac <SysClock_Config>:
//函数返回：1：成功；0：失败
//参数说明：msirange：MSI时钟频率等级
//功能概要：初始化时钟频率
//=====================================================================
uint8_t SysClock_Config(uint32_t msirange)
{
 800f7ac:	b082      	sub	sp, #8
  uint32_t vos;
  uint32_t latency = 0;  /* default value 0WS */

  if(READ_BIT(RCC->APB1ENR1, RCC_APB1ENR1_PWREN) != 0U)
 800f7ae:	4b23      	ldr	r3, [pc, #140]	; (800f83c <SysClock_Config+0x90>)
 800f7b0:	6d9b      	ldr	r3, [r3, #88]	; 0x58
 800f7b2:	f013 5f80 	tst.w	r3, #268435456	; 0x10000000
 800f7b6:	d015      	beq.n	800f7e4 <SysClock_Config+0x38>
  {
	vos = (PWR->CR1 & PWR_CR1_VOS);
 800f7b8:	4b21      	ldr	r3, [pc, #132]	; (800f840 <SysClock_Config+0x94>)
 800f7ba:	681b      	ldr	r3, [r3, #0]
 800f7bc:	f403 63c0 	and.w	r3, r3, #1536	; 0x600
		 } while(0);
	vos = (PWR->CR1 & PWR_CR1_VOS);
	CLEAR_BIT(RCC->APB1ENR1, RCC_APB1ENR1_PWREN);
  }

  if(vos == PWR_CR1_VOS_0)
 800f7c0:	f5b3 7f00 	cmp.w	r3, #512	; 0x200
 800f7c4:	d021      	beq.n	800f80a <SysClock_Config+0x5e>
  uint32_t latency = 0;  /* default value 0WS */
 800f7c6:	2100      	movs	r1, #0
	  }
	}
	/* else MSI <= 16Mhz default FLASH_LATENCY_0 0WS */
  }

  MODIFY_REG(FLASH->ACR, FLASH_ACR_LATENCY, (latency));
 800f7c8:	4a1e      	ldr	r2, [pc, #120]	; (800f844 <SysClock_Config+0x98>)
 800f7ca:	6813      	ldr	r3, [r2, #0]
 800f7cc:	f023 0307 	bic.w	r3, r3, #7
 800f7d0:	430b      	orrs	r3, r1
 800f7d2:	6013      	str	r3, [r2, #0]

   /* Check that the new number of wait states is taken into account to access the Flash
      memory by reading the FLASH_ACR register */
   if(READ_BIT(FLASH->ACR, FLASH_ACR_LATENCY) != latency)
 800f7d4:	6813      	ldr	r3, [r2, #0]
 800f7d6:	f003 0307 	and.w	r3, r3, #7
 800f7da:	428b      	cmp	r3, r1
 800f7dc:	d01f      	beq.n	800f81e <SysClock_Config+0x72>
   {
     return 0;
 800f7de:	2000      	movs	r0, #0
   }
   SET_BIT(RCC->CR, RCC_CR_MSIRGSEL);
   	MODIFY_REG(RCC->CR, RCC_CR_MSIRANGE, (0xB0));
   return 1;

}
 800f7e0:	b002      	add	sp, #8
 800f7e2:	4770      	bx	lr
		   SET_BIT(RCC->APB1ENR1, RCC_APB1ENR1_PWREN);
 800f7e4:	4a15      	ldr	r2, [pc, #84]	; (800f83c <SysClock_Config+0x90>)
 800f7e6:	6d93      	ldr	r3, [r2, #88]	; 0x58
 800f7e8:	f043 5380 	orr.w	r3, r3, #268435456	; 0x10000000
 800f7ec:	6593      	str	r3, [r2, #88]	; 0x58
		   tmpreg = READ_BIT(RCC->APB1ENR1, RCC_APB1ENR1_PWREN);
 800f7ee:	6d93      	ldr	r3, [r2, #88]	; 0x58
 800f7f0:	f003 5380 	and.w	r3, r3, #268435456	; 0x10000000
 800f7f4:	9301      	str	r3, [sp, #4]
		   (void)(tmpreg);
 800f7f6:	9b01      	ldr	r3, [sp, #4]
	vos = (PWR->CR1 & PWR_CR1_VOS);
 800f7f8:	4b11      	ldr	r3, [pc, #68]	; (800f840 <SysClock_Config+0x94>)
 800f7fa:	681b      	ldr	r3, [r3, #0]
 800f7fc:	f403 63c0 	and.w	r3, r3, #1536	; 0x600
	CLEAR_BIT(RCC->APB1ENR1, RCC_APB1ENR1_PWREN);
 800f800:	6d91      	ldr	r1, [r2, #88]	; 0x58
 800f802:	f021 5180 	bic.w	r1, r1, #268435456	; 0x10000000
 800f806:	6591      	str	r1, [r2, #88]	; 0x58
 800f808:	e7da      	b.n	800f7c0 <SysClock_Config+0x14>
	if(msirange > RCC_CR_MSIRANGE_8)
 800f80a:	2880      	cmp	r0, #128	; 0x80
 800f80c:	d903      	bls.n	800f816 <SysClock_Config+0x6a>
	  if(msirange > RCC_CR_MSIRANGE_10)
 800f80e:	28a0      	cmp	r0, #160	; 0xa0
 800f810:	d903      	bls.n	800f81a <SysClock_Config+0x6e>
		latency = 2; /* 2WS */
 800f812:	2102      	movs	r1, #2
 800f814:	e7d8      	b.n	800f7c8 <SysClock_Config+0x1c>
  uint32_t latency = 0;  /* default value 0WS */
 800f816:	2100      	movs	r1, #0
 800f818:	e7d6      	b.n	800f7c8 <SysClock_Config+0x1c>
		latency = 1; /* 1WS */
 800f81a:	2101      	movs	r1, #1
 800f81c:	e7d4      	b.n	800f7c8 <SysClock_Config+0x1c>
   SET_BIT(RCC->CR, RCC_CR_MSIRGSEL);
 800f81e:	f5a2 5280 	sub.w	r2, r2, #4096	; 0x1000
 800f822:	6813      	ldr	r3, [r2, #0]
 800f824:	f043 0308 	orr.w	r3, r3, #8
 800f828:	6013      	str	r3, [r2, #0]
   	MODIFY_REG(RCC->CR, RCC_CR_MSIRANGE, (0xB0));
 800f82a:	6813      	ldr	r3, [r2, #0]
 800f82c:	f023 03f0 	bic.w	r3, r3, #240	; 0xf0
 800f830:	f043 03b0 	orr.w	r3, r3, #176	; 0xb0
 800f834:	6013      	str	r3, [r2, #0]
   return 1;
 800f836:	2001      	movs	r0, #1
 800f838:	e7d2      	b.n	800f7e0 <SysClock_Config+0x34>
 800f83a:	bf00      	nop
 800f83c:	40021000 	.word	0x40021000
 800f840:	40007000 	.word	0x40007000
 800f844:	40022000 	.word	0x40022000

0800f848 <SystemInit>:
{
 800f848:	b510      	push	{r4, lr}
    SCB->CPACR |= ((3UL << 10*2)|(3UL << 11*2));  /* set CP10 and CP11 Full Access */
 800f84a:	4c11      	ldr	r4, [pc, #68]	; (800f890 <SystemInit+0x48>)
 800f84c:	f8d4 3088 	ldr.w	r3, [r4, #136]	; 0x88
 800f850:	f443 0370 	orr.w	r3, r3, #15728640	; 0xf00000
 800f854:	f8c4 3088 	str.w	r3, [r4, #136]	; 0x88
  RCC->CR |= RCC_CR_MSION;
 800f858:	4b0e      	ldr	r3, [pc, #56]	; (800f894 <SystemInit+0x4c>)
 800f85a:	681a      	ldr	r2, [r3, #0]
 800f85c:	f042 0201 	orr.w	r2, r2, #1
 800f860:	601a      	str	r2, [r3, #0]
  RCC->CFGR = 0x00000000U;
 800f862:	2100      	movs	r1, #0
 800f864:	6099      	str	r1, [r3, #8]
  RCC->CR &= 0xEAF6FFFFU;
 800f866:	681a      	ldr	r2, [r3, #0]
 800f868:	f022 52a8 	bic.w	r2, r2, #352321536	; 0x15000000
 800f86c:	f422 2210 	bic.w	r2, r2, #589824	; 0x90000
 800f870:	601a      	str	r2, [r3, #0]
  RCC->PLLCFGR = 0x00001000U;
 800f872:	f44f 5280 	mov.w	r2, #4096	; 0x1000
 800f876:	60da      	str	r2, [r3, #12]
  RCC->CR &= 0xFFFBFFFFU;
 800f878:	681a      	ldr	r2, [r3, #0]
 800f87a:	f422 2280 	bic.w	r2, r2, #262144	; 0x40000
 800f87e:	601a      	str	r2, [r3, #0]
  RCC->CIER = 0x00000000U;
 800f880:	6199      	str	r1, [r3, #24]
  SysClock_Config(0xB0);
 800f882:	20b0      	movs	r0, #176	; 0xb0
 800f884:	f7ff ff92 	bl	800f7ac <SysClock_Config>
  SCB->VTOR = FLASH_BASE | VECT_TAB_OFFSET; /* Vector Table Relocation in Internal FLASH */
 800f888:	f04f 6300 	mov.w	r3, #134217728	; 0x8000000
 800f88c:	60a3      	str	r3, [r4, #8]
}
 800f88e:	bd10      	pop	{r4, pc}
 800f890:	e000ed00 	.word	0xe000ed00
 800f894:	40021000 	.word	0x40021000

0800f898 <thread_SPThread2>:
//参数说明：无
//功能概要：抢夺信号量
//内部调用：无
//======================================================================
void thread_SPThread2()
{
 800f898:	b510      	push	{r4, lr}
    //（1）======申明局部变量===========================================
    int SPcount;      //记录信号量的个数
    uart_send_string(UART_User,(void *)"第一次进入线程2！\n");
 800f89a:	4918      	ldr	r1, [pc, #96]	; (800f8fc <thread_SPThread2+0x64>)
 800f89c:	2002      	movs	r0, #2
 800f89e:	f001 fcf5 	bl	801128c <uart_send_string>
 800f8a2:	e015      	b.n	800f8d0 <thread_SPThread2+0x38>
		if(SPcount==0)
		{
			uart_send_string(UART_User,(void *)"SP个数为0，线程2等待\n");

		}
		rt_sem_take(SP,RT_WAITING_FOREVER); //获取一个信号量
 800f8a4:	4c16      	ldr	r4, [pc, #88]	; (800f900 <thread_SPThread2+0x68>)
 800f8a6:	f04f 31ff 	mov.w	r1, #4294967295
 800f8aa:	6820      	ldr	r0, [r4, #0]
 800f8ac:	f000 fb01 	bl	800feb2 <rt_sem_take>
		SPcount=SP->value;
 800f8b0:	6823      	ldr	r3, [r4, #0]
		//uart_send_string(UART_User,(void *)"线程2获取1个SP，SP还剩%d\n");
		userprintf("线程2获取1个SP，SP还剩%d\n",SPcount);
 800f8b2:	8b99      	ldrh	r1, [r3, #28]
 800f8b4:	4813      	ldr	r0, [pc, #76]	; (800f904 <thread_SPThread2+0x6c>)
 800f8b6:	f7ff fbbb 	bl	800f030 <userprintf>
		delay_ms(2000);
 800f8ba:	f44f 60fa 	mov.w	r0, #2000	; 0x7d0
 800f8be:	f7ff fd5b 	bl	800f378 <rt_thread_delay>
		rt_sem_release(SP);   //释放一个信号量
 800f8c2:	6820      	ldr	r0, [r4, #0]
 800f8c4:	f000 fb5b 	bl	800ff7e <rt_sem_release>
        uart_send_string(UART_User,(void *)"线程2成功释放1个SP\n");
 800f8c8:	490f      	ldr	r1, [pc, #60]	; (800f908 <thread_SPThread2+0x70>)
 800f8ca:	2002      	movs	r0, #2
 800f8cc:	f001 fcde 	bl	801128c <uart_send_string>
		delay_ms(1000);
 800f8d0:	f44f 707a 	mov.w	r0, #1000	; 0x3e8
 800f8d4:	f7ff fd50 	bl	800f378 <rt_thread_delay>
    	SPcount=SP->value;   //获取信号量的值
 800f8d8:	4b09      	ldr	r3, [pc, #36]	; (800f900 <thread_SPThread2+0x68>)
 800f8da:	681b      	ldr	r3, [r3, #0]
 800f8dc:	8b9c      	ldrh	r4, [r3, #28]
		userprintf("当前SP为%d\n",SPcount);
 800f8de:	4621      	mov	r1, r4
 800f8e0:	480a      	ldr	r0, [pc, #40]	; (800f90c <thread_SPThread2+0x74>)
 800f8e2:	f7ff fba5 	bl	800f030 <userprintf>
		uart_send_string(UART_User,(void *)"线程2请求1个SP\n");
 800f8e6:	490a      	ldr	r1, [pc, #40]	; (800f910 <thread_SPThread2+0x78>)
 800f8e8:	2002      	movs	r0, #2
 800f8ea:	f001 fccf 	bl	801128c <uart_send_string>
		if(SPcount==0)
 800f8ee:	2c00      	cmp	r4, #0
 800f8f0:	d1d8      	bne.n	800f8a4 <thread_SPThread2+0xc>
			uart_send_string(UART_User,(void *)"SP个数为0，线程2等待\n");
 800f8f2:	4908      	ldr	r1, [pc, #32]	; (800f914 <thread_SPThread2+0x7c>)
 800f8f4:	2002      	movs	r0, #2
 800f8f6:	f001 fcc9 	bl	801128c <uart_send_string>
 800f8fa:	e7d3      	b.n	800f8a4 <thread_SPThread2+0xc>
 800f8fc:	080124c8 	.word	0x080124c8
 800f900:	20007318 	.word	0x20007318
 800f904:	08012510 	.word	0x08012510
 800f908:	0801252c 	.word	0x0801252c
 800f90c:	080124dc 	.word	0x080124dc
 800f910:	080124e8 	.word	0x080124e8
 800f914:	080124f8 	.word	0x080124f8

0800f918 <rt_object_get_information>:
struct rt_object_information *
rt_object_get_information(enum rt_object_class_type type)
{
    int index;

    for (index = 0; index < RT_Object_Info_Unknown; index ++)
 800f918:	2300      	movs	r3, #0
 800f91a:	2b06      	cmp	r3, #6
 800f91c:	dc09      	bgt.n	800f932 <rt_object_get_information+0x1a>
        if (rt_object_container[index].type == type) return &rt_object_container[index];
 800f91e:	011a      	lsls	r2, r3, #4
 800f920:	4905      	ldr	r1, [pc, #20]	; (800f938 <rt_object_get_information+0x20>)
 800f922:	5c8a      	ldrb	r2, [r1, r2]
 800f924:	4282      	cmp	r2, r0
 800f926:	d001      	beq.n	800f92c <rt_object_get_information+0x14>
    for (index = 0; index < RT_Object_Info_Unknown; index ++)
 800f928:	3301      	adds	r3, #1
 800f92a:	e7f6      	b.n	800f91a <rt_object_get_information+0x2>
        if (rt_object_container[index].type == type) return &rt_object_container[index];
 800f92c:	eb01 1003 	add.w	r0, r1, r3, lsl #4
 800f930:	4770      	bx	lr

    return RT_NULL;
 800f932:	2000      	movs	r0, #0
}
 800f934:	4770      	bx	lr
 800f936:	bf00      	nop
 800f938:	20004004 	.word	0x20004004

0800f93c <rt_object_init>:
 * @param name the object name. In system, the object's name must be unique.
 */
void rt_object_init(struct rt_object         *object,
                    enum rt_object_class_type type,
                    const char               *name)
{
 800f93c:	b5f8      	push	{r3, r4, r5, r6, r7, lr}
 800f93e:	4604      	mov	r4, r0
 800f940:	460e      	mov	r6, r1
 800f942:	4617      	mov	r7, r2
#ifdef RT_USING_MODULE
    struct rt_dlmodule *module = dlmodule_self();
#endif

    /* get object information */
    information = rt_object_get_information(type);
 800f944:	4608      	mov	r0, r1
 800f946:	f7ff ffe7 	bl	800f918 <rt_object_get_information>
 800f94a:	4605      	mov	r5, r0
    RT_ASSERT(information != RT_NULL);

    /* check object type to avoid re-initialization */

    /* enter critical */
    rt_enter_critical();
 800f94c:	f001 fa62 	bl	8010e14 <rt_enter_critical>
//
//        obj = rt_list_entry(node, struct rt_object, list);
//        RT_ASSERT(obj != object);
//    }
    /* leave critical */
    rt_exit_critical();
 800f950:	f001 fa6c 	bl	8010e2c <rt_exit_critical>

    /* initialize object's parameters */
    /* set object type to static */
    object->type = type | RT_Object_Class_Static;
 800f954:	f066 067f 	orn	r6, r6, #127	; 0x7f
 800f958:	7226      	strb	r6, [r4, #8]
    /* copy name */
    rt_strncpy(object->name, name, RT_NAME_MAX);
 800f95a:	2208      	movs	r2, #8
 800f95c:	4639      	mov	r1, r7
 800f95e:	4620      	mov	r0, r4
 800f960:	f000 ff56 	bl	8010810 <rt_strncpy>

    RT_OBJECT_HOOK_CALL(rt_object_attach_hook, (object));

    /* lock interrupt */
    temp = rt_hw_interrupt_disable();
 800f964:	f7fd ff6c 	bl	800d840 <rt_hw_interrupt_disable>
    }
    else
#endif
    {
        /* insert object into information object list */
        rt_list_insert_after(&(information->object_list), &(object->list));
 800f968:	1d2a      	adds	r2, r5, #4
 800f96a:	f104 030c 	add.w	r3, r4, #12
    l->next->prev = n;
 800f96e:	6869      	ldr	r1, [r5, #4]
 800f970:	604b      	str	r3, [r1, #4]
    n->next = l->next;
 800f972:	6869      	ldr	r1, [r5, #4]
 800f974:	60e1      	str	r1, [r4, #12]
    l->next = n;
 800f976:	606b      	str	r3, [r5, #4]
    n->prev = l;
 800f978:	6122      	str	r2, [r4, #16]
    }

    /* unlock interrupt */
    rt_hw_interrupt_enable(temp);
 800f97a:	f7fd ff65 	bl	800d848 <rt_hw_interrupt_enable>
}
 800f97e:	bdf8      	pop	{r3, r4, r5, r6, r7, pc}

0800f980 <rt_object_detach>:
 * and the memory of static object is not freed.
 *
 * @param object the specified object to be detached.
 */
void rt_object_detach(rt_object_t object)
{
 800f980:	b510      	push	{r4, lr}
 800f982:	4604      	mov	r4, r0
    RT_ASSERT(object != RT_NULL);

    RT_OBJECT_HOOK_CALL(rt_object_detach_hook, (object));

    /* reset object type */
    object->type = 0;
 800f984:	2300      	movs	r3, #0
 800f986:	7203      	strb	r3, [r0, #8]

    /* lock interrupt */
    temp = rt_hw_interrupt_disable();
 800f988:	f7fd ff5a 	bl	800d840 <rt_hw_interrupt_disable>

    /* remove from old list */
    rt_list_remove(&(object->list));
 800f98c:	f104 030c 	add.w	r3, r4, #12
    n->next->prev = n->prev;
 800f990:	68e2      	ldr	r2, [r4, #12]
 800f992:	6921      	ldr	r1, [r4, #16]
 800f994:	6051      	str	r1, [r2, #4]
    n->prev->next = n->next;
 800f996:	6922      	ldr	r2, [r4, #16]
 800f998:	68e1      	ldr	r1, [r4, #12]
 800f99a:	6011      	str	r1, [r2, #0]
    n->next = n->prev = n;
 800f99c:	6123      	str	r3, [r4, #16]
 800f99e:	60e3      	str	r3, [r4, #12]

    /* unlock interrupt */
    rt_hw_interrupt_enable(temp);
 800f9a0:	f7fd ff52 	bl	800d848 <rt_hw_interrupt_enable>
}
 800f9a4:	bd10      	pop	{r4, pc}

0800f9a6 <rt_object_allocate>:
 * @param name the object name. In system, the object's name must be unique.
 *
 * @return object
 */
rt_object_t rt_object_allocate(enum rt_object_class_type type, const char *name)
{
 800f9a6:	b5f8      	push	{r3, r4, r5, r6, r7, lr}
 800f9a8:	4607      	mov	r7, r0
 800f9aa:	460e      	mov	r6, r1
#endif

    RT_DEBUG_NOT_IN_INTERRUPT;

    /* get object information */
    information = rt_object_get_information(type);
 800f9ac:	f7ff ffb4 	bl	800f918 <rt_object_get_information>
 800f9b0:	4605      	mov	r5, r0
    RT_ASSERT(information != RT_NULL);

    object = (struct rt_object *)RT_KERNEL_MALLOC(information->object_size);
 800f9b2:	68c0      	ldr	r0, [r0, #12]
 800f9b4:	f002 f82e 	bl	8011a14 <rt_malloc>
    if (object == RT_NULL)
 800f9b8:	b1d8      	cbz	r0, 800f9f2 <rt_object_allocate+0x4c>
 800f9ba:	4604      	mov	r4, r0
        /* no memory can be allocated */
        return RT_NULL;
    }

    /* clean memory data of object */
    rt_memset(object, 0x0, information->object_size);
 800f9bc:	68ea      	ldr	r2, [r5, #12]
 800f9be:	2100      	movs	r1, #0
 800f9c0:	f000 fece 	bl	8010760 <rt_memset>

    /* initialize object's parameters */

    /* set object type */
    object->type = type;
 800f9c4:	7227      	strb	r7, [r4, #8]

    /* set object flag */
    object->flag = 0;
 800f9c6:	2300      	movs	r3, #0
 800f9c8:	7263      	strb	r3, [r4, #9]

    /* copy name */
    rt_strncpy(object->name, name, RT_NAME_MAX);
 800f9ca:	2208      	movs	r2, #8
 800f9cc:	4631      	mov	r1, r6
 800f9ce:	4620      	mov	r0, r4
 800f9d0:	f000 ff1e 	bl	8010810 <rt_strncpy>

    RT_OBJECT_HOOK_CALL(rt_object_attach_hook, (object));

    /* lock interrupt */
    temp = rt_hw_interrupt_disable();
 800f9d4:	f7fd ff34 	bl	800d840 <rt_hw_interrupt_disable>
    }
    else
#endif
    {
        /* insert object into information object list */
        rt_list_insert_after(&(information->object_list), &(object->list));
 800f9d8:	1d2a      	adds	r2, r5, #4
 800f9da:	f104 030c 	add.w	r3, r4, #12
    l->next->prev = n;
 800f9de:	6869      	ldr	r1, [r5, #4]
 800f9e0:	604b      	str	r3, [r1, #4]
    n->next = l->next;
 800f9e2:	6869      	ldr	r1, [r5, #4]
 800f9e4:	60e1      	str	r1, [r4, #12]
    l->next = n;
 800f9e6:	606b      	str	r3, [r5, #4]
    n->prev = l;
 800f9e8:	6122      	str	r2, [r4, #16]
    }

    /* unlock interrupt */
    rt_hw_interrupt_enable(temp);
 800f9ea:	f7fd ff2d 	bl	800d848 <rt_hw_interrupt_enable>

    /* return object */
    return object;
}
 800f9ee:	4620      	mov	r0, r4
 800f9f0:	bdf8      	pop	{r3, r4, r5, r6, r7, pc}
        return RT_NULL;
 800f9f2:	2400      	movs	r4, #0
 800f9f4:	e7fb      	b.n	800f9ee <rt_object_allocate+0x48>

0800f9f6 <rt_object_delete>:
 * This function will delete an object and release object memory.
 *
 * @param object the specified object to be deleted.
 */
void rt_object_delete(rt_object_t object)
{
 800f9f6:	b510      	push	{r4, lr}
 800f9f8:	4604      	mov	r4, r0
    RT_ASSERT(!(object->type & RT_Object_Class_Static));

    RT_OBJECT_HOOK_CALL(rt_object_detach_hook, (object));

    /* reset object type */
    object->type = 0;
 800f9fa:	2300      	movs	r3, #0
 800f9fc:	7203      	strb	r3, [r0, #8]

    /* lock interrupt */
    temp = rt_hw_interrupt_disable();
 800f9fe:	f7fd ff1f 	bl	800d840 <rt_hw_interrupt_disable>

    /* remove from old list */
    rt_list_remove(&(object->list));
 800fa02:	f104 030c 	add.w	r3, r4, #12
    n->next->prev = n->prev;
 800fa06:	68e2      	ldr	r2, [r4, #12]
 800fa08:	6921      	ldr	r1, [r4, #16]
 800fa0a:	6051      	str	r1, [r2, #4]
    n->prev->next = n->next;
 800fa0c:	6922      	ldr	r2, [r4, #16]
 800fa0e:	68e1      	ldr	r1, [r4, #12]
 800fa10:	6011      	str	r1, [r2, #0]
    n->next = n->prev = n;
 800fa12:	6123      	str	r3, [r4, #16]
 800fa14:	60e3      	str	r3, [r4, #12]

    /* unlock interrupt */
    rt_hw_interrupt_enable(temp);
 800fa16:	f7fd ff17 	bl	800d848 <rt_hw_interrupt_enable>

    /* free the memory of object */
    RT_KERNEL_FREE(object);
 800fa1a:	4620      	mov	r0, r4
 800fa1c:	f002 f888 	bl	8011b30 <rt_free>
}
 800fa20:	bd10      	pop	{r4, pc}

0800fa22 <rt_object_is_systemobject>:
rt_bool_t rt_object_is_systemobject(rt_object_t object)
{
    /* object check */
    RT_ASSERT(object != RT_NULL);

    if (object->type & RT_Object_Class_Static)
 800fa22:	f990 3008 	ldrsb.w	r3, [r0, #8]
 800fa26:	2b00      	cmp	r3, #0
 800fa28:	db01      	blt.n	800fa2e <rt_object_is_systemobject+0xc>
        return RT_TRUE;

    return RT_FALSE;
 800fa2a:	2000      	movs	r0, #0
}
 800fa2c:	4770      	bx	lr
        return RT_TRUE;
 800fa2e:	2001      	movs	r0, #1
 800fa30:	4770      	bx	lr
	...

0800fa34 <main>:
//声明使用到的内部函数
//main.c使用的内部函数声明处
//----------------------------------------------------------------------
//主函数，一般情况下可以认为程序从此开始运行（实际上有启动过程，参见书稿）
int main(void)
{
 800fa34:	b508      	push	{r3, lr}
	OS_start(app_init);  //启动RTOS并执行主线程
 800fa36:	4802      	ldr	r0, [pc, #8]	; (800fa40 <main+0xc>)
 800fa38:	f000 f82b 	bl	800fa92 <OS_start>
}
 800fa3c:	2000      	movs	r0, #0
 800fa3e:	bd08      	pop	{r3, pc}
 800fa40:	080114c1 	.word	0x080114c1

0800fa44 <rt_application_init>:
//函数返回：无
//参数说明：无
//功能概要：创建主线程，并将其加入线程就绪列表，等待调度器启动后调度主线程运行
//=========================================================================
void rt_application_init(void (*func)(void))
{
 800fa44:	b500      	push	{lr}
 800fa46:	b083      	sub	sp, #12
    rt_thread_t tid;

#ifdef RT_USING_HEAP
    //（1）创建主线程，并为其分配运行所需资源
    tid = rt_thread_create("main", (void *)func, RT_NULL,
 800fa48:	2314      	movs	r3, #20
 800fa4a:	9301      	str	r3, [sp, #4]
 800fa4c:	230a      	movs	r3, #10
 800fa4e:	9300      	str	r3, [sp, #0]
 800fa50:	f44f 7300 	mov.w	r3, #512	; 0x200
 800fa54:	2200      	movs	r2, #0
 800fa56:	4601      	mov	r1, r0
 800fa58:	4803      	ldr	r0, [pc, #12]	; (800fa68 <rt_application_init+0x24>)
 800fa5a:	f7ff fbc7 	bl	800f1ec <rt_thread_create>

    /* if not define RT_USING_HEAP, using to eliminate the warning */
    (void)result;
#endif
    //（2）将主线程加入线程就绪列表，等待调度器启动后运行
    rt_thread_startup(tid);
 800fa5e:	f7ff fcb3 	bl	800f3c8 <rt_thread_startup>
}
 800fa62:	b003      	add	sp, #12
 800fa64:	f85d fb04 	ldr.w	pc, [sp], #4
 800fa68:	08012540 	.word	0x08012540

0800fa6c <rtthread_startup>:
{
 800fa6c:	b510      	push	{r4, lr}
 800fa6e:	4604      	mov	r4, r0
    rt_hw_interrupt_disable(); //关中断
 800fa70:	f7fd fee6 	bl	800d840 <rt_hw_interrupt_disable>
    rt_hw_board_init();
 800fa74:	f001 fa3e 	bl	8010ef4 <rt_hw_board_init>
    rt_system_timer_init();
 800fa78:	f7ff fe1e 	bl	800f6b8 <rt_system_timer_init>
    rt_system_scheduler_init();
 800fa7c:	f001 f904 	bl	8010c88 <rt_system_scheduler_init>
    rt_application_init((void *)func);
 800fa80:	4620      	mov	r0, r4
 800fa82:	f7ff ffdf 	bl	800fa44 <rt_application_init>
    rt_thread_idle_init();
 800fa86:	f001 fcfb 	bl	8011480 <rt_thread_idle_init>
    rt_system_scheduler_start();
 800fa8a:	f001 f923 	bl	8010cd4 <rt_system_scheduler_start>
}
 800fa8e:	2000      	movs	r0, #0
 800fa90:	bd10      	pop	{r4, pc}

0800fa92 <OS_start>:
{
 800fa92:	b508      	push	{r3, lr}
	rtthread_startup((void *)func);  //启动RTOS并执行主线程app_init
 800fa94:	f7ff ffea 	bl	800fa6c <rtthread_startup>
}
 800fa98:	bd08      	pop	{r3, pc}
	...

0800fa9c <thread_SPThread3>:
//参数说明：无
//功能概要：抢夺信号量
//内部调用：无
//======================================================================
void thread_SPThread3()
{
 800fa9c:	b510      	push	{r4, lr}
    //（1）======申明局部变量===========================================
    int SPcount;      //记录信号量的个数
    uart_send_string(UART_User,(void *)"第一次进入线程3！\n");
 800fa9e:	4922      	ldr	r1, [pc, #136]	; (800fb28 <thread_SPThread3+0x8c>)
 800faa0:	2002      	movs	r0, #2
 800faa2:	f001 fbf3 	bl	801128c <uart_send_string>
	gpio_init(LIGHT_RED,GPIO_OUTPUT,LIGHT_OFF);
 800faa6:	2201      	movs	r2, #1
 800faa8:	4611      	mov	r1, r2
 800faaa:	f240 1007 	movw	r0, #263	; 0x107
 800faae:	f000 f983 	bl	800fdb8 <gpio_init>
 800fab2:	e01d      	b.n	800faf0 <thread_SPThread3+0x54>
		if(SPcount==0)
		{
			uart_send_string(UART_User,(void *)"SP个数为0，线程3等待\n");

		}
		rt_sem_take(SP,RT_WAITING_FOREVER); //获取一个信号量
 800fab4:	4c1d      	ldr	r4, [pc, #116]	; (800fb2c <thread_SPThread3+0x90>)
 800fab6:	f04f 31ff 	mov.w	r1, #4294967295
 800faba:	6820      	ldr	r0, [r4, #0]
 800fabc:	f000 f9f9 	bl	800feb2 <rt_sem_take>
		SPcount=SP->value;                 //获取信号量的值
 800fac0:	6823      	ldr	r3, [r4, #0]
		//uart_send_string(UART_User,(void *)"线程3获取1个SP，SP还剩%d\n",SPcount);
		userprintf("线程3获取1个SP，SP还剩%d\n",SPcount);
 800fac2:	8b99      	ldrh	r1, [r3, #28]
 800fac4:	481a      	ldr	r0, [pc, #104]	; (800fb30 <thread_SPThread3+0x94>)
 800fac6:	f7ff fab3 	bl	800f030 <userprintf>
		delay_ms(3000);
 800faca:	f640 30b8 	movw	r0, #3000	; 0xbb8
 800face:	f7ff fc53 	bl	800f378 <rt_thread_delay>
	    uart_send_string(UART_User,(void *)"转换红灯状态\n");
 800fad2:	4918      	ldr	r1, [pc, #96]	; (800fb34 <thread_SPThread3+0x98>)
 800fad4:	2002      	movs	r0, #2
 800fad6:	f001 fbd9 	bl	801128c <uart_send_string>
		gpio_reverse(LIGHT_RED);
 800fada:	f240 1007 	movw	r0, #263	; 0x107
 800fade:	f000 f9a3 	bl	800fe28 <gpio_reverse>
		rt_sem_release(SP);   //释放一个信号量
 800fae2:	6820      	ldr	r0, [r4, #0]
 800fae4:	f000 fa4b 	bl	800ff7e <rt_sem_release>
		uart_send_string(UART_User,(void *)"线程3成功释放1个SP\n");
 800fae8:	4913      	ldr	r1, [pc, #76]	; (800fb38 <thread_SPThread3+0x9c>)
 800faea:	2002      	movs	r0, #2
 800faec:	f001 fbce 	bl	801128c <uart_send_string>
		gpio_init(LIGHT_BLUE,GPIO_OUTPUT,LIGHT_OFF);
 800faf0:	2201      	movs	r2, #1
 800faf2:	4611      	mov	r1, r2
 800faf4:	f240 1009 	movw	r0, #265	; 0x109
 800faf8:	f000 f95e 	bl	800fdb8 <gpio_init>
    	delay_ms(1000);    //延时1秒
 800fafc:	f44f 707a 	mov.w	r0, #1000	; 0x3e8
 800fb00:	f7ff fc3a 	bl	800f378 <rt_thread_delay>
    	SPcount=SP->value; //获取信号量的值
 800fb04:	4b09      	ldr	r3, [pc, #36]	; (800fb2c <thread_SPThread3+0x90>)
 800fb06:	681b      	ldr	r3, [r3, #0]
 800fb08:	8b9c      	ldrh	r4, [r3, #28]
		userprintf("当前SP个数为%d\n",SPcount);
 800fb0a:	4621      	mov	r1, r4
 800fb0c:	480b      	ldr	r0, [pc, #44]	; (800fb3c <thread_SPThread3+0xa0>)
 800fb0e:	f7ff fa8f 	bl	800f030 <userprintf>
    	uart_send_string(UART_User,(void *)"线程3请求1个SP\n");
 800fb12:	490b      	ldr	r1, [pc, #44]	; (800fb40 <thread_SPThread3+0xa4>)
 800fb14:	2002      	movs	r0, #2
 800fb16:	f001 fbb9 	bl	801128c <uart_send_string>
		if(SPcount==0)
 800fb1a:	2c00      	cmp	r4, #0
 800fb1c:	d1ca      	bne.n	800fab4 <thread_SPThread3+0x18>
			uart_send_string(UART_User,(void *)"SP个数为0，线程3等待\n");
 800fb1e:	4909      	ldr	r1, [pc, #36]	; (800fb44 <thread_SPThread3+0xa8>)
 800fb20:	2002      	movs	r0, #2
 800fb22:	f001 fbb3 	bl	801128c <uart_send_string>
 800fb26:	e7c5      	b.n	800fab4 <thread_SPThread3+0x18>
 800fb28:	08012548 	.word	0x08012548
 800fb2c:	20007318 	.word	0x20007318
 800fb30:	08012594 	.word	0x08012594
 800fb34:	080125b0 	.word	0x080125b0
 800fb38:	080125c0 	.word	0x080125c0
 800fb3c:	0801255c 	.word	0x0801255c
 800fb40:	0801256c 	.word	0x0801256c
 800fb44:	0801257c 	.word	0x0801257c

0800fb48 <flash_erase>:
//======================================================================
uint8_t flash_erase(uint16_t sect)
{
	
    //等待之前最后一个flash操作完成
    while( (FLASH->SR & FLASH_SR_BSY) != 0U);
 800fb48:	4b14      	ldr	r3, [pc, #80]	; (800fb9c <flash_erase+0x54>)
 800fb4a:	691b      	ldr	r3, [r3, #16]
 800fb4c:	f413 3f80 	tst.w	r3, #65536	; 0x10000
 800fb50:	d1fa      	bne.n	800fb48 <flash_erase>
    //清除之前的编程导致的所有错误标志位
	FLASH->SR &= 0xFFFFFFUL;
 800fb52:	4b12      	ldr	r3, [pc, #72]	; (800fb9c <flash_erase+0x54>)
 800fb54:	691a      	ldr	r2, [r3, #16]
 800fb56:	f022 427f 	bic.w	r2, r2, #4278190080	; 0xff000000
 800fb5a:	611a      	str	r2, [r3, #16]
    //清闪存即时编程位
    FLASH->CR &= ~FLASH_CR_PG;
 800fb5c:	695a      	ldr	r2, [r3, #20]
 800fb5e:	f022 0201 	bic.w	r2, r2, #1
 800fb62:	615a      	str	r2, [r3, #20]
    
    //使能扇区擦除
    FLASH->CR |= FLASH_CR_PER;
 800fb64:	695a      	ldr	r2, [r3, #20]
 800fb66:	f042 0202 	orr.w	r2, r2, #2
 800fb6a:	615a      	str	r2, [r3, #20]
    //设置擦除的扇区
    FLASH->CR &= ~FLASH_CR_PNB;
 800fb6c:	695a      	ldr	r2, [r3, #20]
 800fb6e:	f422 727e 	bic.w	r2, r2, #1016	; 0x3f8
 800fb72:	615a      	str	r2, [r3, #20]
    FLASH->CR |= (uint32_t)(sect << 3u);
 800fb74:	695a      	ldr	r2, [r3, #20]
 800fb76:	ea42 00c0 	orr.w	r0, r2, r0, lsl #3
 800fb7a:	6158      	str	r0, [r3, #20]
    //开始扇区擦除
    FLASH->CR |= FLASH_CR_STRT;
 800fb7c:	695a      	ldr	r2, [r3, #20]
 800fb7e:	f442 3280 	orr.w	r2, r2, #65536	; 0x10000
 800fb82:	615a      	str	r2, [r3, #20]
    //等待擦除操作完成
    while( (FLASH->SR & FLASH_SR_BSY) != 0U);
 800fb84:	4b05      	ldr	r3, [pc, #20]	; (800fb9c <flash_erase+0x54>)
 800fb86:	691b      	ldr	r3, [r3, #16]
 800fb88:	f413 3f80 	tst.w	r3, #65536	; 0x10000
 800fb8c:	d1fa      	bne.n	800fb84 <flash_erase+0x3c>
    //禁止扇区擦除
    FLASH->CR &= ~FLASH_CR_PER;
 800fb8e:	4a03      	ldr	r2, [pc, #12]	; (800fb9c <flash_erase+0x54>)
 800fb90:	6953      	ldr	r3, [r2, #20]
 800fb92:	f023 0302 	bic.w	r3, r3, #2
 800fb96:	6153      	str	r3, [r2, #20]
    
    return 0;  //成功返回
}
 800fb98:	2000      	movs	r0, #0
 800fb9a:	4770      	bx	lr
 800fb9c:	40022000 	.word	0x40022000

0800fba0 <flash_read_logic>:
//       offset:扇区内部偏移地址（0~2024，要求为0,4,8,12，......）
//       N：读字节数目（4~2048,要求为4,8,12,......）//
//功能概要：读取flash存储器的sect扇区的 offset处开始的N字节，到RAM区dest处
//=======================================================================
void flash_read_logic(uint8_t *dest,uint16_t sect,uint16_t offset,uint16_t N)
{
 800fba0:	b508      	push	{r3, lr}
    uint8_t *src;
    src=(uint8_t *)(FLASH_BASE+sect*FLASH_PAGE_SIZE+offset);
 800fba2:	f501 3180 	add.w	r1, r1, #65536	; 0x10000
 800fba6:	eb02 21c1 	add.w	r1, r2, r1, lsl #11
    memcpy(dest,src,N);
 800fbaa:	461a      	mov	r2, r3
 800fbac:	f002 fb66 	bl	801227c <memcpy>
}
 800fbb0:	bd08      	pop	{r3, pc}

0800fbb2 <flash_read_physical>:
//       addr：目标地址，要求为4的倍数（例如：0x00000004）
//       N：读字节数目（0~1020,要求为4，8,12,......）
//功能概要：读取flash指定地址的内容
//======================================================================
void flash_read_physical(uint8_t *dest,uint32_t addr,uint16_t N)
{
 800fbb2:	b508      	push	{r3, lr}
    uint8_t *src;
    src=(uint8_t *)addr;
    memcpy(dest,src,N);
 800fbb4:	f002 fb62 	bl	801227c <memcpy>
}
 800fbb8:	bd08      	pop	{r3, pc}

0800fbba <flash_isempty>:
//参数说明：所要探测的flash区域初始地址
//功能概要：flash判空操作
//======================================================================

uint8_t flash_isempty(uint16_t sect,uint16_t N)
{
 800fbba:	b5b0      	push	{r4, r5, r7, lr}
 800fbbc:	af00      	add	r7, sp, #0
 800fbbe:	460c      	mov	r4, r1
    uint16_t i,flag;
    uint8_t dest[N];
 800fbc0:	1dcb      	adds	r3, r1, #7
 800fbc2:	08db      	lsrs	r3, r3, #3
 800fbc4:	466a      	mov	r2, sp
 800fbc6:	eba2 03c3 	sub.w	r3, r2, r3, lsl #3
 800fbca:	469d      	mov	sp, r3
 800fbcc:	466d      	mov	r5, sp
    uint8_t *src;
    flag = 1;
    src=(uint8_t *)(FLASH_BASE+sect*FLASH_PAGE_SIZE);
 800fbce:	f500 3180 	add.w	r1, r0, #65536	; 0x10000
    memcpy(dest,src,N);
 800fbd2:	4622      	mov	r2, r4
 800fbd4:	02c9      	lsls	r1, r1, #11
 800fbd6:	4668      	mov	r0, sp
 800fbd8:	f002 fb50 	bl	801227c <memcpy>
    for(i = 0; i<N; i++)   //遍历区域内字节
 800fbdc:	2300      	movs	r3, #0
 800fbde:	42a3      	cmp	r3, r4
 800fbe0:	d205      	bcs.n	800fbee <flash_isempty+0x34>
    {
        if(dest[i]!=0xff)   //非空
 800fbe2:	5cea      	ldrb	r2, [r5, r3]
 800fbe4:	2aff      	cmp	r2, #255	; 0xff
 800fbe6:	d105      	bne.n	800fbf4 <flash_isempty+0x3a>
    for(i = 0; i<N; i++)   //遍历区域内字节
 800fbe8:	3301      	adds	r3, #1
 800fbea:	b29b      	uxth	r3, r3
 800fbec:	e7f7      	b.n	800fbde <flash_isempty+0x24>
    flag = 1;
 800fbee:	2001      	movs	r0, #1
            flag=0;
            break;
        }
    }
    return flag;
}
 800fbf0:	46bd      	mov	sp, r7
 800fbf2:	bdb0      	pop	{r4, r5, r7, pc}
            flag=0;
 800fbf4:	2000      	movs	r0, #0
 800fbf6:	e7fb      	b.n	800fbf0 <flash_isempty+0x36>

0800fbf8 <flash_write_DoubleWord>:
//              （例如：0x08000004，Flash首地址为0x08000000）
//       data：写入的双字
//功能概要：Flash双字写入操作（STM32L433每次只能实现双字写入，先写低位字，再写高位字）
//======================================================================
uint8_t flash_write_DoubleWord(uint32_t addr,uint32_t data_l,uint32_t data_h)
{
 800fbf8:	b410      	push	{r4}
    //清数据缓冲区
    if((FLASH->ACR & FLASH_ACR_DCEN) != 0U)
 800fbfa:	4b0c      	ldr	r3, [pc, #48]	; (800fc2c <flash_write_DoubleWord+0x34>)
 800fbfc:	681b      	ldr	r3, [r3, #0]
 800fbfe:	f413 6f80 	tst.w	r3, #1024	; 0x400
 800fc02:	d004      	beq.n	800fc0e <flash_write_DoubleWord+0x16>
    {
        FLASH->ACR &= ~FLASH_ACR_DCEN;
 800fc04:	4c09      	ldr	r4, [pc, #36]	; (800fc2c <flash_write_DoubleWord+0x34>)
 800fc06:	6823      	ldr	r3, [r4, #0]
 800fc08:	f423 6380 	bic.w	r3, r3, #1024	; 0x400
 800fc0c:	6023      	str	r3, [r4, #0]
    }
    
    //使能Flash即时编程
    FLASH->CR |= FLASH_CR_PG;
 800fc0e:	4b07      	ldr	r3, [pc, #28]	; (800fc2c <flash_write_DoubleWord+0x34>)
 800fc10:	695c      	ldr	r4, [r3, #20]
 800fc12:	f044 0401 	orr.w	r4, r4, #1
 800fc16:	615c      	str	r4, [r3, #20]
    
    //先写入低位字
    *(__IO uint32_t*)addr = data_l;
 800fc18:	6001      	str	r1, [r0, #0]
    
    //再写入高位字
    *(__IO uint32_t*)(addr+4U) = data_h;
 800fc1a:	6042      	str	r2, [r0, #4]
    
    //禁止Flash即时编程
    FLASH->CR &= ~FLASH_CR_PG;
 800fc1c:	695a      	ldr	r2, [r3, #20]
 800fc1e:	f022 0201 	bic.w	r2, r2, #1
 800fc22:	615a      	str	r2, [r3, #20]
    
    return 0;    //返回成功
}
 800fc24:	2000      	movs	r0, #0
 800fc26:	f85d 4b04 	ldr.w	r4, [sp], #4
 800fc2a:	4770      	bx	lr
 800fc2c:	40022000 	.word	0x40022000

0800fc30 <flash_Best>:
//			N：待写入数据字节数
//			buf:待写入数据的首地址
//功能概要：首位地址都对齐的情况下的数据写入
//======================================================================
uint8_t flash_Best(uint16_t sect,uint16_t offset,uint16_t N,uint8_t *buf)
{
 800fc30:	b5f8      	push	{r3, r4, r5, r6, r7, lr}
 800fc32:	4617      	mov	r7, r2
 800fc34:	461d      	mov	r5, r3
    uint32_t temp_l,temp_h;
    uint32_t addr;
    uint16_t i;
    while( (FLASH->SR & FLASH_SR_BSY) != 0U);
 800fc36:	4b18      	ldr	r3, [pc, #96]	; (800fc98 <flash_Best+0x68>)
 800fc38:	691b      	ldr	r3, [r3, #16]
 800fc3a:	f413 3f80 	tst.w	r3, #65536	; 0x10000
 800fc3e:	d1fa      	bne.n	800fc36 <flash_Best+0x6>
    //计算双字写入绝对地址
    addr = (uint32_t)(FLASH_BASE+sect*FLASH_PAGE_SIZE+offset);
 800fc40:	f500 3080 	add.w	r0, r0, #65536	; 0x10000
 800fc44:	eb01 26c0 	add.w	r6, r1, r0, lsl #11
    //循环写入双字，每8个数写一次
    for(i = 0; i < N; i+=8)
 800fc48:	2400      	movs	r4, #0
 800fc4a:	e01b      	b.n	800fc84 <flash_Best+0x54>
    {
        //低位字赋值
        temp_l = (uint32_t)((buf[i])|(buf[i+1]<<8)|(buf[i+2]<<16)|(buf[i+3]<<24));
 800fc4c:	5d28      	ldrb	r0, [r5, r4]
 800fc4e:	192b      	adds	r3, r5, r4
 800fc50:	7859      	ldrb	r1, [r3, #1]
 800fc52:	ea40 2001 	orr.w	r0, r0, r1, lsl #8
 800fc56:	7899      	ldrb	r1, [r3, #2]
 800fc58:	ea40 4001 	orr.w	r0, r0, r1, lsl #16
 800fc5c:	78d9      	ldrb	r1, [r3, #3]
        //高位字赋值
        temp_h = (uint32_t)((buf[i+4])|(buf[i+5]<<8)|(buf[i+6]<<16)|(buf[i+7]<<24));
 800fc5e:	791a      	ldrb	r2, [r3, #4]
 800fc60:	f893 c005 	ldrb.w	ip, [r3, #5]
 800fc64:	ea42 220c 	orr.w	r2, r2, ip, lsl #8
 800fc68:	f893 c006 	ldrb.w	ip, [r3, #6]
 800fc6c:	ea42 420c 	orr.w	r2, r2, ip, lsl #16
 800fc70:	79db      	ldrb	r3, [r3, #7]
        //在绝对地址(addr+i)，实现双字写入
        flash_write_DoubleWord((addr+i),temp_l,temp_h);
 800fc72:	ea42 6203 	orr.w	r2, r2, r3, lsl #24
 800fc76:	ea40 6101 	orr.w	r1, r0, r1, lsl #24
 800fc7a:	19a0      	adds	r0, r4, r6
 800fc7c:	f7ff ffbc 	bl	800fbf8 <flash_write_DoubleWord>
    for(i = 0; i < N; i+=8)
 800fc80:	3408      	adds	r4, #8
 800fc82:	b2a4      	uxth	r4, r4
 800fc84:	42bc      	cmp	r4, r7
 800fc86:	d3e1      	bcc.n	800fc4c <flash_Best+0x1c>
    }
    while( (FLASH->SR & FLASH_SR_BSY) != 0U);
 800fc88:	4b03      	ldr	r3, [pc, #12]	; (800fc98 <flash_Best+0x68>)
 800fc8a:	691b      	ldr	r3, [r3, #16]
 800fc8c:	f413 3f80 	tst.w	r3, #65536	; 0x10000
 800fc90:	d1fa      	bne.n	800fc88 <flash_Best+0x58>
    return 0;
}
 800fc92:	2000      	movs	r0, #0
 800fc94:	bdf8      	pop	{r3, r4, r5, r6, r7, pc}
 800fc96:	bf00      	nop
 800fc98:	40022000 	.word	0x40022000

0800fc9c <flash_write>:
{
 800fc9c:	e92d 41f0 	stmdb	sp!, {r4, r5, r6, r7, r8, lr}
 800fca0:	f5ad 6d00 	sub.w	sp, sp, #2048	; 0x800
 800fca4:	4607      	mov	r7, r0
 800fca6:	4614      	mov	r4, r2
 800fca8:	461d      	mov	r5, r3
	FLASH->SR &= 0xFFFFFFUL;
 800fcaa:	4a22      	ldr	r2, [pc, #136]	; (800fd34 <flash_write+0x98>)
 800fcac:	6913      	ldr	r3, [r2, #16]
 800fcae:	f023 437f 	bic.w	r3, r3, #4278190080	; 0xff000000
 800fcb2:	6113      	str	r3, [r2, #16]
    if(offset+N>MCU_SECTORSIZE)
 800fcb4:	1863      	adds	r3, r4, r1
 800fcb6:	f5b3 6f00 	cmp.w	r3, #2048	; 0x800
 800fcba:	dc09      	bgt.n	800fcd0 <flash_write+0x34>
 800fcbc:	460e      	mov	r6, r1
        flash_read_logic(data,sect,0,MCU_SECTORSIZE); //将当前扇区的全部值读入数组中
 800fcbe:	f44f 6300 	mov.w	r3, #2048	; 0x800
 800fcc2:	2200      	movs	r2, #0
 800fcc4:	4601      	mov	r1, r0
 800fcc6:	4668      	mov	r0, sp
 800fcc8:	f7ff ff6a 	bl	800fba0 <flash_read_logic>
        for(i = 0;i<N;i++)
 800fccc:	2300      	movs	r3, #0
 800fcce:	e01b      	b.n	800fd08 <flash_write+0x6c>
 800fcd0:	4688      	mov	r8, r1
        flash_write(sect,offset,MCU_SECTORSIZE-offset,buf);
 800fcd2:	f5c1 6200 	rsb	r2, r1, #2048	; 0x800
 800fcd6:	462b      	mov	r3, r5
 800fcd8:	b292      	uxth	r2, r2
 800fcda:	f7ff ffdf 	bl	800fc9c <flash_write>
        flash_write(sect+1,0,N-(MCU_SECTORSIZE-offset),buf+(MCU_SECTORSIZE-offset));
 800fcde:	eb08 0204 	add.w	r2, r8, r4
 800fce2:	b292      	uxth	r2, r2
 800fce4:	f5c8 6300 	rsb	r3, r8, #2048	; 0x800
 800fce8:	f5a2 6200 	sub.w	r2, r2, #2048	; 0x800
 800fcec:	1c78      	adds	r0, r7, #1
 800fcee:	442b      	add	r3, r5
 800fcf0:	b292      	uxth	r2, r2
 800fcf2:	2100      	movs	r1, #0
 800fcf4:	b280      	uxth	r0, r0
 800fcf6:	f7ff ffd1 	bl	800fc9c <flash_write>
 800fcfa:	e011      	b.n	800fd20 <flash_write+0x84>
            data[offset+i] = buf[i];
 800fcfc:	199a      	adds	r2, r3, r6
 800fcfe:	5ce9      	ldrb	r1, [r5, r3]
 800fd00:	f80d 1002 	strb.w	r1, [sp, r2]
        for(i = 0;i<N;i++)
 800fd04:	3301      	adds	r3, #1
 800fd06:	b29b      	uxth	r3, r3
 800fd08:	42a3      	cmp	r3, r4
 800fd0a:	d3f7      	bcc.n	800fcfc <flash_write+0x60>
        flash_erase(sect);
 800fd0c:	4638      	mov	r0, r7
 800fd0e:	f7ff ff1b 	bl	800fb48 <flash_erase>
        flash_Best(sect,0,MCU_SECTORSIZE,data);
 800fd12:	466b      	mov	r3, sp
 800fd14:	f44f 6200 	mov.w	r2, #2048	; 0x800
 800fd18:	2100      	movs	r1, #0
 800fd1a:	4638      	mov	r0, r7
 800fd1c:	f7ff ff88 	bl	800fc30 <flash_Best>
	while( (FLASH->SR & FLASH_SR_BSY) != 0U);
 800fd20:	4b04      	ldr	r3, [pc, #16]	; (800fd34 <flash_write+0x98>)
 800fd22:	691b      	ldr	r3, [r3, #16]
 800fd24:	f413 3f80 	tst.w	r3, #65536	; 0x10000
 800fd28:	d1fa      	bne.n	800fd20 <flash_write+0x84>
}
 800fd2a:	2000      	movs	r0, #0
 800fd2c:	f50d 6d00 	add.w	sp, sp, #2048	; 0x800
 800fd30:	e8bd 81f0 	ldmia.w	sp!, {r4, r5, r6, r7, r8, pc}
 800fd34:	40022000 	.word	0x40022000

0800fd38 <flash_write_physical>:
{
 800fd38:	b510      	push	{r4, lr}
 800fd3a:	4603      	mov	r3, r0
    sect = (addr-MCU_FLASH_ADDR_START)/MCU_SECTORSIZE;
 800fd3c:	f3c0 20cf 	ubfx	r0, r0, #11, #16
    offset = addr-(sect*MCU_SECTORSIZE)-MCU_FLASH_ADDR_START;
 800fd40:	b29b      	uxth	r3, r3
 800fd42:	02c4      	lsls	r4, r0, #11
 800fd44:	b2a4      	uxth	r4, r4
 800fd46:	1b1c      	subs	r4, r3, r4
    flash_write(sect,offset,N,buf);
 800fd48:	4613      	mov	r3, r2
 800fd4a:	460a      	mov	r2, r1
 800fd4c:	b2a1      	uxth	r1, r4
 800fd4e:	f7ff ffa5 	bl	800fc9c <flash_write>
	while( (FLASH->SR & FLASH_SR_BSY) != 0U);
 800fd52:	4b03      	ldr	r3, [pc, #12]	; (800fd60 <flash_write_physical+0x28>)
 800fd54:	691b      	ldr	r3, [r3, #16]
 800fd56:	f413 3f80 	tst.w	r3, #65536	; 0x10000
 800fd5a:	d1fa      	bne.n	800fd52 <flash_write_physical+0x1a>
}
 800fd5c:	2000      	movs	r0, #0
 800fd5e:	bd10      	pop	{r4, pc}
 800fd60:	40022000 	.word	0x40022000

0800fd64 <gpio_get_port_pin>:
//功能概要：将传进参数port_pin进行解析，得出具体端口号与引脚号，分别赋值给port与pin,返回。
//       （例：(PTB_NUM)|(9)解析为PORTB与9，并将其分别赋值给port与pin）。
//=====================================================================
void gpio_get_port_pin(uint16_t port_pin,uint8_t* port,uint8_t* pin)
{
	*port = (port_pin>>8);
 800fd64:	0a03      	lsrs	r3, r0, #8
 800fd66:	700b      	strb	r3, [r1, #0]
	*pin = port_pin;
 800fd68:	7010      	strb	r0, [r2, #0]
}
 800fd6a:	4770      	bx	lr

0800fd6c <gpio_set>:
{
 800fd6c:	b510      	push	{r4, lr}
 800fd6e:	b082      	sub	sp, #8
 800fd70:	460c      	mov	r4, r1
	gpio_get_port_pin(port_pin,&port,&pin);
 800fd72:	f10d 0206 	add.w	r2, sp, #6
 800fd76:	f10d 0107 	add.w	r1, sp, #7
 800fd7a:	f7ff fff3 	bl	800fd64 <gpio_get_port_pin>
	if(7 == port) //GPIOH
 800fd7e:	f89d 3007 	ldrb.w	r3, [sp, #7]
 800fd82:	2b07      	cmp	r3, #7
 800fd84:	d00b      	beq.n	800fd9e <gpio_set+0x32>
		gpio_ptr = GPIO_ARR[port];
 800fd86:	4a0b      	ldr	r2, [pc, #44]	; (800fdb4 <gpio_set+0x48>)
 800fd88:	f852 2023 	ldr.w	r2, [r2, r3, lsl #2]
	if(1 == state)    //高电平(该引脚对应置位寄存器置1)
 800fd8c:	2c01      	cmp	r4, #1
 800fd8e:	d00b      	beq.n	800fda8 <gpio_set+0x3c>
		gpio_ptr->BRR = (uint32_t)(1u<<pin);
 800fd90:	f89d 1006 	ldrb.w	r1, [sp, #6]
 800fd94:	2301      	movs	r3, #1
 800fd96:	408b      	lsls	r3, r1
 800fd98:	6293      	str	r3, [r2, #40]	; 0x28
}
 800fd9a:	b002      	add	sp, #8
 800fd9c:	bd10      	pop	{r4, pc}
		gpio_ptr = GPIO_ARR[port-2];
 800fd9e:	3b02      	subs	r3, #2
 800fda0:	4a04      	ldr	r2, [pc, #16]	; (800fdb4 <gpio_set+0x48>)
 800fda2:	f852 2023 	ldr.w	r2, [r2, r3, lsl #2]
 800fda6:	e7f1      	b.n	800fd8c <gpio_set+0x20>
		gpio_ptr->BSRR = (uint32_t)(1u<<pin);
 800fda8:	f89d 1006 	ldrb.w	r1, [sp, #6]
 800fdac:	2301      	movs	r3, #1
 800fdae:	408b      	lsls	r3, r1
 800fdb0:	6193      	str	r3, [r2, #24]
 800fdb2:	e7f2      	b.n	800fd9a <gpio_set+0x2e>
 800fdb4:	20004074 	.word	0x20004074

0800fdb8 <gpio_init>:
{
 800fdb8:	b5f0      	push	{r4, r5, r6, r7, lr}
 800fdba:	b083      	sub	sp, #12
 800fdbc:	4605      	mov	r5, r0
 800fdbe:	460c      	mov	r4, r1
 800fdc0:	4616      	mov	r6, r2
	gpio_get_port_pin(port_pin,&port,&pin);
 800fdc2:	f10d 0206 	add.w	r2, sp, #6
 800fdc6:	f10d 0107 	add.w	r1, sp, #7
 800fdca:	f7ff ffcb 	bl	800fd64 <gpio_get_port_pin>
	if(7 == port) //GPIOH
 800fdce:	f89d 1007 	ldrb.w	r1, [sp, #7]
 800fdd2:	2907      	cmp	r1, #7
 800fdd4:	d015      	beq.n	800fe02 <gpio_init+0x4a>
		gpio_ptr = GPIO_ARR[port];
 800fdd6:	4b12      	ldr	r3, [pc, #72]	; (800fe20 <gpio_init+0x68>)
 800fdd8:	f853 0021 	ldr.w	r0, [r3, r1, lsl #2]
	RCC->AHB2ENR |= (RCC_AHB2ENR_GPIOAEN<<(port * 1u));
 800fddc:	4f11      	ldr	r7, [pc, #68]	; (800fe24 <gpio_init+0x6c>)
 800fdde:	6cfb      	ldr	r3, [r7, #76]	; 0x4c
 800fde0:	2201      	movs	r2, #1
 800fde2:	408a      	lsls	r2, r1
 800fde4:	4313      	orrs	r3, r2
 800fde6:	64fb      	str	r3, [r7, #76]	; 0x4c
	temp = gpio_ptr->MODER;
 800fde8:	6801      	ldr	r1, [r0, #0]
	temp &= ~(GPIO_MODER_MODE0 << (pin * 2u));
 800fdea:	f89d 3006 	ldrb.w	r3, [sp, #6]
 800fdee:	005b      	lsls	r3, r3, #1
 800fdf0:	2203      	movs	r2, #3
 800fdf2:	409a      	lsls	r2, r3
 800fdf4:	ea21 0202 	bic.w	r2, r1, r2
	if(dir == 1)  //定义为输出引脚
 800fdf8:	2c01      	cmp	r4, #1
 800fdfa:	d007      	beq.n	800fe0c <gpio_init+0x54>
		gpio_ptr->MODER = temp;
 800fdfc:	6002      	str	r2, [r0, #0]
}
 800fdfe:	b003      	add	sp, #12
 800fe00:	bdf0      	pop	{r4, r5, r6, r7, pc}
		gpio_ptr = GPIO_ARR[port-2];
 800fe02:	1e8b      	subs	r3, r1, #2
 800fe04:	4a06      	ldr	r2, [pc, #24]	; (800fe20 <gpio_init+0x68>)
 800fe06:	f852 0023 	ldr.w	r0, [r2, r3, lsl #2]
 800fe0a:	e7e7      	b.n	800fddc <gpio_init+0x24>
		temp |= (GPIO_OUTPUT << (pin * 2u));
 800fe0c:	2101      	movs	r1, #1
 800fe0e:	fa01 f303 	lsl.w	r3, r1, r3
 800fe12:	431a      	orrs	r2, r3
		gpio_ptr->MODER = temp;
 800fe14:	6002      	str	r2, [r0, #0]
		gpio_set(port_pin,state);    //调用gpio_set函数，设定引脚初始状态
 800fe16:	4631      	mov	r1, r6
 800fe18:	4628      	mov	r0, r5
 800fe1a:	f7ff ffa7 	bl	800fd6c <gpio_set>
 800fe1e:	e7ee      	b.n	800fdfe <gpio_init+0x46>
 800fe20:	20004074 	.word	0x20004074
 800fe24:	40021000 	.word	0x40021000

0800fe28 <gpio_reverse>:
{
 800fe28:	b500      	push	{lr}
 800fe2a:	b083      	sub	sp, #12
	gpio_get_port_pin(port_pin,&port,&pin);
 800fe2c:	f10d 0206 	add.w	r2, sp, #6
 800fe30:	f10d 0107 	add.w	r1, sp, #7
 800fe34:	f7ff ff96 	bl	800fd64 <gpio_get_port_pin>
	if(7 == port) //GPIOH
 800fe38:	f89d 3007 	ldrb.w	r3, [sp, #7]
 800fe3c:	2b07      	cmp	r3, #7
 800fe3e:	d00d      	beq.n	800fe5c <gpio_reverse+0x34>
		gpio_ptr = GPIO_ARR[port];
 800fe40:	4a0a      	ldr	r2, [pc, #40]	; (800fe6c <gpio_reverse+0x44>)
 800fe42:	f852 2023 	ldr.w	r2, [r2, r3, lsl #2]
	if ((gpio_ptr->ODR & (1u<<pin)) != 0x00u)
 800fe46:	6951      	ldr	r1, [r2, #20]
 800fe48:	f89d 0006 	ldrb.w	r0, [sp, #6]
 800fe4c:	2301      	movs	r3, #1
 800fe4e:	4083      	lsls	r3, r0
 800fe50:	4219      	tst	r1, r3
 800fe52:	d108      	bne.n	800fe66 <gpio_reverse+0x3e>
		gpio_ptr->BSRR = (uint32_t)(1u<<pin);
 800fe54:	6193      	str	r3, [r2, #24]
}
 800fe56:	b003      	add	sp, #12
 800fe58:	f85d fb04 	ldr.w	pc, [sp], #4
		gpio_ptr = GPIO_ARR[port-2];
 800fe5c:	3b02      	subs	r3, #2
 800fe5e:	4a03      	ldr	r2, [pc, #12]	; (800fe6c <gpio_reverse+0x44>)
 800fe60:	f852 2023 	ldr.w	r2, [r2, r3, lsl #2]
 800fe64:	e7ef      	b.n	800fe46 <gpio_reverse+0x1e>
		gpio_ptr->BRR = (uint32_t)(1u<<pin);
 800fe66:	6293      	str	r3, [r2, #40]	; 0x28
 800fe68:	e7f5      	b.n	800fe56 <gpio_reverse+0x2e>
 800fe6a:	bf00      	nop
 800fe6c:	20004074 	.word	0x20004074

0800fe70 <rt_sem_init>:
 */
rt_err_t rt_sem_init(rt_sem_t    sem,
                     const char *name,
                     rt_uint32_t value,
                     rt_uint8_t  flag)
{
 800fe70:	b570      	push	{r4, r5, r6, lr}
 800fe72:	4604      	mov	r4, r0
 800fe74:	4616      	mov	r6, r2
 800fe76:	461d      	mov	r5, r3
    RT_ASSERT(sem != RT_NULL);
    RT_ASSERT(value < 0x10000U);

    /* init object */
    rt_object_init(&(sem->parent.parent), RT_Object_Class_Semaphore, name);
 800fe78:	460a      	mov	r2, r1
 800fe7a:	2102      	movs	r1, #2
 800fe7c:	f7ff fd5e 	bl	800f93c <rt_object_init>
    rt_list_init(&(ipc->suspend_thread));
 800fe80:	f104 0314 	add.w	r3, r4, #20
    l->next = l->prev = l;
 800fe84:	61a3      	str	r3, [r4, #24]
 800fe86:	6163      	str	r3, [r4, #20]

    /* init ipc object */
    rt_ipc_object_init(&(sem->parent));

    /* set init value */
    sem->value = (rt_uint16_t)value;
 800fe88:	83a6      	strh	r6, [r4, #28]

    /* set parent */
    sem->parent.parent.flag = flag;
 800fe8a:	7265      	strb	r5, [r4, #9]

    return RT_EOK;
}
 800fe8c:	2000      	movs	r0, #0
 800fe8e:	bd70      	pop	{r4, r5, r6, pc}

0800fe90 <rt_sem_create>:
 * @return the created semaphore, RT_NULL on error happen
 *
 * @see rt_sem_init
 */
rt_sem_t rt_sem_create(const char *name, rt_uint32_t value, rt_uint8_t flag)
{
 800fe90:	b538      	push	{r3, r4, r5, lr}
 800fe92:	460d      	mov	r5, r1
 800fe94:	4614      	mov	r4, r2

    RT_DEBUG_NOT_IN_INTERRUPT;
    RT_ASSERT(value < 0x10000U);

    /* allocate object */
    sem = (rt_sem_t)rt_object_allocate(RT_Object_Class_Semaphore, name);
 800fe96:	4601      	mov	r1, r0
 800fe98:	2002      	movs	r0, #2
 800fe9a:	f7ff fd84 	bl	800f9a6 <rt_object_allocate>
    if (sem == RT_NULL)
 800fe9e:	4603      	mov	r3, r0
 800fea0:	b128      	cbz	r0, 800feae <rt_sem_create+0x1e>
    rt_list_init(&(ipc->suspend_thread));
 800fea2:	f100 0214 	add.w	r2, r0, #20
 800fea6:	6182      	str	r2, [r0, #24]
 800fea8:	6142      	str	r2, [r0, #20]

    /* init ipc object */
    rt_ipc_object_init(&(sem->parent));

    /* set init value */
    sem->value = value;
 800feaa:	8385      	strh	r5, [r0, #28]

    /* set parent */
    sem->parent.parent.flag = flag;
 800feac:	7244      	strb	r4, [r0, #9]

    return sem;
}
 800feae:	4618      	mov	r0, r3
 800feb0:	bd38      	pop	{r3, r4, r5, pc}

0800feb2 <rt_sem_take>:
 * @param time the waiting time
 *
 * @return the error code
 */
rt_err_t rt_sem_take(rt_sem_t sem, rt_int32_t time)
{
 800feb2:	e92d 41f0 	stmdb	sp!, {r4, r5, r6, r7, r8, lr}
 800feb6:	b082      	sub	sp, #8
 800feb8:	4605      	mov	r5, r0
 800feba:	9101      	str	r1, [sp, #4]
    RT_ASSERT(rt_object_get_type(&sem->parent.parent) == RT_Object_Class_Semaphore);

    RT_OBJECT_HOOK_CALL(rt_object_trytake_hook, (&(sem->parent.parent)));

    /* disable interrupt */
    temp = rt_hw_interrupt_disable();
 800febc:	f7fd fcc0 	bl	800d840 <rt_hw_interrupt_disable>
 800fec0:	4607      	mov	r7, r0
    RT_DEBUG_LOG(RT_DEBUG_IPC, ("thread %s take sem:%s, which value is: %d\n",
                                rt_thread_self()->name,
                                ((struct rt_object *)sem)->name,
                                sem->value));

    if (sem->value > 0)
 800fec2:	8bab      	ldrh	r3, [r5, #28]
 800fec4:	b9f3      	cbnz	r3, 800ff04 <rt_sem_take+0x52>
        rt_hw_interrupt_enable(temp);
    }
    else
    {
        /* no waiting, return with timeout */
        if (time == 0)
 800fec6:	9b01      	ldr	r3, [sp, #4]
 800fec8:	b313      	cbz	r3, 800ff10 <rt_sem_take+0x5e>
            /* current context checking */
            RT_DEBUG_IN_THREAD_CONTEXT;

            /* semaphore is unavailable, push to suspend list */
            /* get current thread */
            thread = rt_thread_self();
 800feca:	f7ff f95d 	bl	800f188 <rt_thread_self>
 800fece:	4604      	mov	r4, r0

            /* reset thread error number */
            thread->error = RT_EOK;
 800fed0:	2300      	movs	r3, #0
 800fed2:	6303      	str	r3, [r0, #48]	; 0x30

            RT_DEBUG_LOG(RT_DEBUG_IPC, ("sem take: suspend thread - %s\n",
                                        thread->name));

            /* suspend thread */
            rt_ipc_list_suspend(&(sem->parent.suspend_thread),
 800fed4:	f105 0614 	add.w	r6, r5, #20
 800fed8:	f895 8009 	ldrb.w	r8, [r5, #9]
    rt_thread_suspend(thread);
 800fedc:	f7ff fa02 	bl	800f2e4 <rt_thread_suspend>
    switch (flag)
 800fee0:	f1b8 0f00 	cmp.w	r8, #0
 800fee4:	d019      	beq.n	800ff1a <rt_sem_take+0x68>
 800fee6:	f1b8 0f01 	cmp.w	r8, #1
 800feea:	d01f      	beq.n	800ff2c <rt_sem_take+0x7a>
                                thread,
                                sem->parent.parent.flag);

            /* has waiting time, start thread timer */
            if (time > 0)
 800feec:	9b01      	ldr	r3, [sp, #4]
 800feee:	2b00      	cmp	r3, #0
 800fef0:	dc3a      	bgt.n	800ff68 <rt_sem_take+0xb6>
                                 &time);
                rt_timer_start(&(thread->thread_timer));
            }

            /* enable interrupt */
            rt_hw_interrupt_enable(temp);
 800fef2:	4638      	mov	r0, r7
 800fef4:	f7fd fca8 	bl	800d848 <rt_hw_interrupt_enable>

            /* do schedule */
            rt_schedule();
 800fef8:	f000 ff04 	bl	8010d04 <rt_schedule>

            if (thread->error != RT_EOK)
 800fefc:	6b20      	ldr	r0, [r4, #48]	; 0x30
    }

    RT_OBJECT_HOOK_CALL(rt_object_take_hook, (&(sem->parent.parent)));

    return RT_EOK;
}
 800fefe:	b002      	add	sp, #8
 800ff00:	e8bd 81f0 	ldmia.w	sp!, {r4, r5, r6, r7, r8, pc}
        sem->value --;
 800ff04:	3b01      	subs	r3, #1
 800ff06:	83ab      	strh	r3, [r5, #28]
        rt_hw_interrupt_enable(temp);
 800ff08:	f7fd fc9e 	bl	800d848 <rt_hw_interrupt_enable>
    return RT_EOK;
 800ff0c:	2000      	movs	r0, #0
 800ff0e:	e7f6      	b.n	800fefe <rt_sem_take+0x4c>
            rt_hw_interrupt_enable(temp);
 800ff10:	f7fd fc9a 	bl	800d848 <rt_hw_interrupt_enable>
            return -RT_ETIMEOUT;
 800ff14:	f06f 0001 	mvn.w	r0, #1
 800ff18:	e7f1      	b.n	800fefe <rt_sem_take+0x4c>
        rt_list_insert_before(list, &(thread->tlist));
 800ff1a:	f104 0314 	add.w	r3, r4, #20
    l->prev->next = n;
 800ff1e:	6872      	ldr	r2, [r6, #4]
 800ff20:	6013      	str	r3, [r2, #0]
    n->prev = l->prev;
 800ff22:	6872      	ldr	r2, [r6, #4]
 800ff24:	61a2      	str	r2, [r4, #24]
    l->prev = n;
 800ff26:	6073      	str	r3, [r6, #4]
    n->next = l;
 800ff28:	6166      	str	r6, [r4, #20]
 800ff2a:	e7df      	b.n	800feec <rt_sem_take+0x3a>
            for (n = list->next; n != list; n = n->next)
 800ff2c:	696b      	ldr	r3, [r5, #20]
 800ff2e:	429e      	cmp	r6, r3
 800ff30:	d00f      	beq.n	800ff52 <rt_sem_take+0xa0>
                if (thread->current_priority < sthread->current_priority)
 800ff32:	f894 1035 	ldrb.w	r1, [r4, #53]	; 0x35
 800ff36:	f893 2021 	ldrb.w	r2, [r3, #33]	; 0x21
 800ff3a:	4291      	cmp	r1, r2
 800ff3c:	d301      	bcc.n	800ff42 <rt_sem_take+0x90>
            for (n = list->next; n != list; n = n->next)
 800ff3e:	681b      	ldr	r3, [r3, #0]
 800ff40:	e7f5      	b.n	800ff2e <rt_sem_take+0x7c>
                    rt_list_insert_before(&(sthread->tlist), &(thread->tlist));
 800ff42:	f104 0214 	add.w	r2, r4, #20
    l->prev->next = n;
 800ff46:	6859      	ldr	r1, [r3, #4]
 800ff48:	600a      	str	r2, [r1, #0]
    n->prev = l->prev;
 800ff4a:	6859      	ldr	r1, [r3, #4]
 800ff4c:	61a1      	str	r1, [r4, #24]
    l->prev = n;
 800ff4e:	605a      	str	r2, [r3, #4]
    n->next = l;
 800ff50:	6163      	str	r3, [r4, #20]
            if (n == list)
 800ff52:	429e      	cmp	r6, r3
 800ff54:	d1ca      	bne.n	800feec <rt_sem_take+0x3a>
                rt_list_insert_before(list, &(thread->tlist));
 800ff56:	f104 0314 	add.w	r3, r4, #20
    l->prev->next = n;
 800ff5a:	6872      	ldr	r2, [r6, #4]
 800ff5c:	6013      	str	r3, [r2, #0]
    n->prev = l->prev;
 800ff5e:	6872      	ldr	r2, [r6, #4]
 800ff60:	61a2      	str	r2, [r4, #24]
    l->prev = n;
 800ff62:	6073      	str	r3, [r6, #4]
    n->next = l;
 800ff64:	6166      	str	r6, [r4, #20]
 800ff66:	e7c1      	b.n	800feec <rt_sem_take+0x3a>
                rt_timer_control(&(thread->thread_timer),
 800ff68:	f104 054c 	add.w	r5, r4, #76	; 0x4c
 800ff6c:	aa01      	add	r2, sp, #4
 800ff6e:	2100      	movs	r1, #0
 800ff70:	4628      	mov	r0, r5
 800ff72:	f7ff fb3b 	bl	800f5ec <rt_timer_control>
                rt_timer_start(&(thread->thread_timer));
 800ff76:	4628      	mov	r0, r5
 800ff78:	f7ff fab4 	bl	800f4e4 <rt_timer_start>
 800ff7c:	e7b9      	b.n	800fef2 <rt_sem_take+0x40>

0800ff7e <rt_sem_release>:
 * @param sem the semaphore object
 *
 * @return the error code
 */
rt_err_t rt_sem_release(rt_sem_t sem)
{
 800ff7e:	b538      	push	{r3, r4, r5, lr}
 800ff80:	4604      	mov	r4, r0
    RT_OBJECT_HOOK_CALL(rt_object_put_hook, (&(sem->parent.parent)));

    need_schedule = RT_FALSE;

    /* disable interrupt */
    temp = rt_hw_interrupt_disable();
 800ff82:	f7fd fc5d 	bl	800d840 <rt_hw_interrupt_disable>
 800ff86:	4605      	mov	r5, r0
    RT_DEBUG_LOG(RT_DEBUG_IPC, ("thread %s releases sem:%s, which value is: %d\n",
                                rt_thread_self()->name,
                                ((struct rt_object *)sem)->name,
                                sem->value));

    if (!rt_list_isempty(&sem->parent.suspend_thread))
 800ff88:	f104 0314 	add.w	r3, r4, #20
    return l->next == l;
 800ff8c:	6960      	ldr	r0, [r4, #20]
 800ff8e:	4283      	cmp	r3, r0
 800ff90:	d009      	beq.n	800ffa6 <rt_sem_release+0x28>
    rt_thread_resume(thread);
 800ff92:	3814      	subs	r0, #20
 800ff94:	f7ff f9f4 	bl	800f380 <rt_thread_resume>
    {
        /* resume the suspended thread */
        rt_ipc_list_resume(&(sem->parent.suspend_thread));
        need_schedule = RT_TRUE;
 800ff98:	2401      	movs	r4, #1
    }
    else
        sem->value ++; /* increase value */

    /* enable interrupt */
    rt_hw_interrupt_enable(temp);
 800ff9a:	4628      	mov	r0, r5
 800ff9c:	f7fd fc54 	bl	800d848 <rt_hw_interrupt_enable>

    /* resume a thread, re-schedule */
    if (need_schedule == RT_TRUE)
 800ffa0:	b934      	cbnz	r4, 800ffb0 <rt_sem_release+0x32>
        rt_schedule();

    return RT_EOK;
}
 800ffa2:	2000      	movs	r0, #0
 800ffa4:	bd38      	pop	{r3, r4, r5, pc}
        sem->value ++; /* increase value */
 800ffa6:	8ba3      	ldrh	r3, [r4, #28]
 800ffa8:	3301      	adds	r3, #1
 800ffaa:	83a3      	strh	r3, [r4, #28]
    need_schedule = RT_FALSE;
 800ffac:	2400      	movs	r4, #0
 800ffae:	e7f4      	b.n	800ff9a <rt_sem_release+0x1c>
        rt_schedule();
 800ffb0:	f000 fea8 	bl	8010d04 <rt_schedule>
 800ffb4:	e7f5      	b.n	800ffa2 <rt_sem_release+0x24>

0800ffb6 <rt_mutex_create>:
 * @return the created mutex, RT_NULL on error happen
 *
 * @see rt_mutex_init
 */
rt_mutex_t rt_mutex_create(const char *name, rt_uint8_t flag)
{
 800ffb6:	b510      	push	{r4, lr}
 800ffb8:	460c      	mov	r4, r1
    struct rt_mutex *mutex;

    RT_DEBUG_NOT_IN_INTERRUPT;

    /* allocate object */
    mutex = (rt_mutex_t)rt_object_allocate(RT_Object_Class_Mutex, name);
 800ffba:	4601      	mov	r1, r0
 800ffbc:	2003      	movs	r0, #3
 800ffbe:	f7ff fcf2 	bl	800f9a6 <rt_object_allocate>
    if (mutex == RT_NULL)
 800ffc2:	4603      	mov	r3, r0
 800ffc4:	b158      	cbz	r0, 800ffde <rt_mutex_create+0x28>
    rt_list_init(&(ipc->suspend_thread));
 800ffc6:	f100 0214 	add.w	r2, r0, #20
    l->next = l->prev = l;
 800ffca:	6182      	str	r2, [r0, #24]
 800ffcc:	6142      	str	r2, [r0, #20]
        return mutex;

    /* init ipc object */
    rt_ipc_object_init(&(mutex->parent));

    mutex->value              = 1;
 800ffce:	2201      	movs	r2, #1
 800ffd0:	8382      	strh	r2, [r0, #28]
    mutex->owner              = RT_NULL;
 800ffd2:	2200      	movs	r2, #0
 800ffd4:	6202      	str	r2, [r0, #32]
    mutex->original_priority  = 0xFF;
 800ffd6:	21ff      	movs	r1, #255	; 0xff
 800ffd8:	7781      	strb	r1, [r0, #30]
    mutex->hold               = 0;
 800ffda:	77c2      	strb	r2, [r0, #31]

    /* set flag */
    mutex->parent.parent.flag = flag;
 800ffdc:	7244      	strb	r4, [r0, #9]

    return mutex;
}
 800ffde:	4618      	mov	r0, r3
 800ffe0:	bd10      	pop	{r4, pc}

0800ffe2 <rt_mutex_take>:
 * @param time the waiting time
 *
 * @return the error code
 */
rt_err_t rt_mutex_take(rt_mutex_t mutex, rt_int32_t time)
{
 800ffe2:	e92d 41f0 	stmdb	sp!, {r4, r5, r6, r7, r8, lr}
 800ffe6:	b082      	sub	sp, #8
 800ffe8:	4606      	mov	r6, r0
 800ffea:	9101      	str	r1, [sp, #4]
    /* parameter check */
    RT_ASSERT(mutex != RT_NULL);
    RT_ASSERT(rt_object_get_type(&mutex->parent.parent) == RT_Object_Class_Mutex);

    /* get current thread */
    thread = rt_thread_self();
 800ffec:	f7ff f8cc 	bl	800f188 <rt_thread_self>
 800fff0:	4604      	mov	r4, r0

    /* disable interrupt */
    temp = rt_hw_interrupt_disable();
 800fff2:	f7fd fc25 	bl	800d840 <rt_hw_interrupt_disable>
 800fff6:	4680      	mov	r8, r0
    RT_DEBUG_LOG(RT_DEBUG_IPC,
                 ("mutex_take: current thread %s, mutex value: %d, hold: %d\n",
                  thread->name, mutex->value, mutex->hold));

    /* reset thread error */
    thread->error = RT_EOK;
 800fff8:	2300      	movs	r3, #0
 800fffa:	6323      	str	r3, [r4, #48]	; 0x30

    if (mutex->owner == thread)
 800fffc:	6a33      	ldr	r3, [r6, #32]
 800fffe:	42a3      	cmp	r3, r4
 8010000:	d137      	bne.n	8010072 <rt_mutex_take+0x90>
    {
        /* it's the same thread */
        mutex->hold ++;
 8010002:	7ff3      	ldrb	r3, [r6, #31]
 8010004:	3301      	adds	r3, #1
 8010006:	77f3      	strb	r3, [r6, #31]
            }
        }
    }

    /* enable interrupt */
    rt_hw_interrupt_enable(temp);
 8010008:	4640      	mov	r0, r8
 801000a:	f7fd fc1d 	bl	800d848 <rt_hw_interrupt_enable>

    RT_OBJECT_HOOK_CALL(rt_object_take_hook, (&(mutex->parent.parent)));

    return RT_EOK;
 801000e:	2000      	movs	r0, #0
}
 8010010:	b002      	add	sp, #8
 8010012:	e8bd 81f0 	ldmia.w	sp!, {r4, r5, r6, r7, r8, pc}
            mutex->value --;
 8010016:	3b01      	subs	r3, #1
 8010018:	83b3      	strh	r3, [r6, #28]
            mutex->owner             = thread;
 801001a:	6234      	str	r4, [r6, #32]
            mutex->original_priority = thread->current_priority;
 801001c:	f894 3035 	ldrb.w	r3, [r4, #53]	; 0x35
 8010020:	77b3      	strb	r3, [r6, #30]
            mutex->hold ++;
 8010022:	7ff3      	ldrb	r3, [r6, #31]
 8010024:	3301      	adds	r3, #1
 8010026:	77f3      	strb	r3, [r6, #31]
 8010028:	e7ee      	b.n	8010008 <rt_mutex_take+0x26>
                thread->error = -RT_ETIMEOUT;
 801002a:	f06f 0501 	mvn.w	r5, #1
 801002e:	6325      	str	r5, [r4, #48]	; 0x30
                rt_hw_interrupt_enable(temp);
 8010030:	4640      	mov	r0, r8
 8010032:	f7fd fc09 	bl	800d848 <rt_hw_interrupt_enable>
                return -RT_ETIMEOUT;
 8010036:	4628      	mov	r0, r5
 8010038:	e7ea      	b.n	8010010 <rt_mutex_take+0x2e>
                    rt_thread_control(mutex->owner,
 801003a:	f104 0235 	add.w	r2, r4, #53	; 0x35
 801003e:	2102      	movs	r1, #2
 8010040:	f7ff f9d6 	bl	800f3f0 <rt_thread_control>
 8010044:	e022      	b.n	801008c <rt_mutex_take+0xaa>
        rt_list_insert_before(list, &(thread->tlist));
 8010046:	f104 0314 	add.w	r3, r4, #20
    l->prev->next = n;
 801004a:	686a      	ldr	r2, [r5, #4]
 801004c:	6013      	str	r3, [r2, #0]
    n->prev = l->prev;
 801004e:	686a      	ldr	r2, [r5, #4]
 8010050:	61a2      	str	r2, [r4, #24]
    l->prev = n;
 8010052:	606b      	str	r3, [r5, #4]
    n->next = l;
 8010054:	6165      	str	r5, [r4, #20]
                if (time > 0)
 8010056:	9b01      	ldr	r3, [sp, #4]
 8010058:	2b00      	cmp	r3, #0
 801005a:	dc3f      	bgt.n	80100dc <rt_mutex_take+0xfa>
                rt_hw_interrupt_enable(temp);
 801005c:	4640      	mov	r0, r8
 801005e:	f7fd fbf3 	bl	800d848 <rt_hw_interrupt_enable>
                rt_schedule();
 8010062:	f000 fe4f 	bl	8010d04 <rt_schedule>
                if (thread->error != RT_EOK)
 8010066:	6b20      	ldr	r0, [r4, #48]	; 0x30
 8010068:	2800      	cmp	r0, #0
 801006a:	d042      	beq.n	80100f2 <rt_mutex_take+0x110>
                    if (thread->error == -RT_EINTR) goto __again;
 801006c:	f110 0f09 	cmn.w	r0, #9
 8010070:	d1ce      	bne.n	8010010 <rt_mutex_take+0x2e>
        if (mutex->value > 0)
 8010072:	8bb3      	ldrh	r3, [r6, #28]
 8010074:	2b00      	cmp	r3, #0
 8010076:	d1ce      	bne.n	8010016 <rt_mutex_take+0x34>
            if (time == 0)
 8010078:	9b01      	ldr	r3, [sp, #4]
 801007a:	2b00      	cmp	r3, #0
 801007c:	d0d5      	beq.n	801002a <rt_mutex_take+0x48>
                if (thread->current_priority < mutex->owner->current_priority)
 801007e:	f894 2035 	ldrb.w	r2, [r4, #53]	; 0x35
 8010082:	6a30      	ldr	r0, [r6, #32]
 8010084:	f890 3035 	ldrb.w	r3, [r0, #53]	; 0x35
 8010088:	429a      	cmp	r2, r3
 801008a:	d3d6      	bcc.n	801003a <rt_mutex_take+0x58>
                rt_ipc_list_suspend(&(mutex->parent.suspend_thread),
 801008c:	f106 0514 	add.w	r5, r6, #20
 8010090:	7a77      	ldrb	r7, [r6, #9]
    rt_thread_suspend(thread);
 8010092:	4620      	mov	r0, r4
 8010094:	f7ff f926 	bl	800f2e4 <rt_thread_suspend>
    switch (flag)
 8010098:	2f00      	cmp	r7, #0
 801009a:	d0d4      	beq.n	8010046 <rt_mutex_take+0x64>
 801009c:	2f01      	cmp	r7, #1
 801009e:	d1da      	bne.n	8010056 <rt_mutex_take+0x74>
            for (n = list->next; n != list; n = n->next)
 80100a0:	6973      	ldr	r3, [r6, #20]
 80100a2:	429d      	cmp	r5, r3
 80100a4:	d00f      	beq.n	80100c6 <rt_mutex_take+0xe4>
                if (thread->current_priority < sthread->current_priority)
 80100a6:	f894 1035 	ldrb.w	r1, [r4, #53]	; 0x35
 80100aa:	f893 2021 	ldrb.w	r2, [r3, #33]	; 0x21
 80100ae:	4291      	cmp	r1, r2
 80100b0:	d301      	bcc.n	80100b6 <rt_mutex_take+0xd4>
            for (n = list->next; n != list; n = n->next)
 80100b2:	681b      	ldr	r3, [r3, #0]
 80100b4:	e7f5      	b.n	80100a2 <rt_mutex_take+0xc0>
                    rt_list_insert_before(&(sthread->tlist), &(thread->tlist));
 80100b6:	f104 0214 	add.w	r2, r4, #20
    l->prev->next = n;
 80100ba:	6859      	ldr	r1, [r3, #4]
 80100bc:	600a      	str	r2, [r1, #0]
    n->prev = l->prev;
 80100be:	6859      	ldr	r1, [r3, #4]
 80100c0:	61a1      	str	r1, [r4, #24]
    l->prev = n;
 80100c2:	605a      	str	r2, [r3, #4]
    n->next = l;
 80100c4:	6163      	str	r3, [r4, #20]
            if (n == list)
 80100c6:	429d      	cmp	r5, r3
 80100c8:	d1c5      	bne.n	8010056 <rt_mutex_take+0x74>
                rt_list_insert_before(list, &(thread->tlist));
 80100ca:	f104 0314 	add.w	r3, r4, #20
    l->prev->next = n;
 80100ce:	686a      	ldr	r2, [r5, #4]
 80100d0:	6013      	str	r3, [r2, #0]
    n->prev = l->prev;
 80100d2:	686a      	ldr	r2, [r5, #4]
 80100d4:	61a2      	str	r2, [r4, #24]
    l->prev = n;
 80100d6:	606b      	str	r3, [r5, #4]
    n->next = l;
 80100d8:	6165      	str	r5, [r4, #20]
 80100da:	e7bc      	b.n	8010056 <rt_mutex_take+0x74>
                    rt_timer_control(&(thread->thread_timer),
 80100dc:	f104 054c 	add.w	r5, r4, #76	; 0x4c
 80100e0:	aa01      	add	r2, sp, #4
 80100e2:	2100      	movs	r1, #0
 80100e4:	4628      	mov	r0, r5
 80100e6:	f7ff fa81 	bl	800f5ec <rt_timer_control>
                    rt_timer_start(&(thread->thread_timer));
 80100ea:	4628      	mov	r0, r5
 80100ec:	f7ff f9fa 	bl	800f4e4 <rt_timer_start>
 80100f0:	e7b4      	b.n	801005c <rt_mutex_take+0x7a>
                    temp = rt_hw_interrupt_disable();
 80100f2:	f7fd fba5 	bl	800d840 <rt_hw_interrupt_disable>
 80100f6:	4680      	mov	r8, r0
 80100f8:	e786      	b.n	8010008 <rt_mutex_take+0x26>

080100fa <rt_mutex_release>:
 * @param mutex the mutex object
 *
 * @return the error code
 */
rt_err_t rt_mutex_release(rt_mutex_t mutex)
{
 80100fa:	b570      	push	{r4, r5, r6, lr}
 80100fc:	4604      	mov	r4, r0

    /* only thread could release mutex because we need test the ownership */
    RT_DEBUG_IN_THREAD_CONTEXT;

    /* get current thread */
    thread = rt_thread_self();
 80100fe:	f7ff f843 	bl	800f188 <rt_thread_self>
 8010102:	4606      	mov	r6, r0

    /* disable interrupt */
    temp = rt_hw_interrupt_disable();
 8010104:	f7fd fb9c 	bl	800d840 <rt_hw_interrupt_disable>
 8010108:	4605      	mov	r5, r0
                  thread->name, mutex->value, mutex->hold));

    RT_OBJECT_HOOK_CALL(rt_object_put_hook, (&(mutex->parent.parent)));

    /* mutex only can be released by owner */
    if (thread != mutex->owner)
 801010a:	6a20      	ldr	r0, [r4, #32]
 801010c:	42b0      	cmp	r0, r6
 801010e:	d11b      	bne.n	8010148 <rt_mutex_release+0x4e>

        return -RT_ERROR;
    }

    /* decrease hold */
    mutex->hold --;
 8010110:	7fe3      	ldrb	r3, [r4, #31]
 8010112:	3b01      	subs	r3, #1
 8010114:	b2db      	uxtb	r3, r3
 8010116:	77e3      	strb	r3, [r4, #31]
    /* if no hold */
    if (mutex->hold == 0)
 8010118:	bb6b      	cbnz	r3, 8010176 <rt_mutex_release+0x7c>
    {
        /* change the owner thread to original priority */
        if (mutex->original_priority != mutex->owner->current_priority)
 801011a:	7fa2      	ldrb	r2, [r4, #30]
 801011c:	f890 3035 	ldrb.w	r3, [r0, #53]	; 0x35
 8010120:	429a      	cmp	r2, r3
 8010122:	d119      	bne.n	8010158 <rt_mutex_release+0x5e>
                              RT_THREAD_CTRL_CHANGE_PRIORITY,
                              &(mutex->original_priority));
        }

        /* wakeup suspended thread */
        if (!rt_list_isempty(&mutex->parent.suspend_thread))
 8010124:	f104 0314 	add.w	r3, r4, #20
    return l->next == l;
 8010128:	6962      	ldr	r2, [r4, #20]
 801012a:	4293      	cmp	r3, r2
 801012c:	d01a      	beq.n	8010164 <rt_mutex_release+0x6a>
        {
            /* get suspended thread */
            thread = rt_list_entry(mutex->parent.suspend_thread.next,
 801012e:	f1a2 0014 	sub.w	r0, r2, #20

            RT_DEBUG_LOG(RT_DEBUG_IPC, ("mutex_release: resume thread: %s\n",
                                        thread->name));

            /* set new owner and priority */
            mutex->owner             = thread;
 8010132:	6220      	str	r0, [r4, #32]
            mutex->original_priority = thread->current_priority;
 8010134:	f892 3021 	ldrb.w	r3, [r2, #33]	; 0x21
 8010138:	77a3      	strb	r3, [r4, #30]
            mutex->hold ++;
 801013a:	7fe3      	ldrb	r3, [r4, #31]
 801013c:	3301      	adds	r3, #1
 801013e:	77e3      	strb	r3, [r4, #31]
    rt_thread_resume(thread);
 8010140:	f7ff f91e 	bl	800f380 <rt_thread_resume>

            /* resume thread */
            rt_ipc_list_resume(&(mutex->parent.suspend_thread));

            need_schedule = RT_TRUE;
 8010144:	2401      	movs	r4, #1
 8010146:	e017      	b.n	8010178 <rt_mutex_release+0x7e>
        thread->error = -RT_ERROR;
 8010148:	f04f 34ff 	mov.w	r4, #4294967295
 801014c:	6334      	str	r4, [r6, #48]	; 0x30
        rt_hw_interrupt_enable(temp);
 801014e:	4628      	mov	r0, r5
 8010150:	f7fd fb7a 	bl	800d848 <rt_hw_interrupt_enable>
        return -RT_ERROR;
 8010154:	4620      	mov	r0, r4
 8010156:	e014      	b.n	8010182 <rt_mutex_release+0x88>
            rt_thread_control(mutex->owner,
 8010158:	f104 021e 	add.w	r2, r4, #30
 801015c:	2102      	movs	r1, #2
 801015e:	f7ff f947 	bl	800f3f0 <rt_thread_control>
 8010162:	e7df      	b.n	8010124 <rt_mutex_release+0x2a>
        }
        else
        {
            /* increase value */
            mutex->value ++;
 8010164:	8ba3      	ldrh	r3, [r4, #28]
 8010166:	3301      	adds	r3, #1
 8010168:	83a3      	strh	r3, [r4, #28]

            /* clear owner */
            mutex->owner             = RT_NULL;
 801016a:	2300      	movs	r3, #0
 801016c:	6223      	str	r3, [r4, #32]
            mutex->original_priority = 0xff;
 801016e:	22ff      	movs	r2, #255	; 0xff
 8010170:	77a2      	strb	r2, [r4, #30]
    need_schedule = RT_FALSE;
 8010172:	461c      	mov	r4, r3
 8010174:	e000      	b.n	8010178 <rt_mutex_release+0x7e>
 8010176:	2400      	movs	r4, #0
        }
    }

    /* enable interrupt */
    rt_hw_interrupt_enable(temp);
 8010178:	4628      	mov	r0, r5
 801017a:	f7fd fb65 	bl	800d848 <rt_hw_interrupt_enable>

    /* perform a schedule */
    if (need_schedule == RT_TRUE)
 801017e:	b90c      	cbnz	r4, 8010184 <rt_mutex_release+0x8a>
        rt_schedule();

    return RT_EOK;
 8010180:	2000      	movs	r0, #0
}
 8010182:	bd70      	pop	{r4, r5, r6, pc}
        rt_schedule();
 8010184:	f000 fdbe 	bl	8010d04 <rt_schedule>
    return RT_EOK;
 8010188:	2000      	movs	r0, #0
 801018a:	e7fa      	b.n	8010182 <rt_mutex_release+0x88>

0801018c <rt_event_create>:
 *
 * @return the created event, RT_NULL on error happen
 */
//事件创建函数
rt_event_t rt_event_create(const char *name, rt_uint8_t flag)
{
 801018c:	b510      	push	{r4, lr}
 801018e:	460c      	mov	r4, r1
    rt_event_t event;

    RT_DEBUG_NOT_IN_INTERRUPT;

    //分配对象
    event = (rt_event_t)rt_object_allocate(RT_Object_Class_Event, name);
 8010190:	4601      	mov	r1, r0
 8010192:	2004      	movs	r0, #4
 8010194:	f7ff fc07 	bl	800f9a6 <rt_object_allocate>
    if (event == RT_NULL)
 8010198:	4603      	mov	r3, r0
 801019a:	b130      	cbz	r0, 80101aa <rt_event_create+0x1e>
        return event;

    //设置阻塞唤醒的模式
    event->parent.parent.flag = flag;
 801019c:	7244      	strb	r4, [r0, #9]
    rt_list_init(&(ipc->suspend_thread));
 801019e:	f100 0214 	add.w	r2, r0, #20
    l->next = l->prev = l;
 80101a2:	6182      	str	r2, [r0, #24]
 80101a4:	6142      	str	r2, [r0, #20]

    //初始化事件对象
    rt_ipc_object_init(&(event->parent));

    //事件集合清零
    event->set = 0;
 80101a6:	2200      	movs	r2, #0
 80101a8:	61c2      	str	r2, [r0, #28]

    return event;
}
 80101aa:	4618      	mov	r0, r3
 80101ac:	bd10      	pop	{r4, pc}

080101ae <rt_event_send>:
    //事件对象检查
    /* parameter check */
    RT_ASSERT(event != RT_NULL);
    RT_ASSERT(rt_object_get_type(&event->parent.parent) == RT_Object_Class_Event);

    if (set == 0)
 80101ae:	2900      	cmp	r1, #0
 80101b0:	d046      	beq.n	8010240 <rt_event_send+0x92>
{
 80101b2:	b5f8      	push	{r3, r4, r5, r6, r7, lr}
 80101b4:	f100 0514 	add.w	r5, r0, #20
 80101b8:	460e      	mov	r6, r1
 80101ba:	4604      	mov	r4, r0

    need_schedule = RT_FALSE;

    //关中断
    /* disable interrupt */
    level = rt_hw_interrupt_disable();
 80101bc:	f7fd fb40 	bl	800d840 <rt_hw_interrupt_disable>
 80101c0:	4607      	mov	r7, r0

    //设置事件
    /* set event */
    event->set |= set;
 80101c2:	69e3      	ldr	r3, [r4, #28]
 80101c4:	4333      	orrs	r3, r6
 80101c6:	61e3      	str	r3, [r4, #28]
    return l->next == l;
 80101c8:	6963      	ldr	r3, [r4, #20]
//			                                                           ((rt_uint32_t)(list2->next)-0x14),
//																	   ((rt_uint32_t)(list2->next->next)-0x14),
//																	   ((rt_uint32_t)(list2->next->next->next)-0x14),
//																	   ((rt_uint32_t)(list2->next->next->next->next)-0x14));

    if (!rt_list_isempty(&event->parent.suspend_thread))
 80101ca:	429d      	cmp	r5, r3
 80101cc:	d001      	beq.n	80101d2 <rt_event_send+0x24>
    need_schedule = RT_FALSE;
 80101ce:	2600      	movs	r6, #0
 80101d0:	e015      	b.n	80101fe <rt_event_send+0x50>
 80101d2:	2600      	movs	r6, #0
        }
    }

    //开中断
    /* enable interrupt */
    rt_hw_interrupt_enable(level);
 80101d4:	4638      	mov	r0, r7
 80101d6:	f7fd fb37 	bl	800d848 <rt_hw_interrupt_enable>



    //线程调度
    /* do a schedule */
    if (need_schedule == RT_TRUE)
 80101da:	bb6e      	cbnz	r6, 8010238 <rt_event_send+0x8a>
//	printf("9-4.调用rt_list_remove后就绪列表中的线程：%x->%x->%x->%x->%x\r\n",((rt_uint32_t)(list2)-0x14),
//			                                                           ((rt_uint32_t)(list2->next)-0x14),
//																	   ((rt_uint32_t)(list2->next->next)-0x14),
//																	   ((rt_uint32_t)(list2->next->next->next)-0x14),
//																	   ((rt_uint32_t)(list2->next->next->next->next)-0x14));
    return RT_EOK;
 80101dc:	2000      	movs	r0, #0
}
 80101de:	bdf8      	pop	{r3, r4, r5, r6, r7, pc}
            n = n->next;
 80101e0:	681e      	ldr	r6, [r3, #0]
                if (thread->event_info & RT_EVENT_FLAG_CLEAR)
 80101e2:	f893 202c 	ldrb.w	r2, [r3, #44]	; 0x2c
 80101e6:	f012 0f04 	tst.w	r2, #4
 80101ea:	d004      	beq.n	80101f6 <rt_event_send+0x48>
                    event->set &= ~thread->event_set;
 80101ec:	6a9a      	ldr	r2, [r3, #40]	; 0x28
 80101ee:	69e3      	ldr	r3, [r4, #28]
 80101f0:	ea23 0302 	bic.w	r3, r3, r2
 80101f4:	61e3      	str	r3, [r4, #28]
                rt_thread_resume(thread);
 80101f6:	f7ff f8c3 	bl	800f380 <rt_thread_resume>
 80101fa:	4633      	mov	r3, r6
                need_schedule = RT_TRUE;
 80101fc:	2601      	movs	r6, #1
        while (n != &(event->parent.suspend_thread))
 80101fe:	42ab      	cmp	r3, r5
 8010200:	d0e8      	beq.n	80101d4 <rt_event_send+0x26>
            thread = rt_list_entry(n, struct rt_thread, tlist);
 8010202:	f1a3 0014 	sub.w	r0, r3, #20
            if (thread->event_info & RT_EVENT_FLAG_AND)
 8010206:	f893 202c 	ldrb.w	r2, [r3, #44]	; 0x2c
 801020a:	f012 0f01 	tst.w	r2, #1
 801020e:	d005      	beq.n	801021c <rt_event_send+0x6e>
                if ((thread->event_set & event->set) == thread->event_set)
 8010210:	6a9a      	ldr	r2, [r3, #40]	; 0x28
 8010212:	69e1      	ldr	r1, [r4, #28]
 8010214:	438a      	bics	r2, r1
 8010216:	d0e3      	beq.n	80101e0 <rt_event_send+0x32>
            n = n->next;
 8010218:	681b      	ldr	r3, [r3, #0]
 801021a:	e7f0      	b.n	80101fe <rt_event_send+0x50>
            else if (thread->event_info & RT_EVENT_FLAG_OR)
 801021c:	f012 0f02 	tst.w	r2, #2
 8010220:	d008      	beq.n	8010234 <rt_event_send+0x86>
                if (thread->event_set & event->set)
 8010222:	6a9a      	ldr	r2, [r3, #40]	; 0x28
 8010224:	69e1      	ldr	r1, [r4, #28]
 8010226:	400a      	ands	r2, r1
 8010228:	d002      	beq.n	8010230 <rt_event_send+0x82>
                    thread->event_set = thread->event_set & event->set;
 801022a:	629a      	str	r2, [r3, #40]	; 0x28
            n = n->next;
 801022c:	681e      	ldr	r6, [r3, #0]
 801022e:	e7d8      	b.n	80101e2 <rt_event_send+0x34>
 8010230:	681b      	ldr	r3, [r3, #0]
 8010232:	e7e4      	b.n	80101fe <rt_event_send+0x50>
 8010234:	681b      	ldr	r3, [r3, #0]
 8010236:	e7e2      	b.n	80101fe <rt_event_send+0x50>
        rt_schedule();
 8010238:	f000 fd64 	bl	8010d04 <rt_schedule>
    return RT_EOK;
 801023c:	2000      	movs	r0, #0
 801023e:	e7ce      	b.n	80101de <rt_event_send+0x30>
        return -RT_ERROR;
 8010240:	f04f 30ff 	mov.w	r0, #4294967295
}
 8010244:	4770      	bx	lr

08010246 <rt_event_recv>:
rt_err_t rt_event_recv(rt_event_t   event,
                       rt_uint32_t  set,
                       rt_uint8_t   option,
                       rt_int32_t   timeout,
                       rt_uint32_t *recved)
{
 8010246:	e92d 41f0 	stmdb	sp!, {r4, r5, r6, r7, r8, lr}
 801024a:	b082      	sub	sp, #8
 801024c:	9301      	str	r3, [sp, #4]
    //检查参数
    /* parameter check */
    RT_ASSERT(event != RT_NULL);
    RT_ASSERT(rt_object_get_type(&event->parent.parent) == RT_Object_Class_Event);

    if (set == 0)
 801024e:	2900      	cmp	r1, #0
 8010250:	f000 808a 	beq.w	8010368 <rt_event_recv+0x122>
 8010254:	4688      	mov	r8, r1
 8010256:	4615      	mov	r5, r2
 8010258:	4606      	mov	r6, r0
    //初始化状态
    /* init status */
    status = -RT_ERROR;
    //获得当前线程
    /* get current thread */
    thread = rt_thread_self();
 801025a:	f7fe ff95 	bl	800f188 <rt_thread_self>
 801025e:	4604      	mov	r4, r0
    //重置线程错误码
    /* reset thread error */
    thread->error = RT_EOK;
 8010260:	2300      	movs	r3, #0
 8010262:	6303      	str	r3, [r0, #48]	; 0x30

    RT_OBJECT_HOOK_CALL(rt_object_trytake_hook, (&(event->parent.parent)));

    //关中断
    /* disable interrupt */
    level = rt_hw_interrupt_disable();
 8010264:	f7fd faec 	bl	800d840 <rt_hw_interrupt_disable>
 8010268:	4607      	mov	r7, r0

    //检查事件位
    /* check event set */
    if (option & RT_EVENT_FLAG_AND)
 801026a:	f015 0f01 	tst.w	r5, #1
 801026e:	d00e      	beq.n	801028e <rt_event_recv+0x48>
    {
        if ((event->set & set) == set)
 8010270:	69f3      	ldr	r3, [r6, #28]
 8010272:	ea38 0303 	bics.w	r3, r8, r3
 8010276:	d011      	beq.n	801029c <rt_event_recv+0x56>
        //接收事件清除
        /* received event */
        if (option & RT_EVENT_FLAG_CLEAR)
            event->set &= ~set;
    }
    else if (timeout == 0)
 8010278:	9b01      	ldr	r3, [sp, #4]
 801027a:	b9f3      	cbnz	r3, 80102ba <rt_event_recv+0x74>
    {
        /* no waiting */
        thread->error = -RT_ETIMEOUT;
 801027c:	f06f 0301 	mvn.w	r3, #1
 8010280:	6323      	str	r3, [r4, #48]	; 0x30
        if (recved)
            *recved = thread->event_set;
    }

    /* enable interrupt */
    rt_hw_interrupt_enable(level);
 8010282:	f7fd fae1 	bl	800d848 <rt_hw_interrupt_enable>

    RT_OBJECT_HOOK_CALL(rt_object_take_hook, (&(event->parent.parent)));

    return thread->error;
 8010286:	6b20      	ldr	r0, [r4, #48]	; 0x30
}
 8010288:	b002      	add	sp, #8
 801028a:	e8bd 81f0 	ldmia.w	sp!, {r4, r5, r6, r7, r8, pc}
    else if (option & RT_EVENT_FLAG_OR)
 801028e:	f015 0f02 	tst.w	r5, #2
 8010292:	d0f1      	beq.n	8010278 <rt_event_recv+0x32>
        if (event->set & set)
 8010294:	69f3      	ldr	r3, [r6, #28]
 8010296:	ea13 0f08 	tst.w	r3, r8
 801029a:	d0ed      	beq.n	8010278 <rt_event_recv+0x32>
        if (recved)
 801029c:	9b08      	ldr	r3, [sp, #32]
 801029e:	b123      	cbz	r3, 80102aa <rt_event_recv+0x64>
            *recved = (event->set & set);
 80102a0:	69f3      	ldr	r3, [r6, #28]
 80102a2:	ea03 0308 	and.w	r3, r3, r8
 80102a6:	9a08      	ldr	r2, [sp, #32]
 80102a8:	6013      	str	r3, [r2, #0]
        if (option & RT_EVENT_FLAG_CLEAR)
 80102aa:	f015 0f04 	tst.w	r5, #4
 80102ae:	d0e8      	beq.n	8010282 <rt_event_recv+0x3c>
            event->set &= ~set;
 80102b0:	69f3      	ldr	r3, [r6, #28]
 80102b2:	ea23 0308 	bic.w	r3, r3, r8
 80102b6:	61f3      	str	r3, [r6, #28]
 80102b8:	e7e3      	b.n	8010282 <rt_event_recv+0x3c>
        thread->event_set  = set;
 80102ba:	f8c4 803c 	str.w	r8, [r4, #60]	; 0x3c
        thread->event_info = option;
 80102be:	f884 5040 	strb.w	r5, [r4, #64]	; 0x40
        rt_ipc_list_suspend(&(event->parent.suspend_thread),
 80102c2:	f106 0514 	add.w	r5, r6, #20
 80102c6:	f896 8009 	ldrb.w	r8, [r6, #9]
    rt_thread_suspend(thread);
 80102ca:	4620      	mov	r0, r4
 80102cc:	f7ff f80a 	bl	800f2e4 <rt_thread_suspend>
    switch (flag)
 80102d0:	f1b8 0f00 	cmp.w	r8, #0
 80102d4:	d016      	beq.n	8010304 <rt_event_recv+0xbe>
 80102d6:	f1b8 0f01 	cmp.w	r8, #1
 80102da:	d01c      	beq.n	8010316 <rt_event_recv+0xd0>
        if (timeout > 0)
 80102dc:	9b01      	ldr	r3, [sp, #4]
 80102de:	2b00      	cmp	r3, #0
 80102e0:	dc37      	bgt.n	8010352 <rt_event_recv+0x10c>
        rt_hw_interrupt_enable(level);
 80102e2:	4638      	mov	r0, r7
 80102e4:	f7fd fab0 	bl	800d848 <rt_hw_interrupt_enable>
        rt_schedule();
 80102e8:	f000 fd0c 	bl	8010d04 <rt_schedule>
        if (thread->error != RT_EOK)
 80102ec:	6b20      	ldr	r0, [r4, #48]	; 0x30
 80102ee:	2800      	cmp	r0, #0
 80102f0:	d1ca      	bne.n	8010288 <rt_event_recv+0x42>
        level = rt_hw_interrupt_disable();
 80102f2:	f7fd faa5 	bl	800d840 <rt_hw_interrupt_disable>
        if (recved)
 80102f6:	9b08      	ldr	r3, [sp, #32]
 80102f8:	2b00      	cmp	r3, #0
 80102fa:	d0c2      	beq.n	8010282 <rt_event_recv+0x3c>
            *recved = thread->event_set;
 80102fc:	6be3      	ldr	r3, [r4, #60]	; 0x3c
 80102fe:	9a08      	ldr	r2, [sp, #32]
 8010300:	6013      	str	r3, [r2, #0]
 8010302:	e7be      	b.n	8010282 <rt_event_recv+0x3c>
        rt_list_insert_before(list, &(thread->tlist));
 8010304:	f104 0314 	add.w	r3, r4, #20
    l->prev->next = n;
 8010308:	686a      	ldr	r2, [r5, #4]
 801030a:	6013      	str	r3, [r2, #0]
    n->prev = l->prev;
 801030c:	686a      	ldr	r2, [r5, #4]
 801030e:	61a2      	str	r2, [r4, #24]
    l->prev = n;
 8010310:	606b      	str	r3, [r5, #4]
    n->next = l;
 8010312:	6165      	str	r5, [r4, #20]
 8010314:	e7e2      	b.n	80102dc <rt_event_recv+0x96>
            for (n = list->next; n != list; n = n->next)
 8010316:	6973      	ldr	r3, [r6, #20]
 8010318:	e000      	b.n	801031c <rt_event_recv+0xd6>
 801031a:	681b      	ldr	r3, [r3, #0]
 801031c:	429d      	cmp	r5, r3
 801031e:	d00d      	beq.n	801033c <rt_event_recv+0xf6>
                if (thread->current_priority < sthread->current_priority)
 8010320:	f894 1035 	ldrb.w	r1, [r4, #53]	; 0x35
 8010324:	f893 2021 	ldrb.w	r2, [r3, #33]	; 0x21
 8010328:	4291      	cmp	r1, r2
 801032a:	d2f6      	bcs.n	801031a <rt_event_recv+0xd4>
                    rt_list_insert_before(&(sthread->tlist), &(thread->tlist));
 801032c:	f104 0214 	add.w	r2, r4, #20
    l->prev->next = n;
 8010330:	6859      	ldr	r1, [r3, #4]
 8010332:	600a      	str	r2, [r1, #0]
    n->prev = l->prev;
 8010334:	6859      	ldr	r1, [r3, #4]
 8010336:	61a1      	str	r1, [r4, #24]
    l->prev = n;
 8010338:	605a      	str	r2, [r3, #4]
    n->next = l;
 801033a:	6163      	str	r3, [r4, #20]
            if (n == list)
 801033c:	429d      	cmp	r5, r3
 801033e:	d1cd      	bne.n	80102dc <rt_event_recv+0x96>
                rt_list_insert_before(list, &(thread->tlist));
 8010340:	f104 0314 	add.w	r3, r4, #20
    l->prev->next = n;
 8010344:	686a      	ldr	r2, [r5, #4]
 8010346:	6013      	str	r3, [r2, #0]
    n->prev = l->prev;
 8010348:	686a      	ldr	r2, [r5, #4]
 801034a:	61a2      	str	r2, [r4, #24]
    l->prev = n;
 801034c:	606b      	str	r3, [r5, #4]
    n->next = l;
 801034e:	6165      	str	r5, [r4, #20]
 8010350:	e7c4      	b.n	80102dc <rt_event_recv+0x96>
            rt_timer_control(&(thread->thread_timer),
 8010352:	f104 054c 	add.w	r5, r4, #76	; 0x4c
 8010356:	aa01      	add	r2, sp, #4
 8010358:	2100      	movs	r1, #0
 801035a:	4628      	mov	r0, r5
 801035c:	f7ff f946 	bl	800f5ec <rt_timer_control>
            rt_timer_start(&(thread->thread_timer));
 8010360:	4628      	mov	r0, r5
 8010362:	f7ff f8bf 	bl	800f4e4 <rt_timer_start>
 8010366:	e7bc      	b.n	80102e2 <rt_event_recv+0x9c>
        return -RT_ERROR;
 8010368:	f04f 30ff 	mov.w	r0, #4294967295
 801036c:	e78c      	b.n	8010288 <rt_event_recv+0x42>

0801036e <rt_mq_delete>:
 * @param mq the message queue object
 *
 * @return the error code
 */
rt_err_t rt_mq_delete(rt_mq_t mq)
{
 801036e:	b570      	push	{r4, r5, r6, lr}
 8010370:	4606      	mov	r6, r0
    RT_ASSERT(mq != RT_NULL);
    RT_ASSERT(rt_object_get_type(&mq->parent.parent) == RT_Object_Class_MessageQueue);
    RT_ASSERT(rt_object_is_systemobject(&mq->parent.parent) == RT_FALSE);

    /* resume all suspended thread */
    rt_ipc_list_resume_all(&(mq->parent.suspend_thread));
 8010372:	f100 0414 	add.w	r4, r0, #20
 8010376:	e00c      	b.n	8010392 <rt_mq_delete+0x24>
        temp = rt_hw_interrupt_disable();
 8010378:	f7fd fa62 	bl	800d840 <rt_hw_interrupt_disable>
 801037c:	4605      	mov	r5, r0
        thread = rt_list_entry(list->next, struct rt_thread, tlist);
 801037e:	6820      	ldr	r0, [r4, #0]
        thread->error = -RT_ERROR;
 8010380:	f04f 33ff 	mov.w	r3, #4294967295
 8010384:	61c3      	str	r3, [r0, #28]
        rt_thread_resume(thread);
 8010386:	3814      	subs	r0, #20
 8010388:	f7fe fffa 	bl	800f380 <rt_thread_resume>
        rt_hw_interrupt_enable(temp);
 801038c:	4628      	mov	r0, r5
 801038e:	f7fd fa5b 	bl	800d848 <rt_hw_interrupt_enable>
    return l->next == l;
 8010392:	6823      	ldr	r3, [r4, #0]
    while (!rt_list_isempty(list))
 8010394:	429c      	cmp	r4, r3
 8010396:	d1ef      	bne.n	8010378 <rt_mq_delete+0xa>

    /* free message queue pool */
    RT_KERNEL_FREE(mq->msg_pool);
 8010398:	69f0      	ldr	r0, [r6, #28]
 801039a:	f001 fbc9 	bl	8011b30 <rt_free>

    /* delete message queue object */
    rt_object_delete(&(mq->parent.parent));
 801039e:	4630      	mov	r0, r6
 80103a0:	f7ff fb29 	bl	800f9f6 <rt_object_delete>

    return RT_EOK;
}
 80103a4:	2000      	movs	r0, #0
 80103a6:	bd70      	pop	{r4, r5, r6, pc}

080103a8 <rt_mq_create>:
{
 80103a8:	b5f8      	push	{r3, r4, r5, r6, r7, lr}
 80103aa:	460d      	mov	r5, r1
 80103ac:	4616      	mov	r6, r2
 80103ae:	461f      	mov	r7, r3
    mq = (rt_mq_t)rt_object_allocate(RT_Object_Class_MessageQueue, name);
 80103b0:	4601      	mov	r1, r0
 80103b2:	2006      	movs	r0, #6
 80103b4:	f7ff faf7 	bl	800f9a6 <rt_object_allocate>
    if (mq == RT_NULL)
 80103b8:	4604      	mov	r4, r0
 80103ba:	b360      	cbz	r0, 8010416 <rt_mq_create+0x6e>
    mq->parent.parent.flag = flag;
 80103bc:	7247      	strb	r7, [r0, #9]
    rt_list_init(&(ipc->suspend_thread));
 80103be:	f100 0314 	add.w	r3, r0, #20
    l->next = l->prev = l;
 80103c2:	6183      	str	r3, [r0, #24]
 80103c4:	6143      	str	r3, [r0, #20]
    mq->msg_size = RT_ALIGN(msg_size, RT_ALIGN_SIZE);
 80103c6:	1ceb      	adds	r3, r5, #3
 80103c8:	b29b      	uxth	r3, r3
 80103ca:	f023 0303 	bic.w	r3, r3, #3
 80103ce:	b29b      	uxth	r3, r3
 80103d0:	8403      	strh	r3, [r0, #32]
    mq->max_msgs = max_msgs;
 80103d2:	b2b0      	uxth	r0, r6
 80103d4:	8460      	strh	r0, [r4, #34]	; 0x22
    mq->msg_pool = RT_KERNEL_MALLOC((mq->msg_size + sizeof(struct rt_mq_message)) * mq->max_msgs);
 80103d6:	3304      	adds	r3, #4
 80103d8:	fb00 f003 	mul.w	r0, r0, r3
 80103dc:	f001 fb1a 	bl	8011a14 <rt_malloc>
 80103e0:	61e0      	str	r0, [r4, #28]
    if (mq->msg_pool == RT_NULL)
 80103e2:	b120      	cbz	r0, 80103ee <rt_mq_create+0x46>
    mq->msg_queue_head = RT_NULL;
 80103e4:	2200      	movs	r2, #0
 80103e6:	62a2      	str	r2, [r4, #40]	; 0x28
    mq->msg_queue_tail = RT_NULL;
 80103e8:	62e2      	str	r2, [r4, #44]	; 0x2c
    mq->msg_queue_free = RT_NULL;
 80103ea:	6322      	str	r2, [r4, #48]	; 0x30
    for (temp = 0; temp < mq->max_msgs; temp ++)
 80103ec:	e00e      	b.n	801040c <rt_mq_create+0x64>
        rt_mq_delete(mq);
 80103ee:	4620      	mov	r0, r4
 80103f0:	f7ff ffbd 	bl	801036e <rt_mq_delete>
        return RT_NULL;
 80103f4:	2400      	movs	r4, #0
 80103f6:	e00e      	b.n	8010416 <rt_mq_create+0x6e>
        head = (struct rt_mq_message *)((rt_uint8_t *)mq->msg_pool +
 80103f8:	69e1      	ldr	r1, [r4, #28]
                                        temp * (mq->msg_size + sizeof(struct rt_mq_message)));
 80103fa:	8c23      	ldrh	r3, [r4, #32]
 80103fc:	3304      	adds	r3, #4
 80103fe:	fb03 f302 	mul.w	r3, r3, r2
        head = (struct rt_mq_message *)((rt_uint8_t *)mq->msg_pool +
 8010402:	18c8      	adds	r0, r1, r3
        head->next = mq->msg_queue_free;
 8010404:	6b25      	ldr	r5, [r4, #48]	; 0x30
 8010406:	50cd      	str	r5, [r1, r3]
        mq->msg_queue_free = head;
 8010408:	6320      	str	r0, [r4, #48]	; 0x30
    for (temp = 0; temp < mq->max_msgs; temp ++)
 801040a:	3201      	adds	r2, #1
 801040c:	8c63      	ldrh	r3, [r4, #34]	; 0x22
 801040e:	4293      	cmp	r3, r2
 8010410:	dcf2      	bgt.n	80103f8 <rt_mq_create+0x50>
    mq->entry = 0;
 8010412:	2300      	movs	r3, #0
 8010414:	84a3      	strh	r3, [r4, #36]	; 0x24
}
 8010416:	4620      	mov	r0, r4
 8010418:	bdf8      	pop	{r3, r4, r5, r6, r7, pc}

0801041a <rt_mq_send>:
//         buffer：需要发送的消息的缓冲区
//         size：需要发送的消息的大小
//功能概要： 将消息放到消息队列中
//=========================================================================
rt_err_t rt_mq_send(rt_mq_t mq, void *buffer, rt_size_t size)
{
 801041a:	b5f8      	push	{r3, r4, r5, r6, r7, lr}
    RT_ASSERT(buffer != RT_NULL); //发送的消息是否为空
    RT_ASSERT(size != 0); //发送的消息大小是否为0

    //（3）判断需要发送的消息的大小
    /* greater than one message size */
    if (size > mq->msg_size)
 801041c:	8c03      	ldrh	r3, [r0, #32]
 801041e:	4293      	cmp	r3, r2
 8010420:	d339      	bcc.n	8010496 <rt_mq_send+0x7c>
 8010422:	4616      	mov	r6, r2
 8010424:	460f      	mov	r7, r1
 8010426:	4604      	mov	r4, r0

    RT_OBJECT_HOOK_CALL(rt_object_put_hook, (&(mq->parent.parent)));

    //关中断
    /* disable interrupt */
    temp = rt_hw_interrupt_disable();
 8010428:	f7fd fa0a 	bl	800d840 <rt_hw_interrupt_disable>

    //（4）获取一个空闲链表，必须有一个空闲链表项
    /* get a free list, there must be an empty item */
    msg = (struct rt_mq_message *)mq->msg_queue_free;
 801042c:	6b25      	ldr	r5, [r4, #48]	; 0x30
    //（4.1）如果没有空闲链表
    /* message queue is full */
    if (msg == RT_NULL)
 801042e:	b335      	cbz	r5, 801047e <rt_mq_send+0x64>
    }


    //若空闲列表不为空，移动空闲链表指针
    /* move free list pointer */
    mq->msg_queue_free = msg->next;
 8010430:	682b      	ldr	r3, [r5, #0]
 8010432:	6323      	str	r3, [r4, #48]	; 0x30

    //开中断
    /* enable interrupt */
    rt_hw_interrupt_enable(temp);
 8010434:	f7fd fa08 	bl	800d848 <rt_hw_interrupt_enable>


    /* the msg is the new tailer of list, the next shall be NULL */
    msg->next = RT_NULL;  //这个消息是新链表的尾部，其下一个指针为RT_NULL
 8010438:	4628      	mov	r0, r5
 801043a:	2300      	movs	r3, #0
 801043c:	f840 3b04 	str.w	r3, [r0], #4

    //（4.3）复制消息内容
    /* copy buffer */
    rt_memcpy(msg + 1, buffer, size); //拷贝消息至msg + 1地址处
 8010440:	4632      	mov	r2, r6
 8010442:	4639      	mov	r1, r7
 8010444:	f000 f9b5 	bl	80107b2 <rt_memcpy>

	

    //关总中断
    /* disable interrupt */
    temp = rt_hw_interrupt_disable();
 8010448:	f7fd f9fa 	bl	800d840 <rt_hw_interrupt_disable>
 801044c:	4606      	mov	r6, r0
    //（4.4）将消息放入消息队列
    /* link msg to message queue */
    if (mq->msg_queue_tail != RT_NULL) //若已经存在消息队列尾部链表
 801044e:	6ae3      	ldr	r3, [r4, #44]	; 0x2c
 8010450:	b103      	cbz	r3, 8010454 <rt_mq_send+0x3a>
    {
        /* if the tail exists, */
    	//尾部的next指针指向该消息
        ((struct rt_mq_message *)mq->msg_queue_tail)->next = msg;
 8010452:	601d      	str	r5, [r3, #0]
    }

    //设置新的消息队列尾部链表
    /* set new tail */
    mq->msg_queue_tail = msg;
 8010454:	62e5      	str	r5, [r4, #44]	; 0x2c
    //如果头部链表是空的，则设置头部链表指针
    /* if the head is empty, set head */
    if (mq->msg_queue_head == RT_NULL)
 8010456:	6aa3      	ldr	r3, [r4, #40]	; 0x28
 8010458:	b1b3      	cbz	r3, 8010488 <rt_mq_send+0x6e>
        mq->msg_queue_head = msg;

    //（4.5）消息个数加一
    /* increase message entry */
    mq->entry ++;
 801045a:	8ca3      	ldrh	r3, [r4, #36]	; 0x24
 801045c:	3301      	adds	r3, #1
 801045e:	84a3      	strh	r3, [r4, #36]	; 0x24

    

    //（5）若有线程因等待消息而阻塞，则将该线性从阻塞队列中恢复
    /* resume suspended thread */
    if (!rt_list_isempty(&mq->parent.suspend_thread))
 8010460:	f104 0314 	add.w	r3, r4, #20
    return l->next == l;
 8010464:	6960      	ldr	r0, [r4, #20]
 8010466:	4283      	cmp	r3, r0
 8010468:	d010      	beq.n	801048c <rt_mq_send+0x72>
    rt_thread_resume(thread);
 801046a:	3814      	subs	r0, #20
 801046c:	f7fe ff88 	bl	800f380 <rt_thread_resume>
    {
        rt_ipc_list_resume(&(mq->parent.suspend_thread));

        /* enable interrupt */
        rt_hw_interrupt_enable(temp); //开中断
 8010470:	4630      	mov	r0, r6
 8010472:	f7fd f9e9 	bl	800d848 <rt_hw_interrupt_enable>

        rt_schedule();//发起一次线程调度
 8010476:	f000 fc45 	bl	8010d04 <rt_schedule>

        return RT_EOK;
 801047a:	2000      	movs	r0, #0
//    开中断
    /* enable interrupt */
    rt_hw_interrupt_enable(temp);

    return RT_EOK;
}
 801047c:	bdf8      	pop	{r3, r4, r5, r6, r7, pc}
        rt_hw_interrupt_enable(temp);
 801047e:	f7fd f9e3 	bl	800d848 <rt_hw_interrupt_enable>
        return -RT_EFULL;
 8010482:	f06f 0002 	mvn.w	r0, #2
 8010486:	e7f9      	b.n	801047c <rt_mq_send+0x62>
        mq->msg_queue_head = msg;
 8010488:	62a5      	str	r5, [r4, #40]	; 0x28
 801048a:	e7e6      	b.n	801045a <rt_mq_send+0x40>
    rt_hw_interrupt_enable(temp);
 801048c:	4630      	mov	r0, r6
 801048e:	f7fd f9db 	bl	800d848 <rt_hw_interrupt_enable>
    return RT_EOK;
 8010492:	2000      	movs	r0, #0
 8010494:	e7f2      	b.n	801047c <rt_mq_send+0x62>
        return -RT_ERROR;
 8010496:	f04f 30ff 	mov.w	r0, #4294967295
 801049a:	e7ef      	b.n	801047c <rt_mq_send+0x62>

0801049c <rt_mq_recv>:
//=========================================================================
rt_err_t rt_mq_recv(rt_mq_t    mq,
                    void      *buffer,
                    rt_size_t  size,
                    rt_int32_t timeout)
{
 801049c:	e92d 4ff0 	stmdb	sp!, {r4, r5, r6, r7, r8, r9, sl, fp, lr}
 80104a0:	b083      	sub	sp, #12
 80104a2:	4606      	mov	r6, r0
 80104a4:	4689      	mov	r9, r1
 80104a6:	4692      	mov	sl, r2
 80104a8:	9301      	str	r3, [sp, #4]
    //初始化延时滴答
    /* initialize delta tick */
    tick_delta = 0;
    //获取当前运行的线程
    /* get current thread */
    thread = rt_thread_self();
 80104aa:	f7fe fe6d 	bl	800f188 <rt_thread_self>
 80104ae:	4604      	mov	r4, r0
    RT_OBJECT_HOOK_CALL(rt_object_trytake_hook, (&(mq->parent.parent)));

    //关中断
    /* disable interrupt */
    temp = rt_hw_interrupt_disable();
 80104b0:	f7fd f9c6 	bl	800d840 <rt_hw_interrupt_disable>
 80104b4:	4607      	mov	r7, r0

    //消息数为0
    /* for non-blocking call */
    if (mq->entry == 0 && timeout == 0)
 80104b6:	8cb3      	ldrh	r3, [r6, #36]	; 0x24
 80104b8:	2b00      	cmp	r3, #0
 80104ba:	d177      	bne.n	80105ac <rt_mq_recv+0x110>
 80104bc:	9b01      	ldr	r3, [sp, #4]
 80104be:	b113      	cbz	r3, 80104c6 <rt_mq_recv+0x2a>
 80104c0:	f04f 0800 	mov.w	r8, #0
 80104c4:	e024      	b.n	8010510 <rt_mq_recv+0x74>
    {
        rt_hw_interrupt_enable(temp);
 80104c6:	f7fd f9bf 	bl	800d848 <rt_hw_interrupt_enable>

        return -RT_ETIMEOUT;
 80104ca:	f06f 0001 	mvn.w	r0, #1
 80104ce:	e08b      	b.n	80105e8 <rt_mq_recv+0x14c>
        //不等待 返回超时
        /* no waiting, return timeout */
        if (timeout == 0)
        {
            /* enable interrupt */
            rt_hw_interrupt_enable(temp);
 80104d0:	4638      	mov	r0, r7
 80104d2:	f7fd f9b9 	bl	800d848 <rt_hw_interrupt_enable>

            thread->error = -RT_ETIMEOUT;
 80104d6:	f06f 0001 	mvn.w	r0, #1
 80104da:	6320      	str	r0, [r4, #48]	; 0x30

            return -RT_ETIMEOUT;
 80104dc:	e084      	b.n	80105e8 <rt_mq_recv+0x14c>
        rt_list_insert_before(list, &(thread->tlist));
 80104de:	f104 0314 	add.w	r3, r4, #20
    l->prev->next = n;
 80104e2:	686a      	ldr	r2, [r5, #4]
 80104e4:	6013      	str	r3, [r2, #0]
    n->prev = l->prev;
 80104e6:	686a      	ldr	r2, [r5, #4]
 80104e8:	61a2      	str	r2, [r4, #24]
    l->prev = n;
 80104ea:	606b      	str	r3, [r5, #4]
    n->next = l;
 80104ec:	6165      	str	r5, [r4, #20]
                            thread,
                            mq->parent.parent.flag);

        //有等待时间 启动线程计时器
        /* has waiting time, start thread timer */
        if (timeout > 0)
 80104ee:	9b01      	ldr	r3, [sp, #4]
 80104f0:	2b00      	cmp	r3, #0
 80104f2:	dc40      	bgt.n	8010576 <rt_mq_recv+0xda>
            rt_timer_start(&(thread->thread_timer));
        }

        //开中断
        /* enable interrupt */
        rt_hw_interrupt_enable(temp);
 80104f4:	4638      	mov	r0, r7
 80104f6:	f7fd f9a7 	bl	800d848 <rt_hw_interrupt_enable>

        //线程调度
        /* re-schedule */
        rt_schedule();
 80104fa:	f000 fc03 	bl	8010d04 <rt_schedule>

        /* recv message */
        if (thread->error != RT_EOK)
 80104fe:	6b20      	ldr	r0, [r4, #48]	; 0x30
 8010500:	2800      	cmp	r0, #0
 8010502:	d171      	bne.n	80105e8 <rt_mq_recv+0x14c>
            /* return error */
            return thread->error;
        }

        /* disable interrupt */
        temp = rt_hw_interrupt_disable();
 8010504:	f7fd f99c 	bl	800d840 <rt_hw_interrupt_disable>
 8010508:	4607      	mov	r7, r0

        /* if it's not waiting forever and then re-calculate timeout tick */
        if (timeout > 0)
 801050a:	9b01      	ldr	r3, [sp, #4]
 801050c:	2b00      	cmp	r3, #0
 801050e:	dc40      	bgt.n	8010592 <rt_mq_recv+0xf6>
    while (mq->entry == 0)
 8010510:	8cb3      	ldrh	r3, [r6, #36]	; 0x24
 8010512:	2b00      	cmp	r3, #0
 8010514:	d14d      	bne.n	80105b2 <rt_mq_recv+0x116>
        thread->error = RT_EOK;
 8010516:	2300      	movs	r3, #0
 8010518:	6323      	str	r3, [r4, #48]	; 0x30
        if (timeout == 0)
 801051a:	9b01      	ldr	r3, [sp, #4]
 801051c:	2b00      	cmp	r3, #0
 801051e:	d0d7      	beq.n	80104d0 <rt_mq_recv+0x34>
        rt_ipc_list_suspend(&(mq->parent.suspend_thread),
 8010520:	f106 0514 	add.w	r5, r6, #20
 8010524:	f896 b009 	ldrb.w	fp, [r6, #9]
    rt_thread_suspend(thread);
 8010528:	4620      	mov	r0, r4
 801052a:	f7fe fedb 	bl	800f2e4 <rt_thread_suspend>
    switch (flag)
 801052e:	f1bb 0f00 	cmp.w	fp, #0
 8010532:	d0d4      	beq.n	80104de <rt_mq_recv+0x42>
 8010534:	f1bb 0f01 	cmp.w	fp, #1
 8010538:	d1d9      	bne.n	80104ee <rt_mq_recv+0x52>
            for (n = list->next; n != list; n = n->next)
 801053a:	6973      	ldr	r3, [r6, #20]
 801053c:	429d      	cmp	r5, r3
 801053e:	d00f      	beq.n	8010560 <rt_mq_recv+0xc4>
                if (thread->current_priority < sthread->current_priority)
 8010540:	f894 1035 	ldrb.w	r1, [r4, #53]	; 0x35
 8010544:	f893 2021 	ldrb.w	r2, [r3, #33]	; 0x21
 8010548:	4291      	cmp	r1, r2
 801054a:	d301      	bcc.n	8010550 <rt_mq_recv+0xb4>
            for (n = list->next; n != list; n = n->next)
 801054c:	681b      	ldr	r3, [r3, #0]
 801054e:	e7f5      	b.n	801053c <rt_mq_recv+0xa0>
                    rt_list_insert_before(&(sthread->tlist), &(thread->tlist));
 8010550:	f104 0214 	add.w	r2, r4, #20
    l->prev->next = n;
 8010554:	6859      	ldr	r1, [r3, #4]
 8010556:	600a      	str	r2, [r1, #0]
    n->prev = l->prev;
 8010558:	6859      	ldr	r1, [r3, #4]
 801055a:	61a1      	str	r1, [r4, #24]
    l->prev = n;
 801055c:	605a      	str	r2, [r3, #4]
    n->next = l;
 801055e:	6163      	str	r3, [r4, #20]
            if (n == list)
 8010560:	429d      	cmp	r5, r3
 8010562:	d1c4      	bne.n	80104ee <rt_mq_recv+0x52>
                rt_list_insert_before(list, &(thread->tlist));
 8010564:	f104 0314 	add.w	r3, r4, #20
    l->prev->next = n;
 8010568:	686a      	ldr	r2, [r5, #4]
 801056a:	6013      	str	r3, [r2, #0]
    n->prev = l->prev;
 801056c:	686a      	ldr	r2, [r5, #4]
 801056e:	61a2      	str	r2, [r4, #24]
    l->prev = n;
 8010570:	606b      	str	r3, [r5, #4]
    n->next = l;
 8010572:	6165      	str	r5, [r4, #20]
 8010574:	e7bb      	b.n	80104ee <rt_mq_recv+0x52>
            tick_delta = rt_tick_get();
 8010576:	f000 fb6b 	bl	8010c50 <rt_tick_get>
 801057a:	4680      	mov	r8, r0
            rt_timer_control(&(thread->thread_timer),
 801057c:	f104 054c 	add.w	r5, r4, #76	; 0x4c
 8010580:	aa01      	add	r2, sp, #4
 8010582:	2100      	movs	r1, #0
 8010584:	4628      	mov	r0, r5
 8010586:	f7ff f831 	bl	800f5ec <rt_timer_control>
            rt_timer_start(&(thread->thread_timer));
 801058a:	4628      	mov	r0, r5
 801058c:	f7fe ffaa 	bl	800f4e4 <rt_timer_start>
 8010590:	e7b0      	b.n	80104f4 <rt_mq_recv+0x58>
        {
            tick_delta = rt_tick_get() - tick_delta;
 8010592:	f000 fb5d 	bl	8010c50 <rt_tick_get>
 8010596:	eba0 0808 	sub.w	r8, r0, r8
            timeout -= tick_delta;
 801059a:	9b01      	ldr	r3, [sp, #4]
 801059c:	eba3 0308 	sub.w	r3, r3, r8
 80105a0:	9301      	str	r3, [sp, #4]
            if (timeout < 0)
 80105a2:	2b00      	cmp	r3, #0
 80105a4:	dab4      	bge.n	8010510 <rt_mq_recv+0x74>
                timeout = 0;
 80105a6:	2300      	movs	r3, #0
 80105a8:	9301      	str	r3, [sp, #4]
 80105aa:	e7b1      	b.n	8010510 <rt_mq_recv+0x74>
 80105ac:	f04f 0800 	mov.w	r8, #0
 80105b0:	e7ae      	b.n	8010510 <rt_mq_recv+0x74>

//    printf("2-3.从等待队列中移除接收线程\n");
//    printf("2-4.接收线程开始接收消息\n");
    //获取消息队列的头指针
    /* get message from queue */
    msg = (struct rt_mq_message *)mq->msg_queue_head;
 80105b2:	6ab4      	ldr	r4, [r6, #40]	; 0x28

    //移动消息队列的头指针
    /* move message queue head */
    mq->msg_queue_head = msg->next;
 80105b4:	6822      	ldr	r2, [r4, #0]
 80105b6:	62b2      	str	r2, [r6, #40]	; 0x28
    /* reach queue tail, set to NULL */  //若到达消息队列尾部
    if (mq->msg_queue_tail == msg)
 80105b8:	6af2      	ldr	r2, [r6, #44]	; 0x2c
 80105ba:	42a2      	cmp	r2, r4
 80105bc:	d017      	beq.n	80105ee <rt_mq_recv+0x152>
        mq->msg_queue_tail = RT_NULL;

    //消息数减一
    /* decrease message entry */
    mq->entry --;
 80105be:	3b01      	subs	r3, #1
 80105c0:	84b3      	strh	r3, [r6, #36]	; 0x24

    //开中断
    /* enable interrupt */
    rt_hw_interrupt_enable(temp);
 80105c2:	4638      	mov	r0, r7
 80105c4:	f7fd f940 	bl	800d848 <rt_hw_interrupt_enable>

    //将消息内容放入指定的存储地址
    /* copy message */
    rt_memcpy(buffer, msg + 1, size > mq->msg_size ? mq->msg_size : size);
 80105c8:	8c32      	ldrh	r2, [r6, #32]
 80105ca:	4552      	cmp	r2, sl
 80105cc:	bf28      	it	cs
 80105ce:	4652      	movcs	r2, sl
 80105d0:	1d21      	adds	r1, r4, #4
 80105d2:	4648      	mov	r0, r9
 80105d4:	f000 f8ed 	bl	80107b2 <rt_memcpy>


    /* disable interrupt */
    temp = rt_hw_interrupt_disable();
 80105d8:	f7fd f932 	bl	800d840 <rt_hw_interrupt_disable>

    //消息放入空闲列表
    /* put message to free list */
    msg->next = (struct rt_mq_message *)mq->msg_queue_free;
 80105dc:	6b33      	ldr	r3, [r6, #48]	; 0x30
 80105de:	6023      	str	r3, [r4, #0]
    mq->msg_queue_free = msg;
 80105e0:	6334      	str	r4, [r6, #48]	; 0x30

   
    /* enable interrupt */
    rt_hw_interrupt_enable(temp);
 80105e2:	f7fd f931 	bl	800d848 <rt_hw_interrupt_enable>

    RT_OBJECT_HOOK_CALL(rt_object_take_hook, (&(mq->parent.parent)));

    return RT_EOK;
 80105e6:	2000      	movs	r0, #0
}
 80105e8:	b003      	add	sp, #12
 80105ea:	e8bd 8ff0 	ldmia.w	sp!, {r4, r5, r6, r7, r8, r9, sl, fp, pc}
        mq->msg_queue_tail = RT_NULL;
 80105ee:	2200      	movs	r2, #0
 80105f0:	62f2      	str	r2, [r6, #44]	; 0x2c
 80105f2:	e7e4      	b.n	80105be <rt_mq_recv+0x122>

080105f4 <print_number>:
#endif
                          int   base,
                          int   s,
                          int   type)
#endif
{
 80105f4:	e92d 47f0 	stmdb	sp!, {r4, r5, r6, r7, r8, r9, sl, lr}
 80105f8:	b084      	sub	sp, #16
 80105fa:	9e0d      	ldr	r6, [sp, #52]	; 0x34
 80105fc:	9f0e      	ldr	r7, [sp, #56]	; 0x38
    register int i;
    register int size;

    size = s;

    digits = (type & LARGE) ? large_digits : small_digits;
 80105fe:	f017 0f40 	tst.w	r7, #64	; 0x40
 8010602:	d019      	beq.n	8010638 <print_number+0x44>
 8010604:	f8df 8150 	ldr.w	r8, [pc, #336]	; 8010758 <print_number+0x164>
    if (type & LEFT)
 8010608:	f017 0f10 	tst.w	r7, #16
 801060c:	d001      	beq.n	8010612 <print_number+0x1e>
        type &= ~ZEROPAD;
 801060e:	f027 0701 	bic.w	r7, r7, #1

    c = (type & ZEROPAD) ? '0' : ' ';
 8010612:	f017 0f01 	tst.w	r7, #1
 8010616:	d012      	beq.n	801063e <print_number+0x4a>
 8010618:	f04f 0c30 	mov.w	ip, #48	; 0x30

    /* get sign */
    sign = 0;
    if (type & SIGN)
 801061c:	f017 0f02 	tst.w	r7, #2
 8010620:	d014      	beq.n	801064c <print_number+0x58>
    {
        if (num < 0)
 8010622:	2a00      	cmp	r2, #0
 8010624:	db0e      	blt.n	8010644 <print_number+0x50>
        {
            sign = '-';
            num = -num;
        }
        else if (type & PLUS)
 8010626:	f017 0f04 	tst.w	r7, #4
 801062a:	d126      	bne.n	801067a <print_number+0x86>
            sign = '+';
        else if (type & SPACE)
 801062c:	f017 0f08 	tst.w	r7, #8
 8010630:	d126      	bne.n	8010680 <print_number+0x8c>
    sign = 0;
 8010632:	f04f 0e00 	mov.w	lr, #0
 8010636:	e00b      	b.n	8010650 <print_number+0x5c>
    digits = (type & LARGE) ? large_digits : small_digits;
 8010638:	f8df 8120 	ldr.w	r8, [pc, #288]	; 801075c <print_number+0x168>
 801063c:	e7e4      	b.n	8010608 <print_number+0x14>
    c = (type & ZEROPAD) ? '0' : ' ';
 801063e:	f04f 0c20 	mov.w	ip, #32
 8010642:	e7eb      	b.n	801061c <print_number+0x28>
            num = -num;
 8010644:	4252      	negs	r2, r2
            sign = '-';
 8010646:	f04f 0e2d 	mov.w	lr, #45	; 0x2d
 801064a:	e001      	b.n	8010650 <print_number+0x5c>
    sign = 0;
 801064c:	f04f 0e00 	mov.w	lr, #0
            size--;
    }
#endif

    i = 0;
    if (num == 0)
 8010650:	bba2      	cbnz	r2, 80106bc <print_number+0xc8>
        tmp[i++] = '0';
 8010652:	2330      	movs	r3, #48	; 0x30
 8010654:	f88d 3000 	strb.w	r3, [sp]
 8010658:	2401      	movs	r4, #1
        while (num != 0)
            tmp[i++] = digits[divide(&num, base)];
    }

#ifdef RT_PRINTF_PRECISION
    if (i > precision)
 801065a:	42b4      	cmp	r4, r6
 801065c:	dc30      	bgt.n	80106c0 <print_number+0xcc>
 801065e:	4635      	mov	r5, r6
        precision = i;
    size -= precision;
 8010660:	9a0c      	ldr	r2, [sp, #48]	; 0x30
 8010662:	1b52      	subs	r2, r2, r5
#else
    size -= i;
#endif

    if (!(type & (ZEROPAD | LEFT)))
 8010664:	f017 0f11 	tst.w	r7, #17
 8010668:	d136      	bne.n	80106d8 <print_number+0xe4>
    {
        if ((sign) && (size > 0))
 801066a:	f1be 0f00 	cmp.w	lr, #0
 801066e:	d002      	beq.n	8010676 <print_number+0x82>
 8010670:	2a00      	cmp	r2, #0
 8010672:	dd00      	ble.n	8010676 <print_number+0x82>
            size--;
 8010674:	3a01      	subs	r2, #1
        precision = i;
 8010676:	4613      	mov	r3, r2
 8010678:	e026      	b.n	80106c8 <print_number+0xd4>
            sign = '+';
 801067a:	f04f 0e2b 	mov.w	lr, #43	; 0x2b
 801067e:	e7e7      	b.n	8010650 <print_number+0x5c>
            sign = ' ';
 8010680:	f04f 0e20 	mov.w	lr, #32
 8010684:	e7e4      	b.n	8010650 <print_number+0x5c>
        res = (int)(((unsigned long)*n) % 10U);
 8010686:	4d33      	ldr	r5, [pc, #204]	; (8010754 <print_number+0x160>)
 8010688:	fba5 9502 	umull	r9, r5, r5, r2
 801068c:	08ed      	lsrs	r5, r5, #3
 801068e:	46aa      	mov	sl, r5
 8010690:	eb05 0585 	add.w	r5, r5, r5, lsl #2
 8010694:	ea4f 0945 	mov.w	r9, r5, lsl #1
 8010698:	eba2 0909 	sub.w	r9, r2, r9
        *n = (long)(((unsigned long)*n) / 10U);
 801069c:	4652      	mov	r2, sl
            tmp[i++] = digits[divide(&num, base)];
 801069e:	f818 9009 	ldrb.w	r9, [r8, r9]
 80106a2:	ad04      	add	r5, sp, #16
 80106a4:	4425      	add	r5, r4
 80106a6:	f805 9c10 	strb.w	r9, [r5, #-16]
 80106aa:	3401      	adds	r4, #1
        while (num != 0)
 80106ac:	2a00      	cmp	r2, #0
 80106ae:	d0d4      	beq.n	801065a <print_number+0x66>
    if (base == 10)
 80106b0:	2b0a      	cmp	r3, #10
 80106b2:	d0e8      	beq.n	8010686 <print_number+0x92>
        res = (int)(((unsigned long)*n) % 16U);
 80106b4:	f002 090f 	and.w	r9, r2, #15
        *n = (long)(((unsigned long)*n) / 16U);
 80106b8:	0912      	lsrs	r2, r2, #4
 80106ba:	e7f0      	b.n	801069e <print_number+0xaa>
    i = 0;
 80106bc:	2400      	movs	r4, #0
 80106be:	e7f5      	b.n	80106ac <print_number+0xb8>
        precision = i;
 80106c0:	4625      	mov	r5, r4
 80106c2:	e7cd      	b.n	8010660 <print_number+0x6c>

        while (size-- > 0)
        {
            if (buf < end)
                *buf = ' ';
            ++ buf;
 80106c4:	3001      	adds	r0, #1
        while (size-- > 0)
 80106c6:	4613      	mov	r3, r2
 80106c8:	1e5a      	subs	r2, r3, #1
 80106ca:	2b00      	cmp	r3, #0
 80106cc:	dd04      	ble.n	80106d8 <print_number+0xe4>
            if (buf < end)
 80106ce:	4288      	cmp	r0, r1
 80106d0:	d2f8      	bcs.n	80106c4 <print_number+0xd0>
                *buf = ' ';
 80106d2:	2320      	movs	r3, #32
 80106d4:	7003      	strb	r3, [r0, #0]
 80106d6:	e7f5      	b.n	80106c4 <print_number+0xd0>
        }
    }

    if (sign)
 80106d8:	f1be 0f00 	cmp.w	lr, #0
 80106dc:	d005      	beq.n	80106ea <print_number+0xf6>
    {
        if (buf < end)
 80106de:	4288      	cmp	r0, r1
 80106e0:	d201      	bcs.n	80106e6 <print_number+0xf2>
        {
            *buf = sign;
 80106e2:	f880 e000 	strb.w	lr, [r0]
        }
        -- size;
 80106e6:	3a01      	subs	r2, #1
        ++ buf;
 80106e8:	3001      	adds	r0, #1
        }
    }
#endif

    /* no align to the left */
    if (!(type & LEFT))
 80106ea:	f017 0f10 	tst.w	r7, #16
 80106ee:	d003      	beq.n	80106f8 <print_number+0x104>
 80106f0:	4613      	mov	r3, r2
 80106f2:	e00b      	b.n	801070c <print_number+0x118>
    {
        while (size-- > 0)
        {
            if (buf < end)
                *buf = c;
            ++ buf;
 80106f4:	3001      	adds	r0, #1
        while (size-- > 0)
 80106f6:	461a      	mov	r2, r3
 80106f8:	1e53      	subs	r3, r2, #1
 80106fa:	2a00      	cmp	r2, #0
 80106fc:	dd06      	ble.n	801070c <print_number+0x118>
            if (buf < end)
 80106fe:	4288      	cmp	r0, r1
 8010700:	d2f8      	bcs.n	80106f4 <print_number+0x100>
                *buf = c;
 8010702:	f880 c000 	strb.w	ip, [r0]
 8010706:	e7f5      	b.n	80106f4 <print_number+0x100>
#ifdef RT_PRINTF_PRECISION
    while (i < precision--)
    {
        if (buf < end)
            *buf = '0';
        ++ buf;
 8010708:	3001      	adds	r0, #1
    while (i < precision--)
 801070a:	4615      	mov	r5, r2
 801070c:	1e6a      	subs	r2, r5, #1
 801070e:	42a5      	cmp	r5, r4
 8010710:	dd06      	ble.n	8010720 <print_number+0x12c>
        if (buf < end)
 8010712:	4288      	cmp	r0, r1
 8010714:	d2f8      	bcs.n	8010708 <print_number+0x114>
            *buf = '0';
 8010716:	2530      	movs	r5, #48	; 0x30
 8010718:	7005      	strb	r5, [r0, #0]
 801071a:	e7f5      	b.n	8010708 <print_number+0x114>
    /* put number in the temporary buffer */
    while (i-- > 0 && (precision_bak != 0))
    {
        if (buf < end)
            *buf = tmp[i];
        ++ buf;
 801071c:	3001      	adds	r0, #1
    while (i-- > 0 && (precision_bak != 0))
 801071e:	4614      	mov	r4, r2
 8010720:	1e62      	subs	r2, r4, #1
 8010722:	2c00      	cmp	r4, #0
 8010724:	dd0a      	ble.n	801073c <print_number+0x148>
 8010726:	b14e      	cbz	r6, 801073c <print_number+0x148>
        if (buf < end)
 8010728:	4288      	cmp	r0, r1
 801072a:	d2f7      	bcs.n	801071c <print_number+0x128>
            *buf = tmp[i];
 801072c:	ac04      	add	r4, sp, #16
 801072e:	4414      	add	r4, r2
 8010730:	f814 4c10 	ldrb.w	r4, [r4, #-16]
 8010734:	7004      	strb	r4, [r0, #0]
 8010736:	e7f1      	b.n	801071c <print_number+0x128>

    while (size-- > 0)
    {
        if (buf < end)
            *buf = ' ';
        ++ buf;
 8010738:	3001      	adds	r0, #1
    while (size-- > 0)
 801073a:	4613      	mov	r3, r2
 801073c:	1e5a      	subs	r2, r3, #1
 801073e:	2b00      	cmp	r3, #0
 8010740:	dd04      	ble.n	801074c <print_number+0x158>
        if (buf < end)
 8010742:	4288      	cmp	r0, r1
 8010744:	d2f8      	bcs.n	8010738 <print_number+0x144>
            *buf = ' ';
 8010746:	2320      	movs	r3, #32
 8010748:	7003      	strb	r3, [r0, #0]
 801074a:	e7f5      	b.n	8010738 <print_number+0x144>
    }

    return buf;
}
 801074c:	b004      	add	sp, #16
 801074e:	e8bd 87f0 	ldmia.w	sp!, {r4, r5, r6, r7, r8, r9, sl, pc}
 8010752:	bf00      	nop
 8010754:	cccccccd 	.word	0xcccccccd
 8010758:	080126d4 	.word	0x080126d4
 801075c:	080126f0 	.word	0x080126f0

08010760 <rt_memset>:
{
 8010760:	b410      	push	{r4}
    if (!TOO_SMALL(count) && !UNALIGNED(s))
 8010762:	2a03      	cmp	r2, #3
 8010764:	d921      	bls.n	80107aa <rt_memset+0x4a>
 8010766:	b2cc      	uxtb	r4, r1
 8010768:	f010 0f03 	tst.w	r0, #3
 801076c:	d11f      	bne.n	80107ae <rt_memset+0x4e>
            buffer = (d << 8) | d;
 801076e:	ea44 2404 	orr.w	r4, r4, r4, lsl #8
            buffer |= (buffer << 16);
 8010772:	ea44 4404 	orr.w	r4, r4, r4, lsl #16
        aligned_addr = (unsigned long *)s;
 8010776:	4603      	mov	r3, r0
 8010778:	e005      	b.n	8010786 <rt_memset+0x26>
            *aligned_addr++ = buffer;
 801077a:	601c      	str	r4, [r3, #0]
            *aligned_addr++ = buffer;
 801077c:	605c      	str	r4, [r3, #4]
            *aligned_addr++ = buffer;
 801077e:	609c      	str	r4, [r3, #8]
            *aligned_addr++ = buffer;
 8010780:	60dc      	str	r4, [r3, #12]
            count -= 4 * LBLOCKSIZE;
 8010782:	3a10      	subs	r2, #16
            *aligned_addr++ = buffer;
 8010784:	3310      	adds	r3, #16
        while (count >= LBLOCKSIZE * 4)
 8010786:	2a0f      	cmp	r2, #15
 8010788:	d8f7      	bhi.n	801077a <rt_memset+0x1a>
 801078a:	e002      	b.n	8010792 <rt_memset+0x32>
            *aligned_addr++ = buffer;
 801078c:	601c      	str	r4, [r3, #0]
            count -= LBLOCKSIZE;
 801078e:	3a04      	subs	r2, #4
            *aligned_addr++ = buffer;
 8010790:	3304      	adds	r3, #4
        while (count >= LBLOCKSIZE)
 8010792:	2a03      	cmp	r2, #3
 8010794:	d8fa      	bhi.n	801078c <rt_memset+0x2c>
 8010796:	e002      	b.n	801079e <rt_memset+0x3e>
        *m++ = (char)d;
 8010798:	7019      	strb	r1, [r3, #0]
 801079a:	3301      	adds	r3, #1
    while (count--)
 801079c:	4622      	mov	r2, r4
 801079e:	1e54      	subs	r4, r2, #1
 80107a0:	2a00      	cmp	r2, #0
 80107a2:	d1f9      	bne.n	8010798 <rt_memset+0x38>
}
 80107a4:	f85d 4b04 	ldr.w	r4, [sp], #4
 80107a8:	4770      	bx	lr
    char *m = (char *)s;
 80107aa:	4603      	mov	r3, r0
 80107ac:	e7f7      	b.n	801079e <rt_memset+0x3e>
 80107ae:	4603      	mov	r3, r0
 80107b0:	e7f5      	b.n	801079e <rt_memset+0x3e>

080107b2 <rt_memcpy>:
{
 80107b2:	b410      	push	{r4}
    if (!TOO_SMALL(len) && !UNALIGNED(src_ptr, dst_ptr))
 80107b4:	2a0f      	cmp	r2, #15
 80107b6:	d929      	bls.n	801080c <rt_memcpy+0x5a>
 80107b8:	ea41 0300 	orr.w	r3, r1, r0
 80107bc:	f013 0f03 	tst.w	r3, #3
 80107c0:	d00f      	beq.n	80107e2 <rt_memcpy+0x30>
    char *dst_ptr = (char *)dst;
 80107c2:	4603      	mov	r3, r0
 80107c4:	e01c      	b.n	8010800 <rt_memcpy+0x4e>
            *aligned_dst++ = *aligned_src++;
 80107c6:	680c      	ldr	r4, [r1, #0]
 80107c8:	601c      	str	r4, [r3, #0]
            *aligned_dst++ = *aligned_src++;
 80107ca:	684c      	ldr	r4, [r1, #4]
 80107cc:	605c      	str	r4, [r3, #4]
            *aligned_dst++ = *aligned_src++;
 80107ce:	688c      	ldr	r4, [r1, #8]
 80107d0:	609c      	str	r4, [r3, #8]
            *aligned_dst++ = *aligned_src++;
 80107d2:	68cc      	ldr	r4, [r1, #12]
 80107d4:	60dc      	str	r4, [r3, #12]
            len -= BIGBLOCKSIZE;
 80107d6:	3a10      	subs	r2, #16
            *aligned_dst++ = *aligned_src++;
 80107d8:	3110      	adds	r1, #16
 80107da:	3310      	adds	r3, #16
        while (len >= BIGBLOCKSIZE)
 80107dc:	2a0f      	cmp	r2, #15
 80107de:	d8f2      	bhi.n	80107c6 <rt_memcpy+0x14>
 80107e0:	e006      	b.n	80107f0 <rt_memcpy+0x3e>
        aligned_dst = (long *)dst_ptr;
 80107e2:	4603      	mov	r3, r0
 80107e4:	e7fa      	b.n	80107dc <rt_memcpy+0x2a>
            *aligned_dst++ = *aligned_src++;
 80107e6:	680c      	ldr	r4, [r1, #0]
 80107e8:	601c      	str	r4, [r3, #0]
            len -= LITTLEBLOCKSIZE;
 80107ea:	3a04      	subs	r2, #4
            *aligned_dst++ = *aligned_src++;
 80107ec:	3104      	adds	r1, #4
 80107ee:	3304      	adds	r3, #4
        while (len >= LITTLEBLOCKSIZE)
 80107f0:	2a03      	cmp	r2, #3
 80107f2:	d8f8      	bhi.n	80107e6 <rt_memcpy+0x34>
 80107f4:	e004      	b.n	8010800 <rt_memcpy+0x4e>
        *dst_ptr++ = *src_ptr++;
 80107f6:	780a      	ldrb	r2, [r1, #0]
 80107f8:	701a      	strb	r2, [r3, #0]
    while (len--)
 80107fa:	4622      	mov	r2, r4
        *dst_ptr++ = *src_ptr++;
 80107fc:	3101      	adds	r1, #1
 80107fe:	3301      	adds	r3, #1
    while (len--)
 8010800:	1e54      	subs	r4, r2, #1
 8010802:	2a00      	cmp	r2, #0
 8010804:	d1f7      	bne.n	80107f6 <rt_memcpy+0x44>
}
 8010806:	f85d 4b04 	ldr.w	r4, [sp], #4
 801080a:	4770      	bx	lr
    char *dst_ptr = (char *)dst;
 801080c:	4603      	mov	r3, r0
 801080e:	e7f7      	b.n	8010800 <rt_memcpy+0x4e>

08010810 <rt_strncpy>:
    if (n != 0)
 8010810:	b19a      	cbz	r2, 801083a <rt_strncpy+0x2a>
{
 8010812:	b430      	push	{r4, r5}
 8010814:	4613      	mov	r3, r2
        char *d = dst;
 8010816:	4604      	mov	r4, r0
            if ((*d++ = *s++) == 0)
 8010818:	1c4d      	adds	r5, r1, #1
 801081a:	1c62      	adds	r2, r4, #1
 801081c:	7809      	ldrb	r1, [r1, #0]
 801081e:	7021      	strb	r1, [r4, #0]
 8010820:	b139      	cbz	r1, 8010832 <rt_strncpy+0x22>
 8010822:	4614      	mov	r4, r2
 8010824:	4629      	mov	r1, r5
        } while (--n != 0);
 8010826:	3b01      	subs	r3, #1
 8010828:	d1f6      	bne.n	8010818 <rt_strncpy+0x8>
 801082a:	e004      	b.n	8010836 <rt_strncpy+0x26>
                    *d++ = 0;
 801082c:	2100      	movs	r1, #0
 801082e:	7011      	strb	r1, [r2, #0]
 8010830:	3201      	adds	r2, #1
                while (--n != 0)
 8010832:	3b01      	subs	r3, #1
 8010834:	d1fa      	bne.n	801082c <rt_strncpy+0x1c>
}
 8010836:	bc30      	pop	{r4, r5}
 8010838:	4770      	bx	lr
 801083a:	4770      	bx	lr

0801083c <rt_strlen>:
    for (sc = s; *sc != '\0'; ++sc) /* nothing */
 801083c:	4603      	mov	r3, r0
 801083e:	e000      	b.n	8010842 <rt_strlen+0x6>
 8010840:	3301      	adds	r3, #1
 8010842:	781a      	ldrb	r2, [r3, #0]
 8010844:	2a00      	cmp	r2, #0
 8010846:	d1fb      	bne.n	8010840 <rt_strlen+0x4>
}
 8010848:	1a18      	subs	r0, r3, r0
 801084a:	4770      	bx	lr

0801084c <rt_vsnprintf>:

rt_int32_t rt_vsnprintf(char       *buf,
                        rt_size_t   size,
                        const char *fmt,
                        va_list     args)
{
 801084c:	e92d 4ff0 	stmdb	sp!, {r4, r5, r6, r7, r8, r9, sl, fp, lr}
 8010850:	b087      	sub	sp, #28
 8010852:	4682      	mov	sl, r0
 8010854:	9104      	str	r1, [sp, #16]
 8010856:	4614      	mov	r4, r2
 8010858:	9305      	str	r3, [sp, #20]

    str = buf;
    end = buf + size;

    /* Make sure end is always >= buf */
    if (end < buf)
 801085a:	eb10 0801 	adds.w	r8, r0, r1
 801085e:	d303      	bcc.n	8010868 <rt_vsnprintf+0x1c>
    {
        end  = ((char *) - 1);
        size = end - buf;
 8010860:	43c3      	mvns	r3, r0
 8010862:	9304      	str	r3, [sp, #16]
        end  = ((char *) - 1);
 8010864:	f04f 38ff 	mov.w	r8, #4294967295
 8010868:	4657      	mov	r7, sl
 801086a:	e001      	b.n	8010870 <rt_vsnprintf+0x24>
    {
        if (*fmt != '%')
        {
            if (str < end)
                *str = *fmt;
            ++ str;
 801086c:	3701      	adds	r7, #1
    for (; *fmt ; ++fmt)
 801086e:	3401      	adds	r4, #1
 8010870:	7823      	ldrb	r3, [r4, #0]
 8010872:	2b00      	cmp	r3, #0
 8010874:	f000 8162 	beq.w	8010b3c <rt_vsnprintf+0x2f0>
        if (*fmt != '%')
 8010878:	2b25      	cmp	r3, #37	; 0x25
 801087a:	d003      	beq.n	8010884 <rt_vsnprintf+0x38>
            if (str < end)
 801087c:	4547      	cmp	r7, r8
 801087e:	d2f5      	bcs.n	801086c <rt_vsnprintf+0x20>
                *str = *fmt;
 8010880:	703b      	strb	r3, [r7, #0]
 8010882:	e7f3      	b.n	801086c <rt_vsnprintf+0x20>
            continue;
        }

        /* process flags */
        flags = 0;
 8010884:	2500      	movs	r5, #0
 8010886:	e002      	b.n	801088e <rt_vsnprintf+0x42>

        while (1)
        {
            /* skips the first '%' also */
            ++ fmt;
            if (*fmt == '-') flags |= LEFT;
 8010888:	f045 0510 	orr.w	r5, r5, #16
{
 801088c:	4614      	mov	r4, r2
            ++ fmt;
 801088e:	1c62      	adds	r2, r4, #1
            if (*fmt == '-') flags |= LEFT;
 8010890:	7863      	ldrb	r3, [r4, #1]
 8010892:	2b2d      	cmp	r3, #45	; 0x2d
 8010894:	d0f8      	beq.n	8010888 <rt_vsnprintf+0x3c>
            else if (*fmt == '+') flags |= PLUS;
 8010896:	2b2b      	cmp	r3, #43	; 0x2b
 8010898:	d008      	beq.n	80108ac <rt_vsnprintf+0x60>
            else if (*fmt == ' ') flags |= SPACE;
 801089a:	2b20      	cmp	r3, #32
 801089c:	d009      	beq.n	80108b2 <rt_vsnprintf+0x66>
            else if (*fmt == '#') flags |= SPECIAL;
 801089e:	2b23      	cmp	r3, #35	; 0x23
 80108a0:	d00a      	beq.n	80108b8 <rt_vsnprintf+0x6c>
            else if (*fmt == '0') flags |= ZEROPAD;
 80108a2:	2b30      	cmp	r3, #48	; 0x30
 80108a4:	d10b      	bne.n	80108be <rt_vsnprintf+0x72>
 80108a6:	f045 0501 	orr.w	r5, r5, #1
 80108aa:	e7ef      	b.n	801088c <rt_vsnprintf+0x40>
            else if (*fmt == '+') flags |= PLUS;
 80108ac:	f045 0504 	orr.w	r5, r5, #4
 80108b0:	e7ec      	b.n	801088c <rt_vsnprintf+0x40>
            else if (*fmt == ' ') flags |= SPACE;
 80108b2:	f045 0508 	orr.w	r5, r5, #8
 80108b6:	e7e9      	b.n	801088c <rt_vsnprintf+0x40>
            else if (*fmt == '#') flags |= SPECIAL;
 80108b8:	f045 0520 	orr.w	r5, r5, #32
 80108bc:	e7e6      	b.n	801088c <rt_vsnprintf+0x40>
            else break;
        }

        /* get field width */
        field_width = -1;
        if (isdigit(*fmt)) field_width = skip_atoi(&fmt);
 80108be:	f1a3 0130 	sub.w	r1, r3, #48	; 0x30
 80108c2:	2909      	cmp	r1, #9
 80108c4:	d91c      	bls.n	8010900 <rt_vsnprintf+0xb4>
        else if (*fmt == '*')
 80108c6:	2b2a      	cmp	r3, #42	; 0x2a
 80108c8:	d01c      	beq.n	8010904 <rt_vsnprintf+0xb8>
        field_width = -1;
 80108ca:	f04f 36ff 	mov.w	r6, #4294967295
        }

#ifdef RT_PRINTF_PRECISION
        /* get the precision */
        precision = -1;
        if (*fmt == '.')
 80108ce:	7813      	ldrb	r3, [r2, #0]
 80108d0:	2b2e      	cmp	r3, #46	; 0x2e
 80108d2:	d022      	beq.n	801091a <rt_vsnprintf+0xce>
        precision = -1;
 80108d4:	f04f 39ff 	mov.w	r9, #4294967295
        /* get the conversion qualifier */
        qualifier = 0;
#ifdef RT_PRINTF_LONGLONG
        if (*fmt == 'h' || *fmt == 'l' || *fmt == 'L')
#else
        if (*fmt == 'h' || *fmt == 'l')
 80108d8:	7811      	ldrb	r1, [r2, #0]
 80108da:	2968      	cmp	r1, #104	; 0x68
 80108dc:	d048      	beq.n	8010970 <rt_vsnprintf+0x124>
 80108de:	296c      	cmp	r1, #108	; 0x6c
 80108e0:	d046      	beq.n	8010970 <rt_vsnprintf+0x124>
 80108e2:	4614      	mov	r4, r2
        qualifier = 0;
 80108e4:	2100      	movs	r1, #0
 80108e6:	e044      	b.n	8010972 <rt_vsnprintf+0x126>
        i = i * 10 + *((*s)++) - '0';
 80108e8:	eb06 0686 	add.w	r6, r6, r6, lsl #2
 80108ec:	0073      	lsls	r3, r6, #1
 80108ee:	3201      	adds	r2, #1
 80108f0:	185e      	adds	r6, r3, r1
 80108f2:	3e30      	subs	r6, #48	; 0x30
    while (isdigit(**s))
 80108f4:	7811      	ldrb	r1, [r2, #0]
 80108f6:	f1a1 0330 	sub.w	r3, r1, #48	; 0x30
 80108fa:	2b09      	cmp	r3, #9
 80108fc:	d9f4      	bls.n	80108e8 <rt_vsnprintf+0x9c>
 80108fe:	e7e6      	b.n	80108ce <rt_vsnprintf+0x82>
    register int i = 0;
 8010900:	2600      	movs	r6, #0
 8010902:	e7f7      	b.n	80108f4 <rt_vsnprintf+0xa8>
            ++ fmt;
 8010904:	1ca2      	adds	r2, r4, #2
            field_width = rt_va_arg(args, int);
 8010906:	9b05      	ldr	r3, [sp, #20]
 8010908:	1d19      	adds	r1, r3, #4
 801090a:	9105      	str	r1, [sp, #20]
 801090c:	681e      	ldr	r6, [r3, #0]
            if (field_width < 0)
 801090e:	2e00      	cmp	r6, #0
 8010910:	dadd      	bge.n	80108ce <rt_vsnprintf+0x82>
                field_width = -field_width;
 8010912:	4276      	negs	r6, r6
                flags |= LEFT;
 8010914:	f045 0510 	orr.w	r5, r5, #16
 8010918:	e7d9      	b.n	80108ce <rt_vsnprintf+0x82>
            ++ fmt;
 801091a:	1c51      	adds	r1, r2, #1
            if (isdigit(*fmt)) precision = skip_atoi(&fmt);
 801091c:	7853      	ldrb	r3, [r2, #1]
 801091e:	f1a3 0030 	sub.w	r0, r3, #48	; 0x30
 8010922:	2809      	cmp	r0, #9
 8010924:	d91a      	bls.n	801095c <rt_vsnprintf+0x110>
            else if (*fmt == '*')
 8010926:	2b2a      	cmp	r3, #42	; 0x2a
 8010928:	d01b      	beq.n	8010962 <rt_vsnprintf+0x116>
            ++ fmt;
 801092a:	460a      	mov	r2, r1
            if (precision < 0) precision = 0;
 801092c:	f04f 0900 	mov.w	r9, #0
 8010930:	e7d2      	b.n	80108d8 <rt_vsnprintf+0x8c>
        i = i * 10 + *((*s)++) - '0';
 8010932:	eb09 0989 	add.w	r9, r9, r9, lsl #2
 8010936:	ea4f 0349 	mov.w	r3, r9, lsl #1
 801093a:	3101      	adds	r1, #1
 801093c:	eb03 0902 	add.w	r9, r3, r2
 8010940:	f1a9 0930 	sub.w	r9, r9, #48	; 0x30
    while (isdigit(**s))
 8010944:	780a      	ldrb	r2, [r1, #0]
 8010946:	f1a2 0330 	sub.w	r3, r2, #48	; 0x30
 801094a:	2b09      	cmp	r3, #9
 801094c:	d9f1      	bls.n	8010932 <rt_vsnprintf+0xe6>
 801094e:	460a      	mov	r2, r1
            if (precision < 0) precision = 0;
 8010950:	f1b9 0f00 	cmp.w	r9, #0
 8010954:	dac0      	bge.n	80108d8 <rt_vsnprintf+0x8c>
 8010956:	f04f 0900 	mov.w	r9, #0
 801095a:	e7bd      	b.n	80108d8 <rt_vsnprintf+0x8c>
    register int i = 0;
 801095c:	f04f 0900 	mov.w	r9, #0
 8010960:	e7f0      	b.n	8010944 <rt_vsnprintf+0xf8>
                ++ fmt;
 8010962:	3202      	adds	r2, #2
                precision = rt_va_arg(args, int);
 8010964:	9b05      	ldr	r3, [sp, #20]
 8010966:	1d19      	adds	r1, r3, #4
 8010968:	9105      	str	r1, [sp, #20]
 801096a:	f8d3 9000 	ldr.w	r9, [r3]
 801096e:	e7ef      	b.n	8010950 <rt_vsnprintf+0x104>
#endif
        {
            qualifier = *fmt;
            ++ fmt;
 8010970:	1c54      	adds	r4, r2, #1
        }

        /* the default base */
        base = 10;

        switch (*fmt)
 8010972:	7823      	ldrb	r3, [r4, #0]
 8010974:	3b25      	subs	r3, #37	; 0x25
 8010976:	2b53      	cmp	r3, #83	; 0x53
 8010978:	f200 80ad 	bhi.w	8010ad6 <rt_vsnprintf+0x28a>
 801097c:	e8df f003 	tbb	[pc, r3]
 8010980:	ababab9b 	.word	0xababab9b
 8010984:	abababab 	.word	0xabababab
 8010988:	abababab 	.word	0xabababab
 801098c:	abababab 	.word	0xabababab
 8010990:	abababab 	.word	0xabababab
 8010994:	abababab 	.word	0xabababab
 8010998:	abababab 	.word	0xabababab
 801099c:	abababab 	.word	0xabababab
 80109a0:	abababab 	.word	0xabababab
 80109a4:	abababab 	.word	0xabababab
 80109a8:	abababab 	.word	0xabababab
 80109ac:	abababab 	.word	0xabababab
 80109b0:	a3ababab 	.word	0xa3ababab
 80109b4:	abababab 	.word	0xabababab
 80109b8:	abababab 	.word	0xabababab
 80109bc:	a72aabab 	.word	0xa72aabab
 80109c0:	abababab 	.word	0xabababab
 80109c4:	abababa7 	.word	0xabababa7
 80109c8:	85a1abab 	.word	0x85a1abab
 80109cc:	ab49abab 	.word	0xab49abab
 80109d0:	bcababba 	.word	0xbcababba
        {
        case 'c':
            if (!(flags & LEFT))
 80109d4:	f015 0f10 	tst.w	r5, #16
 80109d8:	d009      	beq.n	80109ee <rt_vsnprintf+0x1a2>
                    ++ str;
                }
            }

            /* get character */
            c = (rt_uint8_t)rt_va_arg(args, int);
 80109da:	9b05      	ldr	r3, [sp, #20]
 80109dc:	1d1a      	adds	r2, r3, #4
 80109de:	9205      	str	r2, [sp, #20]
 80109e0:	781b      	ldrb	r3, [r3, #0]
            if (str < end) *str = c;
 80109e2:	4547      	cmp	r7, r8
 80109e4:	d200      	bcs.n	80109e8 <rt_vsnprintf+0x19c>
 80109e6:	703b      	strb	r3, [r7, #0]
            ++ str;
 80109e8:	3701      	adds	r7, #1

            /* put width */
            while (--field_width > 0)
 80109ea:	e009      	b.n	8010a00 <rt_vsnprintf+0x1b4>
                    ++ str;
 80109ec:	3701      	adds	r7, #1
                while (--field_width > 0)
 80109ee:	3e01      	subs	r6, #1
 80109f0:	2e00      	cmp	r6, #0
 80109f2:	ddf2      	ble.n	80109da <rt_vsnprintf+0x18e>
                    if (str < end) *str = ' ';
 80109f4:	4547      	cmp	r7, r8
 80109f6:	d2f9      	bcs.n	80109ec <rt_vsnprintf+0x1a0>
 80109f8:	2320      	movs	r3, #32
 80109fa:	703b      	strb	r3, [r7, #0]
 80109fc:	e7f6      	b.n	80109ec <rt_vsnprintf+0x1a0>
            {
                if (str < end) *str = ' ';
                ++ str;
 80109fe:	3701      	adds	r7, #1
            while (--field_width > 0)
 8010a00:	3e01      	subs	r6, #1
 8010a02:	2e00      	cmp	r6, #0
 8010a04:	f77f af33 	ble.w	801086e <rt_vsnprintf+0x22>
                if (str < end) *str = ' ';
 8010a08:	4547      	cmp	r7, r8
 8010a0a:	d2f8      	bcs.n	80109fe <rt_vsnprintf+0x1b2>
 8010a0c:	2320      	movs	r3, #32
 8010a0e:	703b      	strb	r3, [r7, #0]
 8010a10:	e7f5      	b.n	80109fe <rt_vsnprintf+0x1b2>
            }
            continue;

        case 's':
            s = rt_va_arg(args, char *);
 8010a12:	9b05      	ldr	r3, [sp, #20]
 8010a14:	1d1a      	adds	r2, r3, #4
 8010a16:	9205      	str	r2, [sp, #20]
 8010a18:	f8d3 b000 	ldr.w	fp, [r3]
            if (!s) s = "(NULL)";
 8010a1c:	f1bb 0f00 	cmp.w	fp, #0
 8010a20:	d00d      	beq.n	8010a3e <rt_vsnprintf+0x1f2>

            len = rt_strlen(s);
 8010a22:	4658      	mov	r0, fp
 8010a24:	f7ff ff0a 	bl	801083c <rt_strlen>
#ifdef RT_PRINTF_PRECISION
            if (precision > 0 && len > precision) len = precision;
 8010a28:	f1b9 0f00 	cmp.w	r9, #0
 8010a2c:	dd02      	ble.n	8010a34 <rt_vsnprintf+0x1e8>
 8010a2e:	4581      	cmp	r9, r0
 8010a30:	da00      	bge.n	8010a34 <rt_vsnprintf+0x1e8>
 8010a32:	4648      	mov	r0, r9
#endif

            if (!(flags & LEFT))
 8010a34:	f015 0f10 	tst.w	r5, #16
 8010a38:	d006      	beq.n	8010a48 <rt_vsnprintf+0x1fc>
                    if (str < end) *str = ' ';
                    ++ str;
                }
            }

            for (i = 0; i < len; ++i)
 8010a3a:	2300      	movs	r3, #0
 8010a3c:	e012      	b.n	8010a64 <rt_vsnprintf+0x218>
            if (!s) s = "(NULL)";
 8010a3e:	f8df b11c 	ldr.w	fp, [pc, #284]	; 8010b5c <rt_vsnprintf+0x310>
 8010a42:	e7ee      	b.n	8010a22 <rt_vsnprintf+0x1d6>
                    ++ str;
 8010a44:	3701      	adds	r7, #1
                while (len < field_width--)
 8010a46:	461e      	mov	r6, r3
 8010a48:	1e73      	subs	r3, r6, #1
 8010a4a:	42b0      	cmp	r0, r6
 8010a4c:	da04      	bge.n	8010a58 <rt_vsnprintf+0x20c>
                    if (str < end) *str = ' ';
 8010a4e:	4547      	cmp	r7, r8
 8010a50:	d2f8      	bcs.n	8010a44 <rt_vsnprintf+0x1f8>
 8010a52:	2220      	movs	r2, #32
 8010a54:	703a      	strb	r2, [r7, #0]
 8010a56:	e7f5      	b.n	8010a44 <rt_vsnprintf+0x1f8>
                while (len < field_width--)
 8010a58:	461e      	mov	r6, r3
 8010a5a:	e7ee      	b.n	8010a3a <rt_vsnprintf+0x1ee>
            {
                if (str < end) *str = *s;
                ++ str;
 8010a5c:	3701      	adds	r7, #1
                ++ s;
 8010a5e:	f10b 0b01 	add.w	fp, fp, #1
            for (i = 0; i < len; ++i)
 8010a62:	3301      	adds	r3, #1
 8010a64:	4283      	cmp	r3, r0
 8010a66:	da07      	bge.n	8010a78 <rt_vsnprintf+0x22c>
                if (str < end) *str = *s;
 8010a68:	4547      	cmp	r7, r8
 8010a6a:	d2f7      	bcs.n	8010a5c <rt_vsnprintf+0x210>
 8010a6c:	f89b 2000 	ldrb.w	r2, [fp]
 8010a70:	703a      	strb	r2, [r7, #0]
 8010a72:	e7f3      	b.n	8010a5c <rt_vsnprintf+0x210>
            }

            while (len < field_width--)
            {
                if (str < end) *str = ' ';
                ++ str;
 8010a74:	3701      	adds	r7, #1
            while (len < field_width--)
 8010a76:	461e      	mov	r6, r3
 8010a78:	1e73      	subs	r3, r6, #1
 8010a7a:	42b0      	cmp	r0, r6
 8010a7c:	f6bf aef7 	bge.w	801086e <rt_vsnprintf+0x22>
                if (str < end) *str = ' ';
 8010a80:	4547      	cmp	r7, r8
 8010a82:	d2f7      	bcs.n	8010a74 <rt_vsnprintf+0x228>
 8010a84:	2220      	movs	r2, #32
 8010a86:	703a      	strb	r2, [r7, #0]
 8010a88:	e7f4      	b.n	8010a74 <rt_vsnprintf+0x228>
            }
            continue;

        case 'p':
            if (field_width == -1)
 8010a8a:	f1b6 3fff 	cmp.w	r6, #4294967295
 8010a8e:	d00e      	beq.n	8010aae <rt_vsnprintf+0x262>
                field_width = sizeof(void *) << 1;
                flags |= ZEROPAD;
            }
#ifdef RT_PRINTF_PRECISION
            str = print_number(str, end,
                               (long)rt_va_arg(args, void *),
 8010a90:	9b05      	ldr	r3, [sp, #20]
 8010a92:	1d1a      	adds	r2, r3, #4
 8010a94:	9205      	str	r2, [sp, #20]
 8010a96:	681a      	ldr	r2, [r3, #0]
            str = print_number(str, end,
 8010a98:	9502      	str	r5, [sp, #8]
 8010a9a:	f8cd 9004 	str.w	r9, [sp, #4]
 8010a9e:	9600      	str	r6, [sp, #0]
 8010aa0:	2310      	movs	r3, #16
 8010aa2:	4641      	mov	r1, r8
 8010aa4:	4638      	mov	r0, r7
 8010aa6:	f7ff fda5 	bl	80105f4 <print_number>
 8010aaa:	4607      	mov	r7, r0
#else
            str = print_number(str, end,
                               (long)va_arg(args, void *),
                               16, field_width, flags);
#endif
            continue;
 8010aac:	e6df      	b.n	801086e <rt_vsnprintf+0x22>
                flags |= ZEROPAD;
 8010aae:	f045 0501 	orr.w	r5, r5, #1
                field_width = sizeof(void *) << 1;
 8010ab2:	2608      	movs	r6, #8
 8010ab4:	e7ec      	b.n	8010a90 <rt_vsnprintf+0x244>

        case '%':
            if (str < end) *str = '%';
 8010ab6:	4547      	cmp	r7, r8
 8010ab8:	d201      	bcs.n	8010abe <rt_vsnprintf+0x272>
 8010aba:	2325      	movs	r3, #37	; 0x25
 8010abc:	703b      	strb	r3, [r7, #0]
            ++ str;
 8010abe:	3701      	adds	r7, #1
            continue;
 8010ac0:	e6d5      	b.n	801086e <rt_vsnprintf+0x22>

        /* integer number formats - set up the flags and "break" */
        case 'o':
            base = 8;
 8010ac2:	2308      	movs	r3, #8
            break;
 8010ac4:	e019      	b.n	8010afa <rt_vsnprintf+0x2ae>

        case 'X':
            flags |= LARGE;
 8010ac6:	f045 0540 	orr.w	r5, r5, #64	; 0x40
        case 'x':
            base = 16;
 8010aca:	2310      	movs	r3, #16
 8010acc:	e015      	b.n	8010afa <rt_vsnprintf+0x2ae>
            break;

        case 'd':
        case 'i':
            flags |= SIGN;
 8010ace:	f045 0502 	orr.w	r5, r5, #2
        base = 10;
 8010ad2:	230a      	movs	r3, #10
 8010ad4:	e011      	b.n	8010afa <rt_vsnprintf+0x2ae>
        case 'u':
            break;

        default:
            if (str < end) *str = '%';
 8010ad6:	4547      	cmp	r7, r8
 8010ad8:	d201      	bcs.n	8010ade <rt_vsnprintf+0x292>
 8010ada:	2325      	movs	r3, #37	; 0x25
 8010adc:	703b      	strb	r3, [r7, #0]
            ++ str;
 8010ade:	1c7a      	adds	r2, r7, #1

            if (*fmt)
 8010ae0:	7823      	ldrb	r3, [r4, #0]
 8010ae2:	b123      	cbz	r3, 8010aee <rt_vsnprintf+0x2a2>
            {
                if (str < end) *str = *fmt;
 8010ae4:	4542      	cmp	r2, r8
 8010ae6:	d200      	bcs.n	8010aea <rt_vsnprintf+0x29e>
 8010ae8:	707b      	strb	r3, [r7, #1]
                ++ str;
 8010aea:	3702      	adds	r7, #2
 8010aec:	e6bf      	b.n	801086e <rt_vsnprintf+0x22>
            }
            else
            {
                -- fmt;
 8010aee:	3c01      	subs	r4, #1
            ++ str;
 8010af0:	4617      	mov	r7, r2
            }
            continue;
 8010af2:	e6bc      	b.n	801086e <rt_vsnprintf+0x22>
        base = 10;
 8010af4:	230a      	movs	r3, #10
 8010af6:	e000      	b.n	8010afa <rt_vsnprintf+0x2ae>
            base = 16;
 8010af8:	2310      	movs	r3, #16

#ifdef RT_PRINTF_LONGLONG
        if (qualifier == 'L') num = va_arg(args, long long);
        else if (qualifier == 'l')
#else
        if (qualifier == 'l')
 8010afa:	296c      	cmp	r1, #108	; 0x6c
 8010afc:	d00f      	beq.n	8010b1e <rt_vsnprintf+0x2d2>
#endif
        {
            num = rt_va_arg(args, rt_uint32_t);
            if (flags & SIGN) num = (rt_int32_t)num;
        }
        else if (qualifier == 'h')
 8010afe:	2968      	cmp	r1, #104	; 0x68
 8010b00:	d012      	beq.n	8010b28 <rt_vsnprintf+0x2dc>
            num = (rt_uint16_t)rt_va_arg(args, rt_int32_t);
            if (flags & SIGN) num = (rt_int16_t)num;
        }
        else
        {
            num = rt_va_arg(args, rt_uint32_t);
 8010b02:	9a05      	ldr	r2, [sp, #20]
 8010b04:	1d11      	adds	r1, r2, #4
 8010b06:	9105      	str	r1, [sp, #20]
 8010b08:	6812      	ldr	r2, [r2, #0]
            if (flags & SIGN) num = (rt_int32_t)num;
        }
#ifdef RT_PRINTF_PRECISION
        str = print_number(str, end, num, base, field_width, precision, flags);
 8010b0a:	9502      	str	r5, [sp, #8]
 8010b0c:	f8cd 9004 	str.w	r9, [sp, #4]
 8010b10:	9600      	str	r6, [sp, #0]
 8010b12:	4641      	mov	r1, r8
 8010b14:	4638      	mov	r0, r7
 8010b16:	f7ff fd6d 	bl	80105f4 <print_number>
 8010b1a:	4607      	mov	r7, r0
 8010b1c:	e6a7      	b.n	801086e <rt_vsnprintf+0x22>
            num = rt_va_arg(args, rt_uint32_t);
 8010b1e:	9a05      	ldr	r2, [sp, #20]
 8010b20:	1d11      	adds	r1, r2, #4
 8010b22:	9105      	str	r1, [sp, #20]
 8010b24:	6812      	ldr	r2, [r2, #0]
 8010b26:	e7f0      	b.n	8010b0a <rt_vsnprintf+0x2be>
            num = (rt_uint16_t)rt_va_arg(args, rt_int32_t);
 8010b28:	9a05      	ldr	r2, [sp, #20]
 8010b2a:	1d11      	adds	r1, r2, #4
 8010b2c:	9105      	str	r1, [sp, #20]
 8010b2e:	6811      	ldr	r1, [r2, #0]
 8010b30:	b28a      	uxth	r2, r1
            if (flags & SIGN) num = (rt_int16_t)num;
 8010b32:	f015 0f02 	tst.w	r5, #2
 8010b36:	d0e8      	beq.n	8010b0a <rt_vsnprintf+0x2be>
 8010b38:	b20a      	sxth	r2, r1
 8010b3a:	e7e6      	b.n	8010b0a <rt_vsnprintf+0x2be>
#else
        str = print_number(str, end, num, base, field_width, flags);
#endif
    }

    if (size > 0)
 8010b3c:	9b04      	ldr	r3, [sp, #16]
 8010b3e:	b123      	cbz	r3, 8010b4a <rt_vsnprintf+0x2fe>
    {
        if (str < end) *str = '\0';
 8010b40:	4547      	cmp	r7, r8
 8010b42:	d307      	bcc.n	8010b54 <rt_vsnprintf+0x308>
        else
        {
            end[-1] = '\0';
 8010b44:	2300      	movs	r3, #0
 8010b46:	f808 3c01 	strb.w	r3, [r8, #-1]

    /* the trailing null byte doesn't count towards the total
    * ++str;
    */
    return str - buf;
}
 8010b4a:	eba7 000a 	sub.w	r0, r7, sl
 8010b4e:	b007      	add	sp, #28
 8010b50:	e8bd 8ff0 	ldmia.w	sp!, {r4, r5, r6, r7, r8, r9, sl, fp, pc}
        if (str < end) *str = '\0';
 8010b54:	2300      	movs	r3, #0
 8010b56:	703b      	strb	r3, [r7, #0]
 8010b58:	e7f7      	b.n	8010b4a <rt_vsnprintf+0x2fe>
 8010b5a:	bf00      	nop
 8010b5c:	080126e8 	.word	0x080126e8

08010b60 <rt_vsprintf>:
 * @param buf the buffer to save formatted string
 * @param arg_ptr the arg_ptr
 * @param format the format
 */
rt_int32_t rt_vsprintf(char *buf, const char *format, va_list arg_ptr)
{
 8010b60:	b508      	push	{r3, lr}
    return rt_vsnprintf(buf, (rt_size_t) - 1, format, arg_ptr);
 8010b62:	4613      	mov	r3, r2
 8010b64:	460a      	mov	r2, r1
 8010b66:	f04f 31ff 	mov.w	r1, #4294967295
 8010b6a:	f7ff fe6f 	bl	801084c <rt_vsnprintf>
}
 8010b6e:	bd08      	pop	{r3, pc}

08010b70 <rt_sprintf>:
 *
 * @param buf the buffer to save formatted string
 * @param format the format
 */
rt_int32_t rt_sprintf(char *buf, const char *format, ...)
{
 8010b70:	b40e      	push	{r1, r2, r3}
 8010b72:	b500      	push	{lr}
 8010b74:	b082      	sub	sp, #8
 8010b76:	aa03      	add	r2, sp, #12
 8010b78:	f852 1b04 	ldr.w	r1, [r2], #4
    rt_int32_t n;
    va_list arg_ptr;

    rt_va_start(arg_ptr, format);
 8010b7c:	9201      	str	r2, [sp, #4]
    n = rt_vsprintf(buf, format, arg_ptr);
 8010b7e:	f7ff ffef 	bl	8010b60 <rt_vsprintf>
    rt_va_end(arg_ptr);

    return n;
}
 8010b82:	b002      	add	sp, #8
 8010b84:	f85d eb04 	ldr.w	lr, [sp], #4
 8010b88:	b003      	add	sp, #12
 8010b8a:	4770      	bx	lr

08010b8c <rt_hw_console_output>:
#endif

RT_WEAK void rt_hw_console_output(const char *str)
{
    /* empty console output */
}
 8010b8c:	4770      	bx	lr
	...

08010b90 <rt_kprintf>:
 * This function will print a formatted string on system console
 *
 * @param fmt the format
 */
void rt_kprintf(const char *fmt, ...)
{
 8010b90:	b40f      	push	{r0, r1, r2, r3}
 8010b92:	b510      	push	{r4, lr}
 8010b94:	b082      	sub	sp, #8
 8010b96:	ab04      	add	r3, sp, #16
 8010b98:	f853 2b04 	ldr.w	r2, [r3], #4
    va_list args;
    rt_size_t length;
    static char rt_log_buf[RT_CONSOLEBUF_SIZE];

    rt_va_start(args, fmt);
 8010b9c:	9301      	str	r3, [sp, #4]
    /* the return value of vsnprintf is the number of bytes that would be
     * written to buffer had if the size of the buffer been sufficiently
     * large excluding the terminating null byte. If the output string
     * would be larger than the rt_log_buf, we have to adjust the output
     * length. */
    length = rt_vsnprintf(rt_log_buf, sizeof(rt_log_buf) - 1, fmt, args);
 8010b9e:	4c06      	ldr	r4, [pc, #24]	; (8010bb8 <rt_kprintf+0x28>)
 8010ba0:	217f      	movs	r1, #127	; 0x7f
 8010ba2:	4620      	mov	r0, r4
 8010ba4:	f7ff fe52 	bl	801084c <rt_vsnprintf>
        _console_device->open_flag |= RT_DEVICE_FLAG_STREAM;
        rt_device_write(_console_device, 0, rt_log_buf, length);
        _console_device->open_flag = old_flag;
    }
#else
    rt_hw_console_output(rt_log_buf);
 8010ba8:	4620      	mov	r0, r4
 8010baa:	f7ff ffef 	bl	8010b8c <rt_hw_console_output>
#endif
    rt_va_end(args);
}
 8010bae:	b002      	add	sp, #8
 8010bb0:	e8bd 4010 	ldmia.w	sp!, {r4, lr}
 8010bb4:	b004      	add	sp, #16
 8010bb6:	4770      	bx	lr
 8010bb8:	200040cc 	.word	0x200040cc

08010bbc <__rt_ffs>:
 * @return return the index of the first bit set. If value is 0, then this function
 * shall return 0.
 */
int __rt_ffs(int value)
{
    if (value == 0) return 0;
 8010bbc:	b1e8      	cbz	r0, 8010bfa <__rt_ffs+0x3e>

    if (value & 0xff)
 8010bbe:	f010 02ff 	ands.w	r2, r0, #255	; 0xff
 8010bc2:	d10a      	bne.n	8010bda <__rt_ffs+0x1e>
        return __lowest_bit_bitmap[value & 0xff] + 1;

    if (value & 0xff00)
 8010bc4:	f410 4f7f 	tst.w	r0, #65280	; 0xff00
 8010bc8:	d10b      	bne.n	8010be2 <__rt_ffs+0x26>
        return __lowest_bit_bitmap[(value & 0xff00) >> 8] + 9;

    if (value & 0xff0000)
 8010bca:	f410 0f7f 	tst.w	r0, #16711680	; 0xff0000
 8010bce:	d10e      	bne.n	8010bee <__rt_ffs+0x32>
        return __lowest_bit_bitmap[(value & 0xff0000) >> 16] + 17;

    return __lowest_bit_bitmap[(value & 0xff000000) >> 24] + 25;
 8010bd0:	0e03      	lsrs	r3, r0, #24
 8010bd2:	4a0a      	ldr	r2, [pc, #40]	; (8010bfc <__rt_ffs+0x40>)
 8010bd4:	5cd0      	ldrb	r0, [r2, r3]
 8010bd6:	3019      	adds	r0, #25
 8010bd8:	4770      	bx	lr
        return __lowest_bit_bitmap[value & 0xff] + 1;
 8010bda:	4b08      	ldr	r3, [pc, #32]	; (8010bfc <__rt_ffs+0x40>)
 8010bdc:	5c98      	ldrb	r0, [r3, r2]
 8010bde:	3001      	adds	r0, #1
 8010be0:	4770      	bx	lr
        return __lowest_bit_bitmap[(value & 0xff00) >> 8] + 9;
 8010be2:	f3c0 2307 	ubfx	r3, r0, #8, #8
 8010be6:	4a05      	ldr	r2, [pc, #20]	; (8010bfc <__rt_ffs+0x40>)
 8010be8:	5cd0      	ldrb	r0, [r2, r3]
 8010bea:	3009      	adds	r0, #9
 8010bec:	4770      	bx	lr
        return __lowest_bit_bitmap[(value & 0xff0000) >> 16] + 17;
 8010bee:	f3c0 4307 	ubfx	r3, r0, #16, #8
 8010bf2:	4a02      	ldr	r2, [pc, #8]	; (8010bfc <__rt_ffs+0x40>)
 8010bf4:	5cd0      	ldrb	r0, [r2, r3]
 8010bf6:	3011      	adds	r0, #17
 8010bf8:	4770      	bx	lr
}
 8010bfa:	4770      	bx	lr
 8010bfc:	080125d4 	.word	0x080125d4

08010c00 <thread_delayRed>:
//参数说明：无
//功能概要：每1秒红灯反转
//内部调用：无
//======================================================================
void thread_delayRed(void)
{   
 8010c00:	b508      	push	{r3, lr}
    userprintf("------第一次进入红灯线程：%x，\r\n",thread_self());
 8010c02:	f7fe fac1 	bl	800f188 <rt_thread_self>
 8010c06:	4601      	mov	r1, r0
 8010c08:	480e      	ldr	r0, [pc, #56]	; (8010c44 <thread_delayRed+0x44>)
 8010c0a:	f7fe fa11 	bl	800f030 <userprintf>
    gpio_init(LIGHT_RED,GPIO_OUTPUT,LIGHT_OFF);
 8010c0e:	2201      	movs	r2, #1
 8010c10:	4611      	mov	r1, r2
 8010c12:	f240 1007 	movw	r0, #263	; 0x107
 8010c16:	f7ff f8cf 	bl	800fdb8 <gpio_init>
    while (1)
    {
    	userprintf("3-1.当前运行的线程=%x，红灯延时5秒（开始）；\r\n",thread_self());
 8010c1a:	f7fe fab5 	bl	800f188 <rt_thread_self>
 8010c1e:	4601      	mov	r1, r0
 8010c20:	4809      	ldr	r0, [pc, #36]	; (8010c48 <thread_delayRed+0x48>)
 8010c22:	f7fe fa05 	bl	800f030 <userprintf>
		delay_ms(5000);  //延时5秒
 8010c26:	f241 3088 	movw	r0, #5000	; 0x1388
 8010c2a:	f7fe fba5 	bl	800f378 <rt_thread_delay>
		userprintf("3-2.当前运行的线程=%x，红灯延时5秒（结束），红灯反转。\r\n",thread_self());
 8010c2e:	f7fe faab 	bl	800f188 <rt_thread_self>
 8010c32:	4601      	mov	r1, r0
 8010c34:	4805      	ldr	r0, [pc, #20]	; (8010c4c <thread_delayRed+0x4c>)
 8010c36:	f7fe f9fb 	bl	800f030 <userprintf>
		gpio_reverse(LIGHT_RED);    //灯的状态反转
 8010c3a:	f240 1007 	movw	r0, #263	; 0x107
 8010c3e:	f7ff f8f3 	bl	800fe28 <gpio_reverse>
 8010c42:	e7ea      	b.n	8010c1a <thread_delayRed+0x1a>
 8010c44:	08012704 	.word	0x08012704
 8010c48:	08012728 	.word	0x08012728
 8010c4c:	08012758 	.word	0x08012758

08010c50 <rt_tick_get>:
 */
rt_tick_t rt_tick_get(void)
{
    /* return the global tick */
    return rt_tick;
}
 8010c50:	4b01      	ldr	r3, [pc, #4]	; (8010c58 <rt_tick_get+0x8>)
 8010c52:	6818      	ldr	r0, [r3, #0]
 8010c54:	4770      	bx	lr
 8010c56:	bf00      	nop
 8010c58:	2000414c 	.word	0x2000414c

08010c5c <rt_tick_increase>:
/**
 * This function will notify kernel there is one tick passed. Normally,
 * this function is invoked by clock ISR.
 */
void rt_tick_increase(void)
{
 8010c5c:	b508      	push	{r3, lr}
    struct rt_thread *thread;

    /* increase the global tick */
    ++ rt_tick;
 8010c5e:	4a09      	ldr	r2, [pc, #36]	; (8010c84 <rt_tick_increase+0x28>)
 8010c60:	6813      	ldr	r3, [r2, #0]
 8010c62:	3301      	adds	r3, #1
 8010c64:	6013      	str	r3, [r2, #0]

    /* check time slice */
    thread = rt_thread_self();
 8010c66:	f7fe fa8f 	bl	800f188 <rt_thread_self>

    -- thread->remaining_tick;
 8010c6a:	6c83      	ldr	r3, [r0, #72]	; 0x48
 8010c6c:	3b01      	subs	r3, #1
 8010c6e:	6483      	str	r3, [r0, #72]	; 0x48
    if (thread->remaining_tick == 0)
 8010c70:	b113      	cbz	r3, 8010c78 <rt_tick_increase+0x1c>
        /* yield */
        rt_thread_yield();
    }

    /* check timer */
    rt_timer_check();
 8010c72:	f7fe fcd3 	bl	800f61c <rt_timer_check>
}
 8010c76:	bd08      	pop	{r3, pc}
        thread->remaining_tick = thread->init_tick;
 8010c78:	6c43      	ldr	r3, [r0, #68]	; 0x44
 8010c7a:	6483      	str	r3, [r0, #72]	; 0x48
        rt_thread_yield();
 8010c7c:	f7fe fb02 	bl	800f284 <rt_thread_yield>
 8010c80:	e7f7      	b.n	8010c72 <rt_tick_increase+0x16>
 8010c82:	bf00      	nop
 8010c84:	2000414c 	.word	0x2000414c

08010c88 <rt_system_scheduler_init>:
 */
void rt_system_scheduler_init(void)
{
    register rt_base_t offset;

    rt_scheduler_lock_nest = 0;
 8010c88:	2300      	movs	r3, #0
 8010c8a:	4a0c      	ldr	r2, [pc, #48]	; (8010cbc <rt_system_scheduler_init+0x34>)
 8010c8c:	8013      	strh	r3, [r2, #0]

    RT_DEBUG_LOG(RT_DEBUG_SCHEDULER, ("start scheduler: max priority 0x%02x\n",
                                      RT_THREAD_PRIORITY_MAX));

    for (offset = 0; offset < RT_THREAD_PRIORITY_MAX; offset ++)
 8010c8e:	e006      	b.n	8010c9e <rt_system_scheduler_init+0x16>
    {
        rt_list_init(&rt_thread_priority_table[offset]);
 8010c90:	490b      	ldr	r1, [pc, #44]	; (8010cc0 <rt_system_scheduler_init+0x38>)
 8010c92:	eb01 02c3 	add.w	r2, r1, r3, lsl #3
    l->next = l->prev = l;
 8010c96:	6052      	str	r2, [r2, #4]
 8010c98:	f841 2033 	str.w	r2, [r1, r3, lsl #3]
    for (offset = 0; offset < RT_THREAD_PRIORITY_MAX; offset ++)
 8010c9c:	3301      	adds	r3, #1
 8010c9e:	2b1f      	cmp	r3, #31
 8010ca0:	ddf6      	ble.n	8010c90 <rt_system_scheduler_init+0x8>
    }

    rt_current_priority = RT_THREAD_PRIORITY_MAX - 1;
 8010ca2:	4b08      	ldr	r3, [pc, #32]	; (8010cc4 <rt_system_scheduler_init+0x3c>)
 8010ca4:	221f      	movs	r2, #31
 8010ca6:	701a      	strb	r2, [r3, #0]
    rt_current_thread = RT_NULL;
 8010ca8:	2300      	movs	r3, #0
 8010caa:	4a07      	ldr	r2, [pc, #28]	; (8010cc8 <rt_system_scheduler_init+0x40>)
 8010cac:	6013      	str	r3, [r2, #0]

    /* initialize ready priority group */
    rt_thread_ready_priority_group = 0;
 8010cae:	4a07      	ldr	r2, [pc, #28]	; (8010ccc <rt_system_scheduler_init+0x44>)
 8010cb0:	6013      	str	r3, [r2, #0]
 8010cb2:	4b07      	ldr	r3, [pc, #28]	; (8010cd0 <rt_system_scheduler_init+0x48>)
 8010cb4:	605b      	str	r3, [r3, #4]
 8010cb6:	601b      	str	r3, [r3, #0]
    rt_memset(rt_thread_ready_table, 0, sizeof(rt_thread_ready_table));
#endif

    /* initialize thread defunct */
    rt_list_init(&rt_thread_defunct);
}
 8010cb8:	4770      	bx	lr
 8010cba:	bf00      	nop
 8010cbc:	20004150 	.word	0x20004150
 8010cc0:	20007b5c 	.word	0x20007b5c
 8010cc4:	20007c5c 	.word	0x20007c5c
 8010cc8:	20007c60 	.word	0x20007c60
 8010ccc:	20007c64 	.word	0x20007c64
 8010cd0:	20007c68 	.word	0x20007c68

08010cd4 <rt_system_scheduler_start>:
 * @ingroup SystemInit
 * This function will startup scheduler. It will select one thread
 * with the highest priority level, then switch to it.
 */
void rt_system_scheduler_start(void)
{
 8010cd4:	b508      	push	{r3, lr}
    register rt_ubase_t number;

    number = __rt_ffs(rt_thread_ready_priority_group) - 1;
    highest_ready_priority = (number << 3) + __rt_ffs(rt_thread_ready_table[number]) - 1;
#else
    highest_ready_priority = __rt_ffs(rt_thread_ready_priority_group) - 1;
 8010cd6:	4b08      	ldr	r3, [pc, #32]	; (8010cf8 <rt_system_scheduler_start+0x24>)
 8010cd8:	6818      	ldr	r0, [r3, #0]
 8010cda:	f7ff ff6f 	bl	8010bbc <__rt_ffs>
 8010cde:	3801      	subs	r0, #1
#endif

    /* get switch to thread */
    to_thread = rt_list_entry(rt_thread_priority_table[highest_ready_priority].next,
 8010ce0:	4b06      	ldr	r3, [pc, #24]	; (8010cfc <rt_system_scheduler_start+0x28>)
 8010ce2:	f853 0030 	ldr.w	r0, [r3, r0, lsl #3]
 8010ce6:	f1a0 0214 	sub.w	r2, r0, #20
                              struct rt_thread,
                              tlist);

    rt_current_thread = to_thread;
 8010cea:	4b05      	ldr	r3, [pc, #20]	; (8010d00 <rt_system_scheduler_start+0x2c>)
 8010cec:	601a      	str	r2, [r3, #0]

    /* switch to new thread */
    rt_hw_context_switch_to((rt_uint32_t)&to_thread->sp);
 8010cee:	3008      	adds	r0, #8
 8010cf0:	f7fc fdf3 	bl	800d8da <rt_hw_context_switch_to>

    /* never come back */
}
 8010cf4:	bd08      	pop	{r3, pc}
 8010cf6:	bf00      	nop
 8010cf8:	20007c64 	.word	0x20007c64
 8010cfc:	20007b5c 	.word	0x20007b5c
 8010d00:	20007c60 	.word	0x20007c60

08010d04 <rt_schedule>:
/**
 * This function will perform one schedule. It will select one thread
 * with the highest priority level, then switch to it.
 */
void rt_schedule(void)
{
 8010d04:	b538      	push	{r3, r4, r5, lr}
    rt_base_t level;
    struct rt_thread *to_thread;
    struct rt_thread *from_thread;

    /* disable interrupt */
    level = rt_hw_interrupt_disable();
 8010d06:	f7fc fd9b 	bl	800d840 <rt_hw_interrupt_disable>
 8010d0a:	4604      	mov	r4, r0

    /* check the scheduler is enabled or not */
    if (rt_scheduler_lock_nest == 0)
 8010d0c:	4b15      	ldr	r3, [pc, #84]	; (8010d64 <rt_schedule+0x60>)
 8010d0e:	f9b3 3000 	ldrsh.w	r3, [r3]
 8010d12:	b9cb      	cbnz	r3, 8010d48 <rt_schedule+0x44>
    {
        register rt_ubase_t highest_ready_priority;

#if RT_THREAD_PRIORITY_MAX <= 32
        highest_ready_priority = __rt_ffs(rt_thread_ready_priority_group) - 1;
 8010d14:	4b14      	ldr	r3, [pc, #80]	; (8010d68 <rt_schedule+0x64>)
 8010d16:	6818      	ldr	r0, [r3, #0]
 8010d18:	f7ff ff50 	bl	8010bbc <__rt_ffs>
 8010d1c:	3801      	subs	r0, #1
        number = __rt_ffs(rt_thread_ready_priority_group) - 1;
        highest_ready_priority = (number << 3) + __rt_ffs(rt_thread_ready_table[number]) - 1;
#endif

        /* get switch to thread */
        to_thread = rt_list_entry(rt_thread_priority_table[highest_ready_priority].next,
 8010d1e:	4b13      	ldr	r3, [pc, #76]	; (8010d6c <rt_schedule+0x68>)
 8010d20:	f853 1030 	ldr.w	r1, [r3, r0, lsl #3]
 8010d24:	f1a1 0214 	sub.w	r2, r1, #20
                                  struct rt_thread,
                                  tlist);

        /* if the destination thread is not the same as current thread */
        if (to_thread != rt_current_thread)
 8010d28:	4b11      	ldr	r3, [pc, #68]	; (8010d70 <rt_schedule+0x6c>)
 8010d2a:	681b      	ldr	r3, [r3, #0]
 8010d2c:	4293      	cmp	r3, r2
 8010d2e:	d00b      	beq.n	8010d48 <rt_schedule+0x44>
        {
            rt_current_priority = (rt_uint8_t)highest_ready_priority;
 8010d30:	4d10      	ldr	r5, [pc, #64]	; (8010d74 <rt_schedule+0x70>)
 8010d32:	7028      	strb	r0, [r5, #0]
            from_thread         = rt_current_thread;
            rt_current_thread   = to_thread;
 8010d34:	480e      	ldr	r0, [pc, #56]	; (8010d70 <rt_schedule+0x6c>)
 8010d36:	6002      	str	r2, [r0, #0]

#ifdef RT_USING_OVERFLOW_CHECK
            _rt_scheduler_stack_check(to_thread);
#endif

            if (rt_interrupt_nest == 0)
 8010d38:	4a0f      	ldr	r2, [pc, #60]	; (8010d78 <rt_schedule+0x74>)
 8010d3a:	7812      	ldrb	r2, [r2, #0]
 8010d3c:	b142      	cbz	r2, 8010d50 <rt_schedule+0x4c>
            }
            else
            {
                RT_DEBUG_LOG(RT_DEBUG_SCHEDULER, ("switch in interrupt\n"));

                rt_hw_context_switch_interrupt((rt_uint32_t)&from_thread->sp,
 8010d3e:	3108      	adds	r1, #8
 8010d40:	f103 001c 	add.w	r0, r3, #28
 8010d44:	f7fc fd83 	bl	800d84e <rt_hw_context_switch>
            }
        }
    }

    /* enable interrupt */
    rt_hw_interrupt_enable(level);
 8010d48:	4620      	mov	r0, r4
 8010d4a:	f7fc fd7d 	bl	800d848 <rt_hw_interrupt_enable>
}
 8010d4e:	bd38      	pop	{r3, r4, r5, pc}
                rt_hw_context_switch((rt_uint32_t)&from_thread->sp,
 8010d50:	3108      	adds	r1, #8
 8010d52:	f103 001c 	add.w	r0, r3, #28
 8010d56:	f7fc fd7a 	bl	800d84e <rt_hw_context_switch>
                    rt_hw_interrupt_enable(level);
 8010d5a:	4620      	mov	r0, r4
 8010d5c:	f7fc fd74 	bl	800d848 <rt_hw_interrupt_enable>
                return ;
 8010d60:	e7f5      	b.n	8010d4e <rt_schedule+0x4a>
 8010d62:	bf00      	nop
 8010d64:	20004150 	.word	0x20004150
 8010d68:	20007c64 	.word	0x20007c64
 8010d6c:	20007b5c 	.word	0x20007b5c
 8010d70:	20007c60 	.word	0x20007c60
 8010d74:	20007c5c 	.word	0x20007c5c
 8010d78:	20007c74 	.word	0x20007c74

08010d7c <rt_schedule_insert_thread>:
 *
 * @param thread the thread to be inserted
 * @note Please do not invoke this function in user application.
 */
void rt_schedule_insert_thread(struct rt_thread *thread)
{
 8010d7c:	b510      	push	{r4, lr}
 8010d7e:	4604      	mov	r4, r0
    register rt_base_t temp;

    RT_ASSERT(thread != RT_NULL);

    /* disable interrupt */
    temp = rt_hw_interrupt_disable();
 8010d80:	f7fc fd5e 	bl	800d840 <rt_hw_interrupt_disable>

    /* change stat */
    thread->stat = RT_THREAD_READY | (thread->stat & ~RT_THREAD_STAT_MASK);
 8010d84:	f994 3034 	ldrsb.w	r3, [r4, #52]	; 0x34
 8010d88:	f023 030f 	bic.w	r3, r3, #15
 8010d8c:	f043 0301 	orr.w	r3, r3, #1
 8010d90:	f884 3034 	strb.w	r3, [r4, #52]	; 0x34

    /* insert thread to ready list */
    rt_list_insert_before(&(rt_thread_priority_table[thread->current_priority]),
 8010d94:	f894 2035 	ldrb.w	r2, [r4, #53]	; 0x35
 8010d98:	4b09      	ldr	r3, [pc, #36]	; (8010dc0 <rt_schedule_insert_thread+0x44>)
 8010d9a:	eb03 03c2 	add.w	r3, r3, r2, lsl #3
 8010d9e:	f104 0214 	add.w	r2, r4, #20
    l->prev->next = n;
 8010da2:	6859      	ldr	r1, [r3, #4]
 8010da4:	600a      	str	r2, [r1, #0]
    n->prev = l->prev;
 8010da6:	6859      	ldr	r1, [r3, #4]
 8010da8:	61a1      	str	r1, [r4, #24]
    l->prev = n;
 8010daa:	605a      	str	r2, [r3, #4]
    n->next = l;
 8010dac:	6163      	str	r3, [r4, #20]
#endif

#if RT_THREAD_PRIORITY_MAX > 32
    rt_thread_ready_table[thread->number] |= thread->high_mask;
#endif
    rt_thread_ready_priority_group |= thread->number_mask;
 8010dae:	6ba1      	ldr	r1, [r4, #56]	; 0x38
 8010db0:	4a04      	ldr	r2, [pc, #16]	; (8010dc4 <rt_schedule_insert_thread+0x48>)
 8010db2:	6813      	ldr	r3, [r2, #0]
 8010db4:	430b      	orrs	r3, r1
 8010db6:	6013      	str	r3, [r2, #0]

    /* enable interrupt */
    rt_hw_interrupt_enable(temp);
 8010db8:	f7fc fd46 	bl	800d848 <rt_hw_interrupt_enable>
}
 8010dbc:	bd10      	pop	{r4, pc}
 8010dbe:	bf00      	nop
 8010dc0:	20007b5c 	.word	0x20007b5c
 8010dc4:	20007c64 	.word	0x20007c64

08010dc8 <rt_schedule_remove_thread>:
 * @param thread the thread to be removed
 *
 * @note Please do not invoke this function in user application.
 */
void rt_schedule_remove_thread(struct rt_thread *thread)
{
 8010dc8:	b510      	push	{r4, lr}
 8010dca:	4604      	mov	r4, r0
    register rt_base_t temp;

    RT_ASSERT(thread != RT_NULL);

    /* disable interrupt */
    temp = rt_hw_interrupt_disable();
 8010dcc:	f7fc fd38 	bl	800d840 <rt_hw_interrupt_disable>
                  thread->number_mask,
                  thread->high_mask));
#endif

    /* remove thread from ready list */
    rt_list_remove(&(thread->tlist));
 8010dd0:	f104 0314 	add.w	r3, r4, #20
    n->next->prev = n->prev;
 8010dd4:	6962      	ldr	r2, [r4, #20]
 8010dd6:	69a1      	ldr	r1, [r4, #24]
 8010dd8:	6051      	str	r1, [r2, #4]
    n->prev->next = n->next;
 8010dda:	69a2      	ldr	r2, [r4, #24]
 8010ddc:	6961      	ldr	r1, [r4, #20]
 8010dde:	6011      	str	r1, [r2, #0]
    n->next = n->prev = n;
 8010de0:	61a3      	str	r3, [r4, #24]
 8010de2:	6163      	str	r3, [r4, #20]
    if (rt_list_isempty(&(rt_thread_priority_table[thread->current_priority])))
 8010de4:	f894 2035 	ldrb.w	r2, [r4, #53]	; 0x35
 8010de8:	4b08      	ldr	r3, [pc, #32]	; (8010e0c <rt_schedule_remove_thread+0x44>)
 8010dea:	eb03 01c2 	add.w	r1, r3, r2, lsl #3
    return l->next == l;
 8010dee:	f853 3032 	ldr.w	r3, [r3, r2, lsl #3]
 8010df2:	4299      	cmp	r1, r3
 8010df4:	d002      	beq.n	8010dfc <rt_schedule_remove_thread+0x34>
        rt_thread_ready_priority_group &= ~thread->number_mask;
#endif
    }

    /* enable interrupt */
    rt_hw_interrupt_enable(temp);
 8010df6:	f7fc fd27 	bl	800d848 <rt_hw_interrupt_enable>
}
 8010dfa:	bd10      	pop	{r4, pc}
        rt_thread_ready_priority_group &= ~thread->number_mask;
 8010dfc:	6ba1      	ldr	r1, [r4, #56]	; 0x38
 8010dfe:	4a04      	ldr	r2, [pc, #16]	; (8010e10 <rt_schedule_remove_thread+0x48>)
 8010e00:	6813      	ldr	r3, [r2, #0]
 8010e02:	ea23 0301 	bic.w	r3, r3, r1
 8010e06:	6013      	str	r3, [r2, #0]
 8010e08:	e7f5      	b.n	8010df6 <rt_schedule_remove_thread+0x2e>
 8010e0a:	bf00      	nop
 8010e0c:	20007b5c 	.word	0x20007b5c
 8010e10:	20007c64 	.word	0x20007c64

08010e14 <rt_enter_critical>:

/**
 * This function will lock the thread scheduler.
 */
void rt_enter_critical(void)
{
 8010e14:	b508      	push	{r3, lr}
    register rt_base_t level;

    /* disable interrupt */
    level = rt_hw_interrupt_disable();
 8010e16:	f7fc fd13 	bl	800d840 <rt_hw_interrupt_disable>

    /*
     * the maximal number of nest is RT_UINT16_MAX, which is big
     * enough and does not check here
     */
    rt_scheduler_lock_nest ++;
 8010e1a:	4a03      	ldr	r2, [pc, #12]	; (8010e28 <rt_enter_critical+0x14>)
 8010e1c:	8813      	ldrh	r3, [r2, #0]
 8010e1e:	3301      	adds	r3, #1
 8010e20:	8013      	strh	r3, [r2, #0]

    /* enable interrupt */
    rt_hw_interrupt_enable(level);
 8010e22:	f7fc fd11 	bl	800d848 <rt_hw_interrupt_enable>
}
 8010e26:	bd08      	pop	{r3, pc}
 8010e28:	20004150 	.word	0x20004150

08010e2c <rt_exit_critical>:

/**
 * This function will unlock the thread scheduler.
 */
void rt_exit_critical(void)
{
 8010e2c:	b508      	push	{r3, lr}
    register rt_base_t level;

    /* disable interrupt */
    level = rt_hw_interrupt_disable();
 8010e2e:	f7fc fd07 	bl	800d840 <rt_hw_interrupt_disable>

    rt_scheduler_lock_nest --;
 8010e32:	4a0b      	ldr	r2, [pc, #44]	; (8010e60 <rt_exit_critical+0x34>)
 8010e34:	8813      	ldrh	r3, [r2, #0]
 8010e36:	3b01      	subs	r3, #1
 8010e38:	b21b      	sxth	r3, r3
 8010e3a:	8013      	strh	r3, [r2, #0]
    if (rt_scheduler_lock_nest <= 0)
 8010e3c:	2b00      	cmp	r3, #0
 8010e3e:	dd02      	ble.n	8010e46 <rt_exit_critical+0x1a>
        }
    }
    else
    {
        /* enable interrupt */
        rt_hw_interrupt_enable(level);
 8010e40:	f7fc fd02 	bl	800d848 <rt_hw_interrupt_enable>
    }
}
 8010e44:	bd08      	pop	{r3, pc}
        rt_scheduler_lock_nest = 0;
 8010e46:	4613      	mov	r3, r2
 8010e48:	2200      	movs	r2, #0
 8010e4a:	801a      	strh	r2, [r3, #0]
        rt_hw_interrupt_enable(level);
 8010e4c:	f7fc fcfc 	bl	800d848 <rt_hw_interrupt_enable>
        if (rt_current_thread)
 8010e50:	4b04      	ldr	r3, [pc, #16]	; (8010e64 <rt_exit_critical+0x38>)
 8010e52:	681b      	ldr	r3, [r3, #0]
 8010e54:	2b00      	cmp	r3, #0
 8010e56:	d0f5      	beq.n	8010e44 <rt_exit_critical+0x18>
            rt_schedule();
 8010e58:	f7ff ff54 	bl	8010d04 <rt_schedule>
 8010e5c:	e7f2      	b.n	8010e44 <rt_exit_critical+0x18>
 8010e5e:	bf00      	nop
 8010e60:	20004150 	.word	0x20004150
 8010e64:	20007c60 	.word	0x20007c60

08010e68 <thread_delayGreen>:
//参数说明：无
//功能概要：每2秒绿灯反转
//内部调用：无
//======================================================================
void thread_delayGreen(void)
{
 8010e68:	b508      	push	{r3, lr}
    userprintf("------第一次进入绿灯线程：%x。\r\n",thread_self());
 8010e6a:	f7fe f98d 	bl	800f188 <rt_thread_self>
 8010e6e:	4601      	mov	r1, r0
 8010e70:	480e      	ldr	r0, [pc, #56]	; (8010eac <thread_delayGreen+0x44>)
 8010e72:	f7fe f8dd 	bl	800f030 <userprintf>
    gpio_init(LIGHT_GREEN,GPIO_OUTPUT,LIGHT_OFF);
 8010e76:	2201      	movs	r2, #1
 8010e78:	4611      	mov	r1, r2
 8010e7a:	f44f 7084 	mov.w	r0, #264	; 0x108
 8010e7e:	f7fe ff9b 	bl	800fdb8 <gpio_init>
    while (1)
    {
    	userprintf("2-1.当前运行的线程=%x，绿灯延时10秒（开始）；\r\n",thread_self());
 8010e82:	f7fe f981 	bl	800f188 <rt_thread_self>
 8010e86:	4601      	mov	r1, r0
 8010e88:	4809      	ldr	r0, [pc, #36]	; (8010eb0 <thread_delayGreen+0x48>)
 8010e8a:	f7fe f8d1 	bl	800f030 <userprintf>
		delay_ms(10000);  //延时
 8010e8e:	f242 7010 	movw	r0, #10000	; 0x2710
 8010e92:	f7fe fa71 	bl	800f378 <rt_thread_delay>
		userprintf("2-2.当前运行的线程=%x，绿灯延时10秒（结束），绿灯反转。\r\n",thread_self());
 8010e96:	f7fe f977 	bl	800f188 <rt_thread_self>
 8010e9a:	4601      	mov	r1, r0
 8010e9c:	4805      	ldr	r0, [pc, #20]	; (8010eb4 <thread_delayGreen+0x4c>)
 8010e9e:	f7fe f8c7 	bl	800f030 <userprintf>
		gpio_reverse(LIGHT_GREEN);    //灯的状态反转
 8010ea2:	f44f 7084 	mov.w	r0, #264	; 0x108
 8010ea6:	f7fe ffbf 	bl	800fe28 <gpio_reverse>
 8010eaa:	e7ea      	b.n	8010e82 <thread_delayGreen+0x1a>
 8010eac:	08012794 	.word	0x08012794
 8010eb0:	080127b8 	.word	0x080127b8
 8010eb4:	080127e8 	.word	0x080127e8

08010eb8 <_SysTick_Config>:
// core clock.
extern uint32_t SystemCoreClock;

static uint32_t _SysTick_Config(rt_uint32_t ticks)
{
    if ((ticks - 1) > 0xFFFFFF)
 8010eb8:	3801      	subs	r0, #1
 8010eba:	f1b0 7f80 	cmp.w	r0, #16777216	; 0x1000000
 8010ebe:	d20d      	bcs.n	8010edc <_SysTick_Config+0x24>
    {
        return 1;
    }
    
    _SYSTICK_LOAD = ticks - 1; 
 8010ec0:	4b07      	ldr	r3, [pc, #28]	; (8010ee0 <_SysTick_Config+0x28>)
 8010ec2:	6018      	str	r0, [r3, #0]
    _SYSTICK_PRI = 0xFF;
 8010ec4:	f603 530f 	addw	r3, r3, #3343	; 0xd0f
 8010ec8:	22ff      	movs	r2, #255	; 0xff
 8010eca:	701a      	strb	r2, [r3, #0]
    _SYSTICK_VAL  = 0;
 8010ecc:	2000      	movs	r0, #0
 8010ece:	f6a3 530b 	subw	r3, r3, #3339	; 0xd0b
 8010ed2:	6018      	str	r0, [r3, #0]
    _SYSTICK_CTRL = 0x07;  
 8010ed4:	3b08      	subs	r3, #8
 8010ed6:	2207      	movs	r2, #7
 8010ed8:	601a      	str	r2, [r3, #0]
    
    return 0;
 8010eda:	4770      	bx	lr
        return 1;
 8010edc:	2001      	movs	r0, #1
}
 8010ede:	4770      	bx	lr
 8010ee0:	e000e014 	.word	0xe000e014

08010ee4 <rt_heap_begin_get>:
#define RT_HEAP_SIZE 3072
static uint32_t rt_heap[RT_HEAP_SIZE];     // heap default size: 4K(1024 * 4)
RT_WEAK void *rt_heap_begin_get(void)
{
    return rt_heap;
}
 8010ee4:	4800      	ldr	r0, [pc, #0]	; (8010ee8 <rt_heap_begin_get+0x4>)
 8010ee6:	4770      	bx	lr
 8010ee8:	20004154 	.word	0x20004154

08010eec <rt_heap_end_get>:

RT_WEAK void *rt_heap_end_get(void)
{
    return rt_heap + RT_HEAP_SIZE;
}
 8010eec:	4800      	ldr	r0, [pc, #0]	; (8010ef0 <rt_heap_end_get+0x4>)
 8010eee:	4770      	bx	lr
 8010ef0:	20007154 	.word	0x20007154

08010ef4 <rt_hw_board_init>:

/**
 * This function will initial your board.
 */
void rt_hw_board_init()
{
 8010ef4:	b510      	push	{r4, lr}
    //(1)初始化系统时钟
    SystemCoreClockUpdate();
 8010ef6:	f7fe fbed 	bl	800f6d4 <SystemCoreClockUpdate>
    //（2）初始化SysTick，RT_TICK_PER_SECOND为rtconfig.h设置的滴答频率，默认1000
    _SysTick_Config(SystemCoreClock / RT_TICK_PER_SECOND);
 8010efa:	4b0a      	ldr	r3, [pc, #40]	; (8010f24 <rt_hw_board_init+0x30>)
 8010efc:	6818      	ldr	r0, [r3, #0]
 8010efe:	4b0a      	ldr	r3, [pc, #40]	; (8010f28 <rt_hw_board_init+0x34>)
 8010f00:	fba3 3000 	umull	r3, r0, r3, r0
 8010f04:	0980      	lsrs	r0, r0, #6
 8010f06:	f7ff ffd7 	bl	8010eb8 <_SysTick_Config>

    //硬件BSP初始化统统放在这里，比如LED，串口，LCD等
#ifdef RT_USING_COMPONENTS_INIT  //调用组件初始化函数
    rt_components_board_init();
 8010f0a:	f7fd fb59 	bl	800e5c0 <rt_components_board_init>
#endif
//如果同时定义了RT_USING_USER_MAIN和 RT_USING_HEAP这两个宏，表示RT-Thread里面创建内核对象时使用动态内存分配方案。
#if defined(RT_USING_USER_MAIN) && defined(RT_USING_HEAP)
    //（3）初始化堆空间
    rt_system_heap_init(rt_heap_begin_get(), rt_heap_end_get());
 8010f0e:	f7ff ffe9 	bl	8010ee4 <rt_heap_begin_get>
 8010f12:	4604      	mov	r4, r0
 8010f14:	f7ff ffea 	bl	8010eec <rt_heap_end_get>
 8010f18:	4601      	mov	r1, r0
 8010f1a:	4620      	mov	r0, r4
 8010f1c:	f000 fd3a 	bl	8011994 <rt_system_heap_init>
#endif

}
 8010f20:	bd10      	pop	{r4, pc}
 8010f22:	bf00      	nop
 8010f24:	20004000 	.word	0x20004000
 8010f28:	10624dd3 	.word	0x10624dd3

08010f2c <SysTick_Handler>:

void SysTick_Handler(void)
{
 8010f2c:	b508      	push	{r3, lr}
    /* enter interrupt */
    rt_interrupt_enter();
 8010f2e:	f000 fe53 	bl	8011bd8 <rt_interrupt_enter>

    rt_tick_increase();
 8010f32:	f7ff fe93 	bl	8010c5c <rt_tick_increase>

    /* leave interrupt */
    rt_interrupt_leave();
 8010f36:	f000 fe5d 	bl	8011bf4 <rt_interrupt_leave>
}
 8010f3a:	bd08      	pop	{r3, pc}

08010f3c <thread_delayBlue>:
//参数说明：无
//功能概要：每3秒蓝灯反转
//内部调用：无
//======================================================================
void thread_delayBlue(void)
{
 8010f3c:	b508      	push	{r3, lr}
    userprintf("------第一次进入蓝灯线程：%x\r\n",thread_self());
 8010f3e:	f7fe f923 	bl	800f188 <rt_thread_self>
 8010f42:	4601      	mov	r1, r0
 8010f44:	480e      	ldr	r0, [pc, #56]	; (8010f80 <thread_delayBlue+0x44>)
 8010f46:	f7fe f873 	bl	800f030 <userprintf>
    gpio_init(LIGHT_BLUE,GPIO_OUTPUT,LIGHT_OFF);
 8010f4a:	2201      	movs	r2, #1
 8010f4c:	4611      	mov	r1, r2
 8010f4e:	f240 1009 	movw	r0, #265	; 0x109
 8010f52:	f7fe ff31 	bl	800fdb8 <gpio_init>
    while (1)
    {
    	userprintf("1-1.当前运行的线程=%x，蓝灯延时20秒（开始）；\r\n",thread_self());
 8010f56:	f7fe f917 	bl	800f188 <rt_thread_self>
 8010f5a:	4601      	mov	r1, r0
 8010f5c:	4809      	ldr	r0, [pc, #36]	; (8010f84 <thread_delayBlue+0x48>)
 8010f5e:	f7fe f867 	bl	800f030 <userprintf>
		delay_ms(20000);  //延时
 8010f62:	f644 6020 	movw	r0, #20000	; 0x4e20
 8010f66:	f7fe fa07 	bl	800f378 <rt_thread_delay>
		userprintf("1-2.当前运行的线程=%x，蓝灯延时20秒（结束），蓝灯反转。\r\n",thread_self());
 8010f6a:	f7fe f90d 	bl	800f188 <rt_thread_self>
 8010f6e:	4601      	mov	r1, r0
 8010f70:	4805      	ldr	r0, [pc, #20]	; (8010f88 <thread_delayBlue+0x4c>)
 8010f72:	f7fe f85d 	bl	800f030 <userprintf>
		gpio_reverse(LIGHT_BLUE);    //灯的状态反转
 8010f76:	f240 1009 	movw	r0, #265	; 0x109
 8010f7a:	f7fe ff55 	bl	800fe28 <gpio_reverse>
 8010f7e:	e7ea      	b.n	8010f56 <thread_delayBlue+0x1a>
 8010f80:	08012824 	.word	0x08012824
 8010f84:	08012844 	.word	0x08012844
 8010f88:	08012874 	.word	0x08012874

08010f8c <thread_SPThread1>:
//参数说明：无
//功能概要：抢夺信号量
//内部调用：无
//======================================================================
void thread_SPThread1()
{
 8010f8c:	b510      	push	{r4, lr}

    //（1）======申明局部变量===========================================
    int SPcount;      //记录信号量的个数
    uart_send_string(UART_User,(void *)"第一次进入线程1！\n");
 8010f8e:	4921      	ldr	r1, [pc, #132]	; (8011014 <thread_SPThread1+0x88>)
 8010f90:	2002      	movs	r0, #2
 8010f92:	f000 f97b 	bl	801128c <uart_send_string>
	gpio_init(LIGHT_BLUE,GPIO_OUTPUT,LIGHT_OFF);
 8010f96:	2201      	movs	r2, #1
 8010f98:	4611      	mov	r1, r2
 8010f9a:	f240 1009 	movw	r0, #265	; 0x109
 8010f9e:	f7fe ff0b 	bl	800fdb8 <gpio_init>
    gpio_init(LIGHT_GREEN,GPIO_OUTPUT,LIGHT_OFF);
 8010fa2:	2201      	movs	r2, #1
 8010fa4:	4611      	mov	r1, r2
 8010fa6:	f44f 7084 	mov.w	r0, #264	; 0x108
 8010faa:	f7fe ff05 	bl	800fdb8 <gpio_init>
    gpio_init(LIGHT_RED,GPIO_OUTPUT,LIGHT_OFF);
 8010fae:	2201      	movs	r2, #1
 8010fb0:	4611      	mov	r1, r2
 8010fb2:	f240 1007 	movw	r0, #263	; 0x107
 8010fb6:	f7fe feff 	bl	800fdb8 <gpio_init>
 8010fba:	e015      	b.n	8010fe8 <thread_SPThread1+0x5c>
		if(SPcount==0)
		{
			uart_send_string(UART_User,(void *)"SP为0，线程1等待\n");
		}
		//获取一个信号量
		rt_sem_take(SP,RT_WAITING_FOREVER);
 8010fbc:	4c16      	ldr	r4, [pc, #88]	; (8011018 <thread_SPThread1+0x8c>)
 8010fbe:	f04f 31ff 	mov.w	r1, #4294967295
 8010fc2:	6820      	ldr	r0, [r4, #0]
 8010fc4:	f7fe ff75 	bl	800feb2 <rt_sem_take>
		SPcount=SP->value;
 8010fc8:	6823      	ldr	r3, [r4, #0]
		//uart_send_string(UART_User,(void *)"线程1获取1个SP，SP还剩%d\n",SPcount);
		userprintf("线程1获取1个SP，SP还剩%d\n",SPcount);
 8010fca:	8b99      	ldrh	r1, [r3, #28]
 8010fcc:	4813      	ldr	r0, [pc, #76]	; (801101c <thread_SPThread1+0x90>)
 8010fce:	f7fe f82f 	bl	800f030 <userprintf>
		delay_ms(5000);
 8010fd2:	f241 3088 	movw	r0, #5000	; 0x1388
 8010fd6:	f7fe f9cf 	bl	800f378 <rt_thread_delay>
		//释放一个信号量
		rt_sem_release(SP);
 8010fda:	6820      	ldr	r0, [r4, #0]
 8010fdc:	f7fe ffcf 	bl	800ff7e <rt_sem_release>
        uart_send_string(UART_User,(void *)"线程1成功释放1个SP\n");
 8010fe0:	490f      	ldr	r1, [pc, #60]	; (8011020 <thread_SPThread1+0x94>)
 8010fe2:	2002      	movs	r0, #2
 8010fe4:	f000 f952 	bl	801128c <uart_send_string>
    	delay_ms(1000);    //延时1秒
 8010fe8:	f44f 707a 	mov.w	r0, #1000	; 0x3e8
 8010fec:	f7fe f9c4 	bl	800f378 <rt_thread_delay>
    	SPcount=SP->value;  //获取信号量的值
 8010ff0:	4b09      	ldr	r3, [pc, #36]	; (8011018 <thread_SPThread1+0x8c>)
 8010ff2:	681b      	ldr	r3, [r3, #0]
 8010ff4:	8b9c      	ldrh	r4, [r3, #28]
		userprintf("当前SP为%d\n",SPcount);
 8010ff6:	4621      	mov	r1, r4
 8010ff8:	480a      	ldr	r0, [pc, #40]	; (8011024 <thread_SPThread1+0x98>)
 8010ffa:	f7fe f819 	bl	800f030 <userprintf>
    	uart_send_string(UART_User,(void *)"线程1请求1个SP\n");
 8010ffe:	490a      	ldr	r1, [pc, #40]	; (8011028 <thread_SPThread1+0x9c>)
 8011000:	2002      	movs	r0, #2
 8011002:	f000 f943 	bl	801128c <uart_send_string>
		if(SPcount==0)
 8011006:	2c00      	cmp	r4, #0
 8011008:	d1d8      	bne.n	8010fbc <thread_SPThread1+0x30>
			uart_send_string(UART_User,(void *)"SP为0，线程1等待\n");
 801100a:	4908      	ldr	r1, [pc, #32]	; (801102c <thread_SPThread1+0xa0>)
 801100c:	2002      	movs	r0, #2
 801100e:	f000 f93d 	bl	801128c <uart_send_string>
 8011012:	e7d3      	b.n	8010fbc <thread_SPThread1+0x30>
 8011014:	080128b0 	.word	0x080128b0
 8011018:	20007318 	.word	0x20007318
 801101c:	080128e8 	.word	0x080128e8
 8011020:	08012904 	.word	0x08012904
 8011024:	080124dc 	.word	0x080124dc
 8011028:	080128c4 	.word	0x080128c4
 801102c:	080128d4 	.word	0x080128d4

08011030 <Vectors_Init>:
//参数说明：无
//功能概要：User对BIOS中断向量表的部分继承,构件库函数指针初始化
//修改信息：WYH，20200805，规范
//======================================================================
void  Vectors_Init()
{
 8011030:	b500      	push	{lr}
 8011032:	f6ad 0d04 	subw	sp, sp, #2052	; 0x804
    //有用户程序，编译本段代码
    #if (GEC_USER_SECTOR_START!=0)   
    //（1）若Flash倒数1扇区的前24字节为空，则写入设备序列号及软件版本号初值
    if(flash_isempty(MCU_SECTOR_NUM-1,24))
 8011036:	2118      	movs	r1, #24
 8011038:	207f      	movs	r0, #127	; 0x7f
 801103a:	f7fe fdbe 	bl	800fbba <flash_isempty>
 801103e:	bb20      	cbnz	r0, 801108a <Vectors_Init+0x5a>
    }
    //（2）继承BIOS的串口中断
    void ** bios=(void *)MCU_FLASH_ADDR_START;   //向量表起始地址
    uint32_t user[MCU_SECTORSIZE/4];     //向量表变量数组
    //读取USER中断向量表各中断处理程序地址赋给user数组
    flash_read_physical((uint8_t *)user,GEC_USER_SECTOR_START*
 8011040:	f44f 6200 	mov.w	r2, #2048	; 0x800
 8011044:	4914      	ldr	r1, [pc, #80]	; (8011098 <Vectors_Init+0x68>)
 8011046:	4668      	mov	r0, sp
 8011048:	f7fe fdb3 	bl	800fbb2 <flash_read_physical>
    MCU_SECTORSIZE+MCU_FLASH_ADDR_START,MCU_SECTORSIZE);
    //判断USER中串口更新中断是否为BIOS对应中断地址。若是，则不作操作；否则修改
    //为BIOS对应中断地址
    if(user[BIOS_UART_UPDATE_IRQn] != (uint32_t)bios[BIOS_UART_UPDATE_IRQn])
 801104c:	9a37      	ldr	r2, [sp, #220]	; 0xdc
 801104e:	4b13      	ldr	r3, [pc, #76]	; (801109c <Vectors_Init+0x6c>)
 8011050:	681b      	ldr	r3, [r3, #0]
 8011052:	429a      	cmp	r2, r3
 8011054:	d00b      	beq.n	801106e <Vectors_Init+0x3e>
    {
        //改变User中断向量表中BIOS_UART中断向量
        flash_erase(GEC_USER_SECTOR_START);
 8011056:	201a      	movs	r0, #26
 8011058:	f7fe fd76 	bl	800fb48 <flash_erase>
        //改USER中断向量表的BIOS程序写入串口的中断处理程序地址
        user[BIOS_UART_UPDATE_IRQn]=(uint32_t)bios[BIOS_UART_UPDATE_IRQn];
 801105c:	4b0f      	ldr	r3, [pc, #60]	; (801109c <Vectors_Init+0x6c>)
 801105e:	681b      	ldr	r3, [r3, #0]
 8011060:	9337      	str	r3, [sp, #220]	; 0xdc
        user[BIOS_SVC_IRQn]=(uint32_t)bios[BIOS_SVC_IRQn];
		user[BIOS_PendSV_Handler]=(uint32_t)bios[BIOS_PendSV_Handler];
		user[BIOS_SysTick_Handler]=(uint32_t)bios[BIOS_SysTick_Handler];
    #endif
		
        flash_write_physical(GEC_USER_SECTOR_START*MCU_SECTORSIZE+
 8011062:	466a      	mov	r2, sp
 8011064:	f44f 6100 	mov.w	r1, #2048	; 0x800
 8011068:	480b      	ldr	r0, [pc, #44]	; (8011098 <Vectors_Init+0x68>)
 801106a:	f7fe fe65 	bl	800fd38 <flash_write_physical>
        MCU_FLASH_ADDR_START,MCU_SECTORSIZE,(uint8_t *)user);
    }
    
    //（3）中断向量表指针重定向到USER程序的中断向量表
    SCB->VTOR = (uint32_t)(GEC_USER_SECTOR_START*MCU_SECTORSIZE+
 801106e:	4b0c      	ldr	r3, [pc, #48]	; (80110a0 <Vectors_Init+0x70>)
 8011070:	4a09      	ldr	r2, [pc, #36]	; (8011098 <Vectors_Init+0x68>)
 8011072:	609a      	str	r2, [r3, #8]
    MCU_FLASH_ADDR_START);  
    //（4）给component_fun赋值，SYSTEM_FUNCTION函数用
    component_fun=(void **)(MCU_FLASH_ADDR_START+
 8011074:	4b0b      	ldr	r3, [pc, #44]	; (80110a4 <Vectors_Init+0x74>)
 8011076:	f5a2 5260 	sub.w	r2, r2, #14336	; 0x3800
 801107a:	601a      	str	r2, [r3, #0]
                   GEC_COMPONENT_LST_START*MCU_SECTORSIZE); 
    //（5）printf提示
    printf("  【User提示】：将进入User的main()执行...\r\n");
 801107c:	480a      	ldr	r0, [pc, #40]	; (80110a8 <Vectors_Init+0x78>)
 801107e:	f7fd ffc3 	bl	800f008 <myprintf>
    
    #endif
}
 8011082:	f60d 0d04 	addw	sp, sp, #2052	; 0x804
 8011086:	f85d fb04 	ldr.w	pc, [sp], #4
        flash_write_physical((MCU_SECTOR_NUM-1)*MCU_SECTORSIZE+
 801108a:	4a08      	ldr	r2, [pc, #32]	; (80110ac <Vectors_Init+0x7c>)
 801108c:	2118      	movs	r1, #24
 801108e:	4808      	ldr	r0, [pc, #32]	; (80110b0 <Vectors_Init+0x80>)
 8011090:	f7fe fe52 	bl	800fd38 <flash_write_physical>
 8011094:	e7d4      	b.n	8011040 <Vectors_Init+0x10>
 8011096:	bf00      	nop
 8011098:	0800d000 	.word	0x0800d000
 801109c:	080000dc 	.word	0x080000dc
 80110a0:	e000ed00 	.word	0xe000ed00
 80110a4:	20007c70 	.word	0x20007c70
 80110a8:	08012934 	.word	0x08012934
 80110ac:	08012918 	.word	0x08012918
 80110b0:	0803f800 	.word	0x0803f800

080110b4 <uart_is_uartNo>:
//参数说明：串口号uartNo  :UART_1、UART_2、UART_3
//功能概要：为程序健壮性而判断uartNo是否在串口数字范围内
//=====================================================================
uint8_t uart_is_uartNo(uint8_t uartNo)
{
    if(uartNo < UART_1 || uartNo > UART_3)
 80110b4:	3801      	subs	r0, #1
 80110b6:	b2c0      	uxtb	r0, r0
 80110b8:	2802      	cmp	r0, #2
 80110ba:	d801      	bhi.n	80110c0 <uart_is_uartNo+0xc>
        return 0;
    else
        return 1;
 80110bc:	2001      	movs	r0, #1
}
 80110be:	4770      	bx	lr
        return 0;
 80110c0:	2000      	movs	r0, #0
 80110c2:	4770      	bx	lr

080110c4 <uart_init>:
{
 80110c4:	b538      	push	{r3, r4, r5, lr}
 80110c6:	4604      	mov	r4, r0
 80110c8:	460d      	mov	r5, r1
	if(!uart_is_uartNo(uartNo))
 80110ca:	f7ff fff3 	bl	80110b4 <uart_is_uartNo>
 80110ce:	2800      	cmp	r0, #0
 80110d0:	d03c      	beq.n	801114c <uart_init+0x88>
	switch(uartNo)
 80110d2:	2c02      	cmp	r4, #2
 80110d4:	d057      	beq.n	8011186 <uart_init+0xc2>
 80110d6:	2c03      	cmp	r4, #3
 80110d8:	d071      	beq.n	80111be <uart_init+0xfa>
 80110da:	2c01      	cmp	r4, #1
 80110dc:	d037      	beq.n	801114e <uart_init+0x8a>
	USART_ARR[uartNo-1]->CR1 &= ~USART_CR1_UE;
 80110de:	1e60      	subs	r0, r4, #1
 80110e0:	4b47      	ldr	r3, [pc, #284]	; (8011200 <uart_init+0x13c>)
 80110e2:	f853 1020 	ldr.w	r1, [r3, r0, lsl #2]
 80110e6:	680a      	ldr	r2, [r1, #0]
 80110e8:	f022 0201 	bic.w	r2, r2, #1
 80110ec:	600a      	str	r2, [r1, #0]
	USART_ARR[uartNo-1]->CR1 &= ~(USART_CR1_TE_Msk|USART_CR1_RE_Msk);
 80110ee:	f853 1020 	ldr.w	r1, [r3, r0, lsl #2]
 80110f2:	680a      	ldr	r2, [r1, #0]
 80110f4:	f022 020c 	bic.w	r2, r2, #12
 80110f8:	600a      	str	r2, [r1, #0]
	if((USART_ARR[uartNo-1]->CR1 & USART_CR1_OVER8_Msk) == USART_CR1_OVER8_Msk)
 80110fa:	f853 3020 	ldr.w	r3, [r3, r0, lsl #2]
 80110fe:	681a      	ldr	r2, [r3, #0]
 8011100:	f412 4f00 	tst.w	r2, #32768	; 0x8000
 8011104:	d076      	beq.n	80111f4 <uart_init+0x130>
	    usartdiv = (uint16_t)((SystemCoreClock/baud_rate)*2);
 8011106:	4a3f      	ldr	r2, [pc, #252]	; (8011204 <uart_init+0x140>)
 8011108:	6811      	ldr	r1, [r2, #0]
 801110a:	fbb1 f1f5 	udiv	r1, r1, r5
 801110e:	b289      	uxth	r1, r1
 8011110:	0049      	lsls	r1, r1, #1
 8011112:	b289      	uxth	r1, r1
	USART_ARR[uartNo-1]->BRR = usartdiv;
 8011114:	60d9      	str	r1, [r3, #12]
	USART_ARR[uartNo-1]->ISR = 0;
 8011116:	4b3a      	ldr	r3, [pc, #232]	; (8011200 <uart_init+0x13c>)
 8011118:	f853 2020 	ldr.w	r2, [r3, r0, lsl #2]
 801111c:	2100      	movs	r1, #0
 801111e:	61d1      	str	r1, [r2, #28]
	USART_ARR[uartNo-1]->CR2 &= ~(USART_CR2_LINEN | USART_CR2_CLKEN);
 8011120:	6851      	ldr	r1, [r2, #4]
 8011122:	f421 4190 	bic.w	r1, r1, #18432	; 0x4800
 8011126:	6051      	str	r1, [r2, #4]
	USART_ARR[uartNo-1]->CR3 &= ~(USART_CR3_SCEN | USART_CR3_HDSEL | USART_CR3_IREN);
 8011128:	f853 1020 	ldr.w	r1, [r3, r0, lsl #2]
 801112c:	688a      	ldr	r2, [r1, #8]
 801112e:	f022 022a 	bic.w	r2, r2, #42	; 0x2a
 8011132:	608a      	str	r2, [r1, #8]
	USART_ARR[uartNo-1]->CR1 |= (USART_CR1_TE|USART_CR1_RE);
 8011134:	f853 1020 	ldr.w	r1, [r3, r0, lsl #2]
 8011138:	680a      	ldr	r2, [r1, #0]
 801113a:	f042 020c 	orr.w	r2, r2, #12
 801113e:	600a      	str	r2, [r1, #0]
	USART_ARR[uartNo-1]->CR1 |= USART_CR1_UE;
 8011140:	f853 2020 	ldr.w	r2, [r3, r0, lsl #2]
 8011144:	6813      	ldr	r3, [r2, #0]
 8011146:	f043 0301 	orr.w	r3, r3, #1
 801114a:	6013      	str	r3, [r2, #0]
}
 801114c:	bd38      	pop	{r3, r4, r5, pc}
			RCC->APB2ENR |= RCC_APB2ENR_USART1EN;
 801114e:	4b2e      	ldr	r3, [pc, #184]	; (8011208 <uart_init+0x144>)
 8011150:	6e1a      	ldr	r2, [r3, #96]	; 0x60
 8011152:	f442 4280 	orr.w	r2, r2, #16384	; 0x4000
 8011156:	661a      	str	r2, [r3, #96]	; 0x60
			RCC->AHB2ENR |= RCC_AHB2ENR_GPIOAEN;
 8011158:	6cda      	ldr	r2, [r3, #76]	; 0x4c
 801115a:	f042 0201 	orr.w	r2, r2, #1
 801115e:	64da      	str	r2, [r3, #76]	; 0x4c
			GPIOA->MODER &= ~(GPIO_MODER_MODE9|GPIO_MODER_MODE10);
 8011160:	f04f 4390 	mov.w	r3, #1207959552	; 0x48000000
 8011164:	681a      	ldr	r2, [r3, #0]
 8011166:	f422 1270 	bic.w	r2, r2, #3932160	; 0x3c0000
 801116a:	601a      	str	r2, [r3, #0]
			GPIOA->MODER |= (GPIO_MODER_MODE9_1|GPIO_MODER_MODE10_1);
 801116c:	681a      	ldr	r2, [r3, #0]
 801116e:	f442 1220 	orr.w	r2, r2, #2621440	; 0x280000
 8011172:	601a      	str	r2, [r3, #0]
			GPIOA->AFR[1] &= ~(GPIO_AFRH_AFSEL9|GPIO_AFRH_AFSEL10);
 8011174:	6a5a      	ldr	r2, [r3, #36]	; 0x24
 8011176:	f422 627f 	bic.w	r2, r2, #4080	; 0xff0
 801117a:	625a      	str	r2, [r3, #36]	; 0x24
			GPIOA->AFR[1] |= ((GPIO_AFRH_AFSEL9_0 | GPIO_AFRH_AFSEL9_1 | GPIO_AFRH_AFSEL9_2)
 801117c:	6a5a      	ldr	r2, [r3, #36]	; 0x24
 801117e:	f442 62ee 	orr.w	r2, r2, #1904	; 0x770
 8011182:	625a      	str	r2, [r3, #36]	; 0x24
		break;
 8011184:	e7ab      	b.n	80110de <uart_init+0x1a>
			RCC->APB1ENR1 |= RCC_APB1ENR1_USART2EN;
 8011186:	4b20      	ldr	r3, [pc, #128]	; (8011208 <uart_init+0x144>)
 8011188:	6d9a      	ldr	r2, [r3, #88]	; 0x58
 801118a:	f442 3200 	orr.w	r2, r2, #131072	; 0x20000
 801118e:	659a      	str	r2, [r3, #88]	; 0x58
			RCC->AHB2ENR |= RCC_AHB2ENR_GPIOAEN;
 8011190:	6cda      	ldr	r2, [r3, #76]	; 0x4c
 8011192:	f042 0201 	orr.w	r2, r2, #1
 8011196:	64da      	str	r2, [r3, #76]	; 0x4c
			GPIOA->MODER &= ~(GPIO_MODER_MODE2|GPIO_MODER_MODE3);
 8011198:	f04f 4390 	mov.w	r3, #1207959552	; 0x48000000
 801119c:	681a      	ldr	r2, [r3, #0]
 801119e:	f022 02f0 	bic.w	r2, r2, #240	; 0xf0
 80111a2:	601a      	str	r2, [r3, #0]
			GPIOA->MODER |= (GPIO_MODER_MODE2_1|GPIO_MODER_MODE3_1);
 80111a4:	681a      	ldr	r2, [r3, #0]
 80111a6:	f042 02a0 	orr.w	r2, r2, #160	; 0xa0
 80111aa:	601a      	str	r2, [r3, #0]
			GPIOA->AFR[0] &= ~(GPIO_AFRL_AFSEL2|GPIO_AFRL_AFSEL3);
 80111ac:	6a1a      	ldr	r2, [r3, #32]
 80111ae:	f422 427f 	bic.w	r2, r2, #65280	; 0xff00
 80111b2:	621a      	str	r2, [r3, #32]
			GPIOA->AFR[0] |= ((GPIO_AFRL_AFSEL2_0 | GPIO_AFRL_AFSEL2_1 | GPIO_AFRL_AFSEL2_2)
 80111b4:	6a1a      	ldr	r2, [r3, #32]
 80111b6:	f442 42ee 	orr.w	r2, r2, #30464	; 0x7700
 80111ba:	621a      	str	r2, [r3, #32]
		break;
 80111bc:	e78f      	b.n	80110de <uart_init+0x1a>
			RCC->APB1ENR1 |= RCC_APB1ENR1_USART3EN;
 80111be:	4b12      	ldr	r3, [pc, #72]	; (8011208 <uart_init+0x144>)
 80111c0:	6d9a      	ldr	r2, [r3, #88]	; 0x58
 80111c2:	f442 2280 	orr.w	r2, r2, #262144	; 0x40000
 80111c6:	659a      	str	r2, [r3, #88]	; 0x58
			RCC->AHB2ENR |= RCC_AHB2ENR_GPIOCEN;
 80111c8:	6cda      	ldr	r2, [r3, #76]	; 0x4c
 80111ca:	f042 0204 	orr.w	r2, r2, #4
 80111ce:	64da      	str	r2, [r3, #76]	; 0x4c
			GPIOC->MODER &= ~(GPIO_MODER_MODE10|GPIO_MODER_MODE11);
 80111d0:	4b0e      	ldr	r3, [pc, #56]	; (801120c <uart_init+0x148>)
 80111d2:	681a      	ldr	r2, [r3, #0]
 80111d4:	f422 0270 	bic.w	r2, r2, #15728640	; 0xf00000
 80111d8:	601a      	str	r2, [r3, #0]
			GPIOC->MODER |= (GPIO_MODER_MODE10_1|GPIO_MODER_MODE11_1);
 80111da:	681a      	ldr	r2, [r3, #0]
 80111dc:	f442 0220 	orr.w	r2, r2, #10485760	; 0xa00000
 80111e0:	601a      	str	r2, [r3, #0]
			GPIOC->AFR[1] &= ~(GPIO_AFRH_AFSEL10|GPIO_AFRH_AFSEL11);
 80111e2:	6a5a      	ldr	r2, [r3, #36]	; 0x24
 80111e4:	f422 427f 	bic.w	r2, r2, #65280	; 0xff00
 80111e8:	625a      	str	r2, [r3, #36]	; 0x24
			GPIOC->AFR[1] |= ((GPIO_AFRH_AFSEL10_0 | GPIO_AFRH_AFSEL10_1 | GPIO_AFRH_AFSEL10_2)
 80111ea:	6a5a      	ldr	r2, [r3, #36]	; 0x24
 80111ec:	f442 42ee 	orr.w	r2, r2, #30464	; 0x7700
 80111f0:	625a      	str	r2, [r3, #36]	; 0x24
		break;
 80111f2:	e774      	b.n	80110de <uart_init+0x1a>
	    usartdiv = (uint16_t)(SystemCoreClock/baud_rate);
 80111f4:	4a03      	ldr	r2, [pc, #12]	; (8011204 <uart_init+0x140>)
 80111f6:	6811      	ldr	r1, [r2, #0]
 80111f8:	fbb1 f1f5 	udiv	r1, r1, r5
 80111fc:	b289      	uxth	r1, r1
 80111fe:	e789      	b.n	8011114 <uart_init+0x50>
 8011200:	2000408c 	.word	0x2000408c
 8011204:	20004000 	.word	0x20004000
 8011208:	40021000 	.word	0x40021000
 801120c:	48000800 	.word	0x48000800

08011210 <uart_send1>:
{
 8011210:	b538      	push	{r3, r4, r5, lr}
 8011212:	4604      	mov	r4, r0
 8011214:	460d      	mov	r5, r1
	if(!uart_is_uartNo(uartNo))
 8011216:	f7ff ff4d 	bl	80110b4 <uart_is_uartNo>
 801121a:	4603      	mov	r3, r0
 801121c:	b1a8      	cbz	r0, 801124a <uart_send1+0x3a>
	for (t = 0; t < 0xFBBB; t++)//查询指定次数
 801121e:	2200      	movs	r2, #0
 8011220:	f64f 33ba 	movw	r3, #64442	; 0xfbba
 8011224:	429a      	cmp	r2, r3
 8011226:	d80b      	bhi.n	8011240 <uart_send1+0x30>
		if ( USART_ARR[uartNo-1]->ISR & USART_ISR_TXE_Msk )
 8011228:	1e63      	subs	r3, r4, #1
 801122a:	490a      	ldr	r1, [pc, #40]	; (8011254 <uart_send1+0x44>)
 801122c:	f851 3023 	ldr.w	r3, [r1, r3, lsl #2]
 8011230:	69d9      	ldr	r1, [r3, #28]
 8011232:	f011 0f80 	tst.w	r1, #128	; 0x80
 8011236:	d101      	bne.n	801123c <uart_send1+0x2c>
	for (t = 0; t < 0xFBBB; t++)//查询指定次数
 8011238:	3201      	adds	r2, #1
 801123a:	e7f1      	b.n	8011220 <uart_send1+0x10>
			USART_ARR[uartNo-1]->TDR = ch;
 801123c:	b2ad      	uxth	r5, r5
 801123e:	851d      	strh	r5, [r3, #40]	; 0x28
	if (t >= 0xFBBB)
 8011240:	f64f 33ba 	movw	r3, #64442	; 0xfbba
 8011244:	429a      	cmp	r2, r3
 8011246:	d802      	bhi.n	801124e <uart_send1+0x3e>
		return 1; //成功发送
 8011248:	2301      	movs	r3, #1
}
 801124a:	4618      	mov	r0, r3
 801124c:	bd38      	pop	{r3, r4, r5, pc}
		return 0; //发送超时，发送失败
 801124e:	2300      	movs	r3, #0
 8011250:	e7fb      	b.n	801124a <uart_send1+0x3a>
 8011252:	bf00      	nop
 8011254:	2000408c 	.word	0x2000408c

08011258 <uart_sendN>:
{
 8011258:	b5f8      	push	{r3, r4, r5, r6, r7, lr}
 801125a:	4606      	mov	r6, r0
 801125c:	460d      	mov	r5, r1
 801125e:	4617      	mov	r7, r2
    if(!uart_is_uartNo(uartNo))
 8011260:	f7ff ff28 	bl	80110b4 <uart_is_uartNo>
 8011264:	4603      	mov	r3, r0
 8011266:	b168      	cbz	r0, 8011284 <uart_sendN+0x2c>
    for (i = 0; i < len; i++)
 8011268:	2400      	movs	r4, #0
 801126a:	42ac      	cmp	r4, r5
 801126c:	d207      	bcs.n	801127e <uart_sendN+0x26>
        if (!uart_send1(uartNo, buff[i])) //发送一个字节数据，失败则跳出循环
 801126e:	5d39      	ldrb	r1, [r7, r4]
 8011270:	4630      	mov	r0, r6
 8011272:	f7ff ffcd 	bl	8011210 <uart_send1>
 8011276:	b110      	cbz	r0, 801127e <uart_sendN+0x26>
    for (i = 0; i < len; i++)
 8011278:	3401      	adds	r4, #1
 801127a:	b2a4      	uxth	r4, r4
 801127c:	e7f5      	b.n	801126a <uart_sendN+0x12>
    if(i<len)
 801127e:	42ac      	cmp	r4, r5
 8011280:	d302      	bcc.n	8011288 <uart_sendN+0x30>
        return 1;    //发送出错
 8011282:	2301      	movs	r3, #1
}
 8011284:	4618      	mov	r0, r3
 8011286:	bdf8      	pop	{r3, r4, r5, r6, r7, pc}
        return 0;    //发送出错
 8011288:	2300      	movs	r3, #0
 801128a:	e7fb      	b.n	8011284 <uart_sendN+0x2c>

0801128c <uart_send_string>:
{
 801128c:	b570      	push	{r4, r5, r6, lr}
 801128e:	4606      	mov	r6, r0
 8011290:	460d      	mov	r5, r1
    if(!uart_is_uartNo(uartNo))
 8011292:	f7ff ff0f 	bl	80110b4 <uart_is_uartNo>
 8011296:	4603      	mov	r3, r0
 8011298:	b158      	cbz	r0, 80112b2 <uart_send_string+0x26>
    for(i = 0; buff_ptr[i] != '\0'; i++)   //遍历字符串里的字符
 801129a:	2400      	movs	r4, #0
 801129c:	5d29      	ldrb	r1, [r5, r4]
 801129e:	b139      	cbz	r1, 80112b0 <uart_send_string+0x24>
        if (!uart_send1(uartNo,buff_ptr[i]))//发送指针对应的字符
 80112a0:	4630      	mov	r0, r6
 80112a2:	f7ff ffb5 	bl	8011210 <uart_send1>
 80112a6:	4603      	mov	r3, r0
 80112a8:	b118      	cbz	r0, 80112b2 <uart_send_string+0x26>
    for(i = 0; buff_ptr[i] != '\0'; i++)   //遍历字符串里的字符
 80112aa:	3401      	adds	r4, #1
 80112ac:	b2a4      	uxth	r4, r4
 80112ae:	e7f5      	b.n	801129c <uart_send_string+0x10>
    return 1;          //发送成功
 80112b0:	2301      	movs	r3, #1
}
 80112b2:	4618      	mov	r0, r3
 80112b4:	bd70      	pop	{r4, r5, r6, pc}

080112b6 <useruart_send_string>:
{
 80112b6:	b530      	push	{r4, r5, lr}
 80112b8:	f2ad 4d04 	subw	sp, sp, #1028	; 0x404
 80112bc:	4605      	mov	r5, r0
 80112be:	460c      	mov	r4, r1
	uint8_t code_head[1024]={0Xa5,0x5a,0x03,0x82,0x01,0x00};
 80112c0:	f44f 6280 	mov.w	r2, #1024	; 0x400
 80112c4:	2100      	movs	r1, #0
 80112c6:	4668      	mov	r0, sp
 80112c8:	f000 ffe3 	bl	8012292 <memset>
 80112cc:	23a5      	movs	r3, #165	; 0xa5
 80112ce:	f88d 3000 	strb.w	r3, [sp]
 80112d2:	235a      	movs	r3, #90	; 0x5a
 80112d4:	f88d 3001 	strb.w	r3, [sp, #1]
 80112d8:	2303      	movs	r3, #3
 80112da:	f88d 3002 	strb.w	r3, [sp, #2]
 80112de:	2382      	movs	r3, #130	; 0x82
 80112e0:	f88d 3003 	strb.w	r3, [sp, #3]
 80112e4:	2301      	movs	r3, #1
 80112e6:	f88d 3004 	strb.w	r3, [sp, #4]
	n=strlen(buff_ptr);
 80112ea:	4620      	mov	r0, r4
 80112ec:	f7fc fb44 	bl	800d978 <strlen>
	code_head[2]+=n;
 80112f0:	3003      	adds	r0, #3
 80112f2:	f88d 0002 	strb.w	r0, [sp, #2]
	strcat(code_head,buff_ptr);
 80112f6:	4621      	mov	r1, r4
 80112f8:	4668      	mov	r0, sp
 80112fa:	f000 ffd2 	bl	80122a2 <strcat>
    if(!uart_is_uartNo(uartNo))
 80112fe:	4628      	mov	r0, r5
 8011300:	f7ff fed8 	bl	80110b4 <uart_is_uartNo>
 8011304:	4603      	mov	r3, r0
 8011306:	b160      	cbz	r0, 8011322 <useruart_send_string+0x6c>
    for(i = 0; code_head[i] != '\0'; i++)   //遍历字符串里的字符
 8011308:	2400      	movs	r4, #0
 801130a:	f81d 1004 	ldrb.w	r1, [sp, r4]
 801130e:	b139      	cbz	r1, 8011320 <useruart_send_string+0x6a>
        if (!uart_send1(uartNo,code_head[i]))//发送指针对应的字符
 8011310:	4628      	mov	r0, r5
 8011312:	f7ff ff7d 	bl	8011210 <uart_send1>
 8011316:	4603      	mov	r3, r0
 8011318:	b118      	cbz	r0, 8011322 <useruart_send_string+0x6c>
    for(i = 0; code_head[i] != '\0'; i++)   //遍历字符串里的字符
 801131a:	3401      	adds	r4, #1
 801131c:	b2a4      	uxth	r4, r4
 801131e:	e7f4      	b.n	801130a <useruart_send_string+0x54>
    return 1;          //发送成功
 8011320:	2301      	movs	r3, #1
}
 8011322:	4618      	mov	r0, r3
 8011324:	f20d 4d04 	addw	sp, sp, #1028	; 0x404
 8011328:	bd30      	pop	{r4, r5, pc}
	...

0801132c <uart_re1>:
{
 801132c:	b570      	push	{r4, r5, r6, lr}
 801132e:	4604      	mov	r4, r0
 8011330:	460d      	mov	r5, r1
	if(!uart_is_uartNo(uartNo))
 8011332:	f7ff febf 	bl	80110b4 <uart_is_uartNo>
 8011336:	4606      	mov	r6, r0
 8011338:	b170      	cbz	r0, 8011358 <uart_re1+0x2c>
	for (t = 0; t < 0xFBBB; t++)//查询指定次数
 801133a:	2200      	movs	r2, #0
 801133c:	f64f 33ba 	movw	r3, #64442	; 0xfbba
 8011340:	429a      	cmp	r2, r3
 8011342:	d811      	bhi.n	8011368 <uart_re1+0x3c>
		if (USART_ARR[uartNo-1]->ISR & USART_ISR_RXNE_Msk)
 8011344:	1e63      	subs	r3, r4, #1
 8011346:	490c      	ldr	r1, [pc, #48]	; (8011378 <uart_re1+0x4c>)
 8011348:	f851 3023 	ldr.w	r3, [r1, r3, lsl #2]
 801134c:	69d9      	ldr	r1, [r3, #28]
 801134e:	f011 0f20 	tst.w	r1, #32
 8011352:	d105      	bne.n	8011360 <uart_re1+0x34>
	for (t = 0; t < 0xFBBB; t++)//查询指定次数
 8011354:	3201      	adds	r2, #1
 8011356:	e7f1      	b.n	801133c <uart_re1+0x10>
		*fp=0;
 8011358:	2300      	movs	r3, #0
 801135a:	702b      	strb	r3, [r5, #0]
}
 801135c:	4630      	mov	r0, r6
 801135e:	bd70      	pop	{r4, r5, r6, pc}
			dat=USART_ARR[uartNo-1]->RDR;    //获取数据,清接收中断位
 8011360:	8c9e      	ldrh	r6, [r3, #36]	; 0x24
 8011362:	b2f6      	uxtb	r6, r6
			*fp = 1;  //接收成功
 8011364:	2301      	movs	r3, #1
 8011366:	702b      	strb	r3, [r5, #0]
	if(t >= 0xFBBB)
 8011368:	f64f 33ba 	movw	r3, #64442	; 0xfbba
 801136c:	429a      	cmp	r2, r3
 801136e:	d9f5      	bls.n	801135c <uart_re1+0x30>
		*fp = 0;    //未收到数据
 8011370:	2300      	movs	r3, #0
 8011372:	702b      	strb	r3, [r5, #0]
		dat = 0xFF;
 8011374:	26ff      	movs	r6, #255	; 0xff
 8011376:	e7f1      	b.n	801135c <uart_re1+0x30>
 8011378:	2000408c 	.word	0x2000408c

0801137c <uart_enable_re_int>:
{
 801137c:	b510      	push	{r4, lr}
 801137e:	4604      	mov	r4, r0
	if(!uart_is_uartNo(uartNo))
 8011380:	f7ff fe98 	bl	80110b4 <uart_is_uartNo>
 8011384:	b198      	cbz	r0, 80113ae <uart_enable_re_int+0x32>
	USART_ARR[uartNo-1]->CR1 |= USART_CR1_RXNEIE_Msk;    //开放UART接收中断
 8011386:	1e60      	subs	r0, r4, #1
 8011388:	4b09      	ldr	r3, [pc, #36]	; (80113b0 <uart_enable_re_int+0x34>)
 801138a:	f853 2020 	ldr.w	r2, [r3, r0, lsl #2]
 801138e:	6813      	ldr	r3, [r2, #0]
 8011390:	f043 0320 	orr.w	r3, r3, #32
 8011394:	6013      	str	r3, [r2, #0]
	NVIC_EnableIRQ(table_irq_uart[uartNo-1]);    //开中断控制器IRQ中断
 8011396:	4b07      	ldr	r3, [pc, #28]	; (80113b4 <uart_enable_re_int+0x38>)
 8011398:	561b      	ldrsb	r3, [r3, r0]
  \param [in]      IRQn  Device specific interrupt number.
  \note    IRQn must not be negative.
 */
__STATIC_INLINE void __NVIC_EnableIRQ(IRQn_Type IRQn)
{
  if ((int32_t)(IRQn) >= 0)
 801139a:	2b00      	cmp	r3, #0
 801139c:	db07      	blt.n	80113ae <uart_enable_re_int+0x32>
  {
    NVIC->ISER[(((uint32_t)IRQn) >> 5UL)] = (uint32_t)(1UL << (((uint32_t)IRQn) & 0x1FUL));
 801139e:	f003 011f 	and.w	r1, r3, #31
 80113a2:	095b      	lsrs	r3, r3, #5
 80113a4:	2201      	movs	r2, #1
 80113a6:	408a      	lsls	r2, r1
 80113a8:	4903      	ldr	r1, [pc, #12]	; (80113b8 <uart_enable_re_int+0x3c>)
 80113aa:	f841 2023 	str.w	r2, [r1, r3, lsl #2]
}
 80113ae:	bd10      	pop	{r4, pc}
 80113b0:	2000408c 	.word	0x2000408c
 80113b4:	20004098 	.word	0x20004098
 80113b8:	e000e100 	.word	0xe000e100

080113bc <uart_get_re_int>:
{
 80113bc:	b510      	push	{r4, lr}
 80113be:	4604      	mov	r4, r0
	if(!uart_is_uartNo(uartNo))
 80113c0:	f7ff fe78 	bl	80110b4 <uart_is_uartNo>
 80113c4:	4603      	mov	r3, r0
 80113c6:	b170      	cbz	r0, 80113e6 <uart_get_re_int+0x2a>
	if(((USART_ARR[uartNo-1]->ISR & USART_ISR_RXNE_Msk) == USART_ISR_RXNE_Msk)
 80113c8:	3c01      	subs	r4, #1
 80113ca:	4b09      	ldr	r3, [pc, #36]	; (80113f0 <uart_get_re_int+0x34>)
 80113cc:	f853 3024 	ldr.w	r3, [r3, r4, lsl #2]
 80113d0:	69da      	ldr	r2, [r3, #28]
 80113d2:	f012 0f20 	tst.w	r2, #32
 80113d6:	d005      	beq.n	80113e4 <uart_get_re_int+0x28>
			&& ((USART_ARR[uartNo-1]->CR1 & USART_CR1_RXNEIE_Msk) == USART_CR1_RXNEIE_Msk))
 80113d8:	681b      	ldr	r3, [r3, #0]
 80113da:	f013 0f20 	tst.w	r3, #32
 80113de:	d104      	bne.n	80113ea <uart_get_re_int+0x2e>
		return 0;
 80113e0:	2300      	movs	r3, #0
 80113e2:	e000      	b.n	80113e6 <uart_get_re_int+0x2a>
 80113e4:	2300      	movs	r3, #0
}
 80113e6:	4618      	mov	r0, r3
 80113e8:	bd10      	pop	{r4, pc}
		return 1;
 80113ea:	2301      	movs	r3, #1
 80113ec:	e7fb      	b.n	80113e6 <uart_get_re_int+0x2a>
 80113ee:	bf00      	nop
 80113f0:	2000408c 	.word	0x2000408c

080113f4 <rt_thread_idle_excute>:
     * into a "if".
     *
     * So add the volatile qualifier here. */
    const volatile rt_list_t *l = (const volatile rt_list_t *)&rt_thread_defunct;

    return l->next != l;
 80113f4:	4b1f      	ldr	r3, [pc, #124]	; (8011474 <rt_thread_idle_excute+0x80>)
 80113f6:	681a      	ldr	r2, [r3, #0]
 */
void rt_thread_idle_excute(void)
{
    /* Loop until there is no dead thread. So one call to rt_thread_idle_excute
     * will do all the cleanups. */
    while (_has_defunct_thread())
 80113f8:	429a      	cmp	r2, r3
 80113fa:	d039      	beq.n	8011470 <rt_thread_idle_excute+0x7c>
{
 80113fc:	b570      	push	{r4, r5, r6, lr}
        struct rt_dlmodule *module = RT_NULL;
#endif
        RT_DEBUG_NOT_IN_INTERRUPT;

        /* disable interrupt */
        lock = rt_hw_interrupt_disable();
 80113fe:	f7fc fa1f 	bl	800d840 <rt_hw_interrupt_disable>
 8011402:	4606      	mov	r6, r0
    return l->next != l;
 8011404:	4b1b      	ldr	r3, [pc, #108]	; (8011474 <rt_thread_idle_excute+0x80>)
 8011406:	681a      	ldr	r2, [r3, #0]

        /* re-check whether list is empty */
        if (_has_defunct_thread())
 8011408:	429a      	cmp	r2, r3
 801140a:	d02e      	beq.n	801146a <rt_thread_idle_excute+0x76>
        {
            /* get defunct thread */
            thread = rt_list_entry(rt_thread_defunct.next,
 801140c:	681c      	ldr	r4, [r3, #0]
 801140e:	f1a4 0514 	sub.w	r5, r4, #20
    n->next->prev = n->prev;
 8011412:	6823      	ldr	r3, [r4, #0]
 8011414:	6862      	ldr	r2, [r4, #4]
 8011416:	605a      	str	r2, [r3, #4]
    n->prev->next = n->next;
 8011418:	6863      	ldr	r3, [r4, #4]
 801141a:	6822      	ldr	r2, [r4, #0]
 801141c:	601a      	str	r2, [r3, #0]
    n->next = n->prev = n;
 801141e:	6064      	str	r4, [r4, #4]
 8011420:	6024      	str	r4, [r4, #0]
#endif
            /* remove defunct thread */
            rt_list_remove(&(thread->tlist));

            /* lock scheduler to prevent scheduling in cleanup function. */
            rt_enter_critical();
 8011422:	f7ff fcf7 	bl	8010e14 <rt_enter_critical>

            /* invoke thread cleanup */
            if (thread->cleanup != RT_NULL)
 8011426:	6e63      	ldr	r3, [r4, #100]	; 0x64
 8011428:	b10b      	cbz	r3, 801142e <rt_thread_idle_excute+0x3a>
                thread->cleanup(thread);
 801142a:	4628      	mov	r0, r5
 801142c:	4798      	blx	r3
#ifdef RT_USING_SIGNALS
            rt_thread_free_sig(thread);
#endif

            /* if it's a system object, not delete it */
            if (rt_object_is_systemobject((rt_object_t)thread) == RT_TRUE)
 801142e:	4628      	mov	r0, r5
 8011430:	f7fe faf7 	bl	800fa22 <rt_object_is_systemobject>
 8011434:	2801      	cmp	r0, #1
 8011436:	d00f      	beq.n	8011458 <rt_thread_idle_excute+0x64>

                return;
            }

            /* unlock scheduler */
            rt_exit_critical();
 8011438:	f7ff fcf8 	bl	8010e2c <rt_exit_critical>
            /* may the defunct thread list is removed by others, just return */
            return;
        }

        /* enable interrupt */
        rt_hw_interrupt_enable(lock);
 801143c:	4630      	mov	r0, r6
 801143e:	f7fc fa03 	bl	800d848 <rt_hw_interrupt_enable>

#ifdef RT_USING_HEAP
        /* release thread's stack */
        RT_KERNEL_FREE(thread->stack_addr);
 8011442:	6960      	ldr	r0, [r4, #20]
 8011444:	f000 fb74 	bl	8011b30 <rt_free>
        /* delete thread object */
        rt_object_delete((rt_object_t)thread);
 8011448:	4628      	mov	r0, r5
 801144a:	f7fe fad4 	bl	800f9f6 <rt_object_delete>
    return l->next != l;
 801144e:	4b09      	ldr	r3, [pc, #36]	; (8011474 <rt_thread_idle_excute+0x80>)
 8011450:	681a      	ldr	r2, [r3, #0]
    while (_has_defunct_thread())
 8011452:	429a      	cmp	r2, r3
 8011454:	d1d3      	bne.n	80113fe <rt_thread_idle_excute+0xa>
 8011456:	e00a      	b.n	801146e <rt_thread_idle_excute+0x7a>
                rt_object_detach((rt_object_t)thread);
 8011458:	4628      	mov	r0, r5
 801145a:	f7fe fa91 	bl	800f980 <rt_object_detach>
                rt_exit_critical();
 801145e:	f7ff fce5 	bl	8010e2c <rt_exit_critical>
                rt_hw_interrupt_enable(lock);
 8011462:	4630      	mov	r0, r6
 8011464:	f7fc f9f0 	bl	800d848 <rt_hw_interrupt_enable>
                return;
 8011468:	e001      	b.n	801146e <rt_thread_idle_excute+0x7a>
            rt_hw_interrupt_enable(lock);
 801146a:	f7fc f9ed 	bl	800d848 <rt_hw_interrupt_enable>
#endif
    }
}
 801146e:	bd70      	pop	{r4, r5, r6, pc}
 8011470:	4770      	bx	lr
 8011472:	bf00      	nop
 8011474:	20007c68 	.word	0x20007c68

08011478 <rt_thread_idle_entry>:

extern void rt_system_power_manager(void);
static void rt_thread_idle_entry(void *parameter)
{
 8011478:	b508      	push	{r3, lr}
                idle_hook_list[i]();
            }
        }
#endif

        rt_thread_idle_excute();
 801147a:	f7ff ffbb 	bl	80113f4 <rt_thread_idle_excute>
 801147e:	e7fc      	b.n	801147a <rt_thread_idle_entry+0x2>

08011480 <rt_thread_idle_init>:
 * This function will initialize idle thread, then start it.
 *
 * @note this function must be invoked when system init.
 */
void rt_thread_idle_init(void)
{
 8011480:	b510      	push	{r4, lr}
 8011482:	b084      	sub	sp, #16
    /* initialize thread */
    rt_thread_init(&idle,
 8011484:	4c0a      	ldr	r4, [pc, #40]	; (80114b0 <rt_thread_idle_init+0x30>)
 8011486:	2320      	movs	r3, #32
 8011488:	9303      	str	r3, [sp, #12]
 801148a:	231f      	movs	r3, #31
 801148c:	9302      	str	r3, [sp, #8]
 801148e:	f44f 7380 	mov.w	r3, #256	; 0x100
 8011492:	9301      	str	r3, [sp, #4]
 8011494:	4b07      	ldr	r3, [pc, #28]	; (80114b4 <rt_thread_idle_init+0x34>)
 8011496:	9300      	str	r3, [sp, #0]
 8011498:	2300      	movs	r3, #0
 801149a:	4a07      	ldr	r2, [pc, #28]	; (80114b8 <rt_thread_idle_init+0x38>)
 801149c:	4907      	ldr	r1, [pc, #28]	; (80114bc <rt_thread_idle_init+0x3c>)
 801149e:	4620      	mov	r0, r4
 80114a0:	f7fd fe57 	bl	800f152 <rt_thread_init>
                   sizeof(rt_thread_stack),
                   RT_THREAD_PRIORITY_MAX - 1,
                   32);

    /* startup */
    rt_thread_startup(&idle);
 80114a4:	4620      	mov	r0, r4
 80114a6:	f7fd ff8f 	bl	800f3c8 <rt_thread_startup>
}
 80114aa:	b004      	add	sp, #16
 80114ac:	bd10      	pop	{r4, pc}
 80114ae:	bf00      	nop
 80114b0:	20007154 	.word	0x20007154
 80114b4:	200071d4 	.word	0x200071d4
 80114b8:	08011479 	.word	0x08011479
 80114bc:	08012960 	.word	0x08012960

080114c0 <app_init>:
//功能概要：主线程，要完成全局变量初始化、外设初始化、创建其他用户线程、启动用户线程等工作
//内部调用：无
//======================================================================

void app_init(void)
{
 80114c0:	b570      	push	{r4, r5, r6, lr}
 80114c2:	b082      	sub	sp, #8


	
	//（1.2）【不变】BIOS中API接口表首地址、用户中断处理程序名初始化
	//（1.3）【不变】关总中断
	DISABLE_INTERRUPTS;
 80114c4:	b672      	cpsid	i
	//（1.4）给主函数使用的局部变量赋初值

	//（1.5）给全局变量赋初值

	//（1.6）用户外设模块初始化
	printf("  调用gpio_init函数，分别初始化红灯、绿灯、蓝灯\r\n");
 80114c6:	4870      	ldr	r0, [pc, #448]	; (8011688 <app_init+0x1c8>)
 80114c8:	f7fd fd9e 	bl	800f008 <myprintf>
	gpio_init(LIGHT_GREEN,GPIO_OUTPUT,LIGHT_OFF);
 80114cc:	2201      	movs	r2, #1
 80114ce:	4611      	mov	r1, r2
 80114d0:	f44f 7084 	mov.w	r0, #264	; 0x108
 80114d4:	f7fe fc70 	bl	800fdb8 <gpio_init>
	gpio_init(LIGHT_BLUE,GPIO_OUTPUT,LIGHT_OFF);
 80114d8:	2201      	movs	r2, #1
 80114da:	4611      	mov	r1, r2
 80114dc:	f240 1009 	movw	r0, #265	; 0x109
 80114e0:	f7fe fc6a 	bl	800fdb8 <gpio_init>
	gpio_init(LIGHT_RED,GPIO_OUTPUT,LIGHT_OFF);
 80114e4:	2201      	movs	r2, #1
 80114e6:	4611      	mov	r1, r2
 80114e8:	f240 1007 	movw	r0, #263	; 0x107
 80114ec:	f7fe fc64 	bl	800fdb8 <gpio_init>
	uart_init(UART_User,115200); 
 80114f0:	f44f 31e1 	mov.w	r1, #115200	; 0x1c200
 80114f4:	2002      	movs	r0, #2
 80114f6:	f7ff fde5 	bl	80110c4 <uart_init>
	//（1.7）使能模块中断
	uart_enable_re_int(UART_User);
 80114fa:	2002      	movs	r0, #2
 80114fc:	f7ff ff3e 	bl	801137c <uart_enable_re_int>
	//（1.8）【不变】开总中断
	ENABLE_INTERRUPTS;
 8011500:	b662      	cpsie	i
	printf("【金葫芦提示】本程序为带RT-Thread的STM32用户程序\r\n");
 8011502:	4862      	ldr	r0, [pc, #392]	; (801168c <app_init+0x1cc>)
 8011504:	f7fd fd80 	bl	800f008 <myprintf>
	printf("【基本功能】①在 RT-Thread启动后创建了红灯、绿灯和蓝灯三个用户线程\r\n");
 8011508:	4861      	ldr	r0, [pc, #388]	; (8011690 <app_init+0x1d0>)
 801150a:	f7fd fd7d 	bl	800f008 <myprintf>
	printf("	        ②实现蓝灯每10秒闪烁一次,并设置事件字\r\n");
 801150e:	4861      	ldr	r0, [pc, #388]	; (8011694 <app_init+0x1d4>)
 8011510:	f7fd fd7a 	bl	800f008 <myprintf>
	printf("	        ③绿灯线程等待到事件字，转换绿灯状态\r\n");
 8011514:	4860      	ldr	r0, [pc, #384]	; (8011698 <app_init+0x1d8>)
 8011516:	f7fd fd77 	bl	800f008 <myprintf>
	printf("【操作方法】连接串口User，选择波特率为115200，打开串口，查看输出结果...\r\r\n\n");
 801151a:	4860      	ldr	r0, [pc, #384]	; (801169c <app_init+0x1dc>)
 801151c:	f7fd fd74 	bl	800f008 <myprintf>
	printf("0-1.MCU启动\n");
 8011520:	485f      	ldr	r0, [pc, #380]	; (80116a0 <app_init+0x1e0>)
 8011522:	f7fd fd71 	bl	800f008 <myprintf>
	
	//创建事件字
	EventWord=rt_event_create("EventWord",RT_IPC_FLAG_PRIO);
 8011526:	2101      	movs	r1, #1
 8011528:	485e      	ldr	r0, [pc, #376]	; (80116a4 <app_init+0x1e4>)
 801152a:	f7fe fe2f 	bl	801018c <rt_event_create>
 801152e:	4b5e      	ldr	r3, [pc, #376]	; (80116a8 <app_init+0x1e8>)
 8011530:	6018      	str	r0, [r3, #0]
	//创建消息队列
	mq=rt_mq_create("mq",9,4,RT_IPC_FLAG_FIFO);
 8011532:	2300      	movs	r3, #0
 8011534:	2204      	movs	r2, #4
 8011536:	2109      	movs	r1, #9
 8011538:	485c      	ldr	r0, [pc, #368]	; (80116ac <app_init+0x1ec>)
 801153a:	f7fe ff35 	bl	80103a8 <rt_mq_create>
 801153e:	4b5c      	ldr	r3, [pc, #368]	; (80116b0 <app_init+0x1f0>)
 8011540:	6018      	str	r0, [r3, #0]
	//创建信号量
	SP=rt_sem_create("SP",2,RT_IPC_FLAG_FIFO);
 8011542:	2200      	movs	r2, #0
 8011544:	2102      	movs	r1, #2
 8011546:	485b      	ldr	r0, [pc, #364]	; (80116b4 <app_init+0x1f4>)
 8011548:	f7fe fca2 	bl	800fe90 <rt_sem_create>
 801154c:	4b5a      	ldr	r3, [pc, #360]	; (80116b8 <app_init+0x1f8>)
 801154e:	6018      	str	r0, [r3, #0]
	//创建互斥量
	mutex=rt_mutex_create("mutex",RT_IPC_FLAG_PRIO);
 8011550:	2101      	movs	r1, #1
 8011552:	485a      	ldr	r0, [pc, #360]	; (80116bc <app_init+0x1fc>)
 8011554:	f7fe fd2f 	bl	800ffb6 <rt_mutex_create>
 8011558:	4b59      	ldr	r3, [pc, #356]	; (80116c0 <app_init+0x200>)
 801155a:	6018      	str	r0, [r3, #0]


	//创建命令选择线程
	thd_rulechoose=rt_thread_create("rulechoose", (void *)thread_rulechoose, 0, 512, 9, 10);
 801155c:	240a      	movs	r4, #10
 801155e:	9401      	str	r4, [sp, #4]
 8011560:	2309      	movs	r3, #9
 8011562:	9300      	str	r3, [sp, #0]
 8011564:	f44f 7300 	mov.w	r3, #512	; 0x200
 8011568:	2200      	movs	r2, #0
 801156a:	4956      	ldr	r1, [pc, #344]	; (80116c4 <app_init+0x204>)
 801156c:	4856      	ldr	r0, [pc, #344]	; (80116c8 <app_init+0x208>)
 801156e:	f7fd fe3d 	bl	800f1ec <rt_thread_create>
 8011572:	4606      	mov	r6, r0
	//创建三色灯线程
	thd_eventGreen = rt_thread_create("eventGreen", (void *)thread_eventGreen, 0, 512, 10, 10);
 8011574:	9401      	str	r4, [sp, #4]
 8011576:	9400      	str	r4, [sp, #0]
 8011578:	f44f 7300 	mov.w	r3, #512	; 0x200
 801157c:	2200      	movs	r2, #0
 801157e:	4953      	ldr	r1, [pc, #332]	; (80116cc <app_init+0x20c>)
 8011580:	4853      	ldr	r0, [pc, #332]	; (80116d0 <app_init+0x210>)
 8011582:	f7fd fe33 	bl	800f1ec <rt_thread_create>
 8011586:	4b53      	ldr	r3, [pc, #332]	; (80116d4 <app_init+0x214>)
 8011588:	6018      	str	r0, [r3, #0]
	thd_eventBlue = rt_thread_create("eventBlue", (void *)thd_eventBlue, 0, 512, 10, 10);
 801158a:	4d53      	ldr	r5, [pc, #332]	; (80116d8 <app_init+0x218>)
 801158c:	9401      	str	r4, [sp, #4]
 801158e:	9400      	str	r4, [sp, #0]
 8011590:	f44f 7300 	mov.w	r3, #512	; 0x200
 8011594:	2200      	movs	r2, #0
 8011596:	6829      	ldr	r1, [r5, #0]
 8011598:	4850      	ldr	r0, [pc, #320]	; (80116dc <app_init+0x21c>)
 801159a:	f7fd fe27 	bl	800f1ec <rt_thread_create>
 801159e:	6028      	str	r0, [r5, #0]
	//创建消息队列线程
	thd_messagerecv = rt_thread_create("messagerecv", (void *)thread_messagerecv, 0, 512, 10, 10);
 80115a0:	9401      	str	r4, [sp, #4]
 80115a2:	9400      	str	r4, [sp, #0]
 80115a4:	f44f 7300 	mov.w	r3, #512	; 0x200
 80115a8:	2200      	movs	r2, #0
 80115aa:	494d      	ldr	r1, [pc, #308]	; (80116e0 <app_init+0x220>)
 80115ac:	484d      	ldr	r0, [pc, #308]	; (80116e4 <app_init+0x224>)
 80115ae:	f7fd fe1d 	bl	800f1ec <rt_thread_create>
 80115b2:	4b4d      	ldr	r3, [pc, #308]	; (80116e8 <app_init+0x228>)
 80115b4:	6018      	str	r0, [r3, #0]
	//创建三个信号量线程
	thd_SPThread1 = rt_thread_create("SPThread1", (void *)thread_SPThread1, 0, 512, 10, 10);
 80115b6:	9401      	str	r4, [sp, #4]
 80115b8:	9400      	str	r4, [sp, #0]
 80115ba:	f44f 7300 	mov.w	r3, #512	; 0x200
 80115be:	2200      	movs	r2, #0
 80115c0:	494a      	ldr	r1, [pc, #296]	; (80116ec <app_init+0x22c>)
 80115c2:	484b      	ldr	r0, [pc, #300]	; (80116f0 <app_init+0x230>)
 80115c4:	f7fd fe12 	bl	800f1ec <rt_thread_create>
 80115c8:	4b4a      	ldr	r3, [pc, #296]	; (80116f4 <app_init+0x234>)
 80115ca:	6018      	str	r0, [r3, #0]
	thd_SPThread2 = rt_thread_create("SPThread2", (void *)thread_SPThread2, 0, 512, 10, 10);
 80115cc:	9401      	str	r4, [sp, #4]
 80115ce:	9400      	str	r4, [sp, #0]
 80115d0:	f44f 7300 	mov.w	r3, #512	; 0x200
 80115d4:	2200      	movs	r2, #0
 80115d6:	4948      	ldr	r1, [pc, #288]	; (80116f8 <app_init+0x238>)
 80115d8:	4848      	ldr	r0, [pc, #288]	; (80116fc <app_init+0x23c>)
 80115da:	f7fd fe07 	bl	800f1ec <rt_thread_create>
 80115de:	4b48      	ldr	r3, [pc, #288]	; (8011700 <app_init+0x240>)
 80115e0:	6018      	str	r0, [r3, #0]
	thd_SPThread3 = rt_thread_create("SPThread3", (void *)thread_SPThread3, 0, 512, 10, 10);
 80115e2:	9401      	str	r4, [sp, #4]
 80115e4:	9400      	str	r4, [sp, #0]
 80115e6:	f44f 7300 	mov.w	r3, #512	; 0x200
 80115ea:	2200      	movs	r2, #0
 80115ec:	4945      	ldr	r1, [pc, #276]	; (8011704 <app_init+0x244>)
 80115ee:	4846      	ldr	r0, [pc, #280]	; (8011708 <app_init+0x248>)
 80115f0:	f7fd fdfc 	bl	800f1ec <rt_thread_create>
 80115f4:	4b45      	ldr	r3, [pc, #276]	; (801170c <app_init+0x24c>)
 80115f6:	6018      	str	r0, [r3, #0]
	//创建三个互斥量线程
	thd_mutexBlue = rt_thread_create("mutexBlue", (void *)thread_mutexBlue, 0, 512, 10, 10);
 80115f8:	9401      	str	r4, [sp, #4]
 80115fa:	9400      	str	r4, [sp, #0]
 80115fc:	f44f 7300 	mov.w	r3, #512	; 0x200
 8011600:	2200      	movs	r2, #0
 8011602:	4943      	ldr	r1, [pc, #268]	; (8011710 <app_init+0x250>)
 8011604:	4843      	ldr	r0, [pc, #268]	; (8011714 <app_init+0x254>)
 8011606:	f7fd fdf1 	bl	800f1ec <rt_thread_create>
 801160a:	4b43      	ldr	r3, [pc, #268]	; (8011718 <app_init+0x258>)
 801160c:	6018      	str	r0, [r3, #0]
	thd_mutexGreen = rt_thread_create("mutexGreen", (void *)thread_mutexGreen, 0, 512, 10, 10);
 801160e:	9401      	str	r4, [sp, #4]
 8011610:	9400      	str	r4, [sp, #0]
 8011612:	f44f 7300 	mov.w	r3, #512	; 0x200
 8011616:	2200      	movs	r2, #0
 8011618:	4940      	ldr	r1, [pc, #256]	; (801171c <app_init+0x25c>)
 801161a:	4841      	ldr	r0, [pc, #260]	; (8011720 <app_init+0x260>)
 801161c:	f7fd fde6 	bl	800f1ec <rt_thread_create>
 8011620:	4b40      	ldr	r3, [pc, #256]	; (8011724 <app_init+0x264>)
 8011622:	6018      	str	r0, [r3, #0]
	thd_mutexRed = rt_thread_create("mutexRed", (void *)thread_mutexRed, 0, 512, 10, 10);
 8011624:	9401      	str	r4, [sp, #4]
 8011626:	9400      	str	r4, [sp, #0]
 8011628:	f44f 7300 	mov.w	r3, #512	; 0x200
 801162c:	2200      	movs	r2, #0
 801162e:	493e      	ldr	r1, [pc, #248]	; (8011728 <app_init+0x268>)
 8011630:	483e      	ldr	r0, [pc, #248]	; (801172c <app_init+0x26c>)
 8011632:	f7fd fddb 	bl	800f1ec <rt_thread_create>
 8011636:	4b3e      	ldr	r3, [pc, #248]	; (8011730 <app_init+0x270>)
 8011638:	6018      	str	r0, [r3, #0]
	//创建三个延时线程
	thd_delayRed=rt_thread_create("delayRed", (void *)thread_delayRed, 0, 512, 10, 10);
 801163a:	9401      	str	r4, [sp, #4]
 801163c:	9400      	str	r4, [sp, #0]
 801163e:	f44f 7300 	mov.w	r3, #512	; 0x200
 8011642:	2200      	movs	r2, #0
 8011644:	493b      	ldr	r1, [pc, #236]	; (8011734 <app_init+0x274>)
 8011646:	483c      	ldr	r0, [pc, #240]	; (8011738 <app_init+0x278>)
 8011648:	f7fd fdd0 	bl	800f1ec <rt_thread_create>
 801164c:	4b3b      	ldr	r3, [pc, #236]	; (801173c <app_init+0x27c>)
 801164e:	6018      	str	r0, [r3, #0]
	thd_delayGreen=rt_thread_create("delayGreen", (void *)thread_delayGreen, 0, 512, 10, 10);
 8011650:	9401      	str	r4, [sp, #4]
 8011652:	9400      	str	r4, [sp, #0]
 8011654:	f44f 7300 	mov.w	r3, #512	; 0x200
 8011658:	2200      	movs	r2, #0
 801165a:	4939      	ldr	r1, [pc, #228]	; (8011740 <app_init+0x280>)
 801165c:	4839      	ldr	r0, [pc, #228]	; (8011744 <app_init+0x284>)
 801165e:	f7fd fdc5 	bl	800f1ec <rt_thread_create>
 8011662:	4b39      	ldr	r3, [pc, #228]	; (8011748 <app_init+0x288>)
 8011664:	6018      	str	r0, [r3, #0]
	thd_delayBlue=rt_thread_create("delayBlue", (void *)thread_delayBlue, 0, 512, 10, 10);
 8011666:	9401      	str	r4, [sp, #4]
 8011668:	9400      	str	r4, [sp, #0]
 801166a:	f44f 7300 	mov.w	r3, #512	; 0x200
 801166e:	2200      	movs	r2, #0
 8011670:	4936      	ldr	r1, [pc, #216]	; (801174c <app_init+0x28c>)
 8011672:	4837      	ldr	r0, [pc, #220]	; (8011750 <app_init+0x290>)
 8011674:	f7fd fdba 	bl	800f1ec <rt_thread_create>
 8011678:	4b36      	ldr	r3, [pc, #216]	; (8011754 <app_init+0x294>)
 801167a:	6018      	str	r0, [r3, #0]

	   



    rt_thread_startup(thd_rulechoose);//启动命令选择线程
 801167c:	4630      	mov	r0, r6
 801167e:	f7fd fea3 	bl	800f3c8 <rt_thread_startup>
}
 8011682:	b002      	add	sp, #8
 8011684:	bd70      	pop	{r4, r5, r6, pc}
 8011686:	bf00      	nop
 8011688:	08012968 	.word	0x08012968
 801168c:	0801299c 	.word	0x0801299c
 8011690:	080129d0 	.word	0x080129d0
 8011694:	08012a18 	.word	0x08012a18
 8011698:	08012a4c 	.word	0x08012a4c
 801169c:	08012a7c 	.word	0x08012a7c
 80116a0:	08012ac8 	.word	0x08012ac8
 80116a4:	08012ad8 	.word	0x08012ad8
 80116a8:	20007348 	.word	0x20007348
 80116ac:	08012ae4 	.word	0x08012ae4
 80116b0:	2000733c 	.word	0x2000733c
 80116b4:	08012ae8 	.word	0x08012ae8
 80116b8:	20007318 	.word	0x20007318
 80116bc:	08012aec 	.word	0x08012aec
 80116c0:	20007334 	.word	0x20007334
 80116c4:	08011c69 	.word	0x08011c69
 80116c8:	08012af4 	.word	0x08012af4
 80116cc:	0800e5dd 	.word	0x0800e5dd
 80116d0:	08012b00 	.word	0x08012b00
 80116d4:	2000732c 	.word	0x2000732c
 80116d8:	20007350 	.word	0x20007350
 80116dc:	08012b0c 	.word	0x08012b0c
 80116e0:	08011871 	.word	0x08011871
 80116e4:	08012b18 	.word	0x08012b18
 80116e8:	20007338 	.word	0x20007338
 80116ec:	08010f8d 	.word	0x08010f8d
 80116f0:	08012b24 	.word	0x08012b24
 80116f4:	20007324 	.word	0x20007324
 80116f8:	0800f899 	.word	0x0800f899
 80116fc:	08012b30 	.word	0x08012b30
 8011700:	20007340 	.word	0x20007340
 8011704:	0800fa9d 	.word	0x0800fa9d
 8011708:	08012b3c 	.word	0x08012b3c
 801170c:	20007354 	.word	0x20007354
 8011710:	08012181 	.word	0x08012181
 8011714:	08012b48 	.word	0x08012b48
 8011718:	20007b58 	.word	0x20007b58
 801171c:	08011c11 	.word	0x08011c11
 8011720:	08012b54 	.word	0x08012b54
 8011724:	2000731c 	.word	0x2000731c
 8011728:	08011819 	.word	0x08011819
 801172c:	08012b60 	.word	0x08012b60
 8011730:	20007330 	.word	0x20007330
 8011734:	08010c01 	.word	0x08010c01
 8011738:	08012b6c 	.word	0x08012b6c
 801173c:	20007328 	.word	0x20007328
 8011740:	08010e69 	.word	0x08010e69
 8011744:	08012b78 	.word	0x08012b78
 8011748:	20007344 	.word	0x20007344
 801174c:	08010f3d 	.word	0x08010f3d
 8011750:	08012b84 	.word	0x08012b84
 8011754:	20007320 	.word	0x20007320

08011758 <useremuart_frame>:
	static uint16_t length = 1;
	uint16_t ret_val;
	
	
	//（1）若未接收到数据或者未遇到帧头，则退出并返回0  帧头长度为两个字节
	if(((index-1) == 0 && ch != emuartFrameHead[0]) ||
 8011758:	4b17      	ldr	r3, [pc, #92]	; (80117b8 <useremuart_frame+0x60>)
 801175a:	881b      	ldrh	r3, [r3, #0]
 801175c:	2b01      	cmp	r3, #1
 801175e:	d012      	beq.n	8011786 <useremuart_frame+0x2e>
 8011760:	2b02      	cmp	r3, #2
 8011762:	d019      	beq.n	8011798 <useremuart_frame+0x40>
{
 8011764:	b410      	push	{r4}
		length = 1;
		ret_val = 0;     //接收数据错误
		goto uecom_recv_exit;
	}
	//（2）正确接收到了帧头，继续执行，将数据存入data数组
	data[(index++)-1] = ch;
 8011766:	1c5a      	adds	r2, r3, #1
 8011768:	b292      	uxth	r2, r2
 801176a:	4c13      	ldr	r4, [pc, #76]	; (80117b8 <useremuart_frame+0x60>)
 801176c:	8022      	strh	r2, [r4, #0]
 801176e:	3b01      	subs	r3, #1
 8011770:	54c8      	strb	r0, [r1, r3]
	//printf("%d",index);
	//（3）当获取到第四个数据时，求出有效数据长度


	if((index-1) == 3)
 8011772:	2a04      	cmp	r2, #4
 8011774:	d013      	beq.n	801179e <useremuart_frame+0x46>
	{
		//printf("长度正确赋予\n");
		length = data[2];
	}
	//判断数据是否接收完毕，接收完毕退出组帧
	if(index==data[2]+4)
 8011776:	788b      	ldrb	r3, [r1, #2]
 8011778:	3304      	adds	r3, #4
 801177a:	429a      	cmp	r2, r3
 801177c:	d013      	beq.n	80117a6 <useremuart_frame+0x4e>
		ret_val = (length+3); //返回有效数据长度
		length=1;
		//data[(length-1)] = 0; //令数组长度为0
		goto uecom_recv_exit;
	}
	ret_val = 0;
 801177e:	2000      	movs	r0, #0
	goto uecom_recv_exit;
uecom_recv_exit:
    return ret_val;
 8011780:	f85d 4b04 	ldr.w	r4, [sp], #4
 8011784:	4770      	bx	lr
	if(((index-1) == 0 && ch != emuartFrameHead[0]) ||
 8011786:	28a5      	cmp	r0, #165	; 0xa5
 8011788:	d0ea      	beq.n	8011760 <useremuart_frame+0x8>
		index = 1;
 801178a:	2301      	movs	r3, #1
 801178c:	4a0a      	ldr	r2, [pc, #40]	; (80117b8 <useremuart_frame+0x60>)
 801178e:	8013      	strh	r3, [r2, #0]
		length = 1;
 8011790:	4a0a      	ldr	r2, [pc, #40]	; (80117bc <useremuart_frame+0x64>)
 8011792:	8013      	strh	r3, [r2, #0]
		ret_val = 0;     //接收数据错误
 8011794:	2000      	movs	r0, #0
 8011796:	4770      	bx	lr
			((index-1) == 1 && ch != emuartFrameHead[1]))
 8011798:	285a      	cmp	r0, #90	; 0x5a
 801179a:	d1f6      	bne.n	801178a <useremuart_frame+0x32>
 801179c:	e7e2      	b.n	8011764 <useremuart_frame+0xc>
		length = data[2];
 801179e:	7888      	ldrb	r0, [r1, #2]
 80117a0:	4b06      	ldr	r3, [pc, #24]	; (80117bc <useremuart_frame+0x64>)
 80117a2:	8018      	strh	r0, [r3, #0]
 80117a4:	e7e7      	b.n	8011776 <useremuart_frame+0x1e>
		index = 1;
 80117a6:	2201      	movs	r2, #1
 80117a8:	4b03      	ldr	r3, [pc, #12]	; (80117b8 <useremuart_frame+0x60>)
 80117aa:	801a      	strh	r2, [r3, #0]
		ret_val = (length+3); //返回有效数据长度
 80117ac:	4b03      	ldr	r3, [pc, #12]	; (80117bc <useremuart_frame+0x64>)
 80117ae:	8818      	ldrh	r0, [r3, #0]
 80117b0:	3003      	adds	r0, #3
 80117b2:	b280      	uxth	r0, r0
		length=1;
 80117b4:	801a      	strh	r2, [r3, #0]
		goto uecom_recv_exit;
 80117b6:	e7e3      	b.n	8011780 <useremuart_frame+0x28>
 80117b8:	2000409c 	.word	0x2000409c
 80117bc:	2000409e 	.word	0x2000409e

080117c0 <USART2_IRQHandler>:
{
 80117c0:	b500      	push	{lr}
 80117c2:	b083      	sub	sp, #12
    DISABLE_INTERRUPTS;      //关总中断
 80117c4:	b672      	cpsid	i
    if(!uart_get_re_int(UART_User)) goto UART_User_Handler_EXIT;
 80117c6:	2002      	movs	r0, #2
 80117c8:	f7ff fdf8 	bl	80113bc <uart_get_re_int>
 80117cc:	b918      	cbnz	r0, 80117d6 <USART2_IRQHandler+0x16>
    ENABLE_INTERRUPTS;
 80117ce:	b662      	cpsie	i
}
 80117d0:	b003      	add	sp, #12
 80117d2:	f85d fb04 	ldr.w	pc, [sp], #4
    ch = uart_re1(UART_User,&flag);        //调用接收一个字节的函数
 80117d6:	f10d 0107 	add.w	r1, sp, #7
 80117da:	2002      	movs	r0, #2
 80117dc:	f7ff fda6 	bl	801132c <uart_re1>
    if(!flag) goto UART_User_Handler_EXIT; //实际未收到数据，退出
 80117e0:	f89d 3007 	ldrb.w	r3, [sp, #7]
 80117e4:	2b00      	cmp	r3, #0
 80117e6:	d0f2      	beq.n	80117ce <USART2_IRQHandler+0xe>
       gcRecvLen =useremuart_frame(ch,(uint8_t*)gcRecvBuf);//对接收数据组帧，返回0组帧未成功，返回长度组帧成功。
 80117e8:	4908      	ldr	r1, [pc, #32]	; (801180c <USART2_IRQHandler+0x4c>)
 80117ea:	f7ff ffb5 	bl	8011758 <useremuart_frame>
 80117ee:	4b08      	ldr	r3, [pc, #32]	; (8011810 <USART2_IRQHandler+0x50>)
 80117f0:	8018      	strh	r0, [r3, #0]
       if (gcRecvLen == 0) goto UART_User_Handler_EXIT; 
 80117f2:	881b      	ldrh	r3, [r3, #0]
 80117f4:	b29b      	uxth	r3, r3
 80117f6:	2b00      	cmp	r3, #0
 80117f8:	d0e9      	beq.n	80117ce <USART2_IRQHandler+0xe>
       rt_event_send(EventWord,RULE_CHOOSE_EVENT);//数据接收完成，对命令选择事件置位
 80117fa:	2102      	movs	r1, #2
 80117fc:	4b05      	ldr	r3, [pc, #20]	; (8011814 <USART2_IRQHandler+0x54>)
 80117fe:	6818      	ldr	r0, [r3, #0]
 8011800:	f7fe fcd5 	bl	80101ae <rt_event_send>
        gcRecvLen = 0;   //帧已经使用完毕，下次若收到一个字节，可以继续组帧
 8011804:	4b02      	ldr	r3, [pc, #8]	; (8011810 <USART2_IRQHandler+0x50>)
 8011806:	2200      	movs	r2, #0
 8011808:	801a      	strh	r2, [r3, #0]
 801180a:	e7e0      	b.n	80117ce <USART2_IRQHandler+0xe>
 801180c:	20007358 	.word	0x20007358
 8011810:	2000734c 	.word	0x2000734c
 8011814:	20007348 	.word	0x20007348

08011818 <thread_mutexRed>:
//参数说明：无
//功能概要：每5秒红灯反转
//内部调用：无
//======================================================================
void thread_mutexRed()
{
 8011818:	b508      	push	{r3, lr}
    //（1）======申明局部变量==========================================
    gpio_init(LIGHT_RED,GPIO_OUTPUT,LIGHT_OFF);
 801181a:	2201      	movs	r2, #1
 801181c:	4611      	mov	r1, r2
 801181e:	f240 1007 	movw	r0, #263	; 0x107
 8011822:	f7fe fac9 	bl	800fdb8 <gpio_init>
    uart_send_string(UART_User,(void *)"第一次进入红灯线程！\r\n");
 8011826:	490f      	ldr	r1, [pc, #60]	; (8011864 <thread_mutexRed+0x4c>)
 8011828:	2002      	movs	r0, #2
 801182a:	f7ff fd2f 	bl	801128c <uart_send_string>
    //（2）======主循环（开始）==========================================
    while (1)
    {
    	//1.锁住单色灯互斥量
    	rt_mutex_take(mutex,RT_WAITING_FOREVER);
 801182e:	4c0e      	ldr	r4, [pc, #56]	; (8011868 <thread_mutexRed+0x50>)
 8011830:	f04f 31ff 	mov.w	r1, #4294967295
 8011834:	6820      	ldr	r0, [r4, #0]
 8011836:	f7fe fbd4 	bl	800ffe2 <rt_mutex_take>
        uart_send_string(UART_User,(void *)"\r\n锁定单色互斥量成功！红灯反转，延时5秒\r\n");
 801183a:	490c      	ldr	r1, [pc, #48]	; (801186c <thread_mutexRed+0x54>)
 801183c:	2002      	movs	r0, #2
 801183e:	f7ff fd25 	bl	801128c <uart_send_string>
        //2.红灯变亮
        gpio_reverse(LIGHT_RED);
 8011842:	f240 1007 	movw	r0, #263	; 0x107
 8011846:	f7fe faef 	bl	800fe28 <gpio_reverse>
        //3.延时5秒
        delay_ms(5000);
 801184a:	f241 3088 	movw	r0, #5000	; 0x1388
 801184e:	f7fd fd93 	bl	800f378 <rt_thread_delay>
    	//4.红灯变暗
    	gpio_reverse(LIGHT_RED);
 8011852:	f240 1007 	movw	r0, #263	; 0x107
 8011856:	f7fe fae7 	bl	800fe28 <gpio_reverse>
        //5.解锁单色灯互斥量
		rt_mutex_release(mutex);
 801185a:	6820      	ldr	r0, [r4, #0]
 801185c:	f7fe fc4d 	bl	80100fa <rt_mutex_release>
 8011860:	e7e5      	b.n	801182e <thread_mutexRed+0x16>
 8011862:	bf00      	nop
 8011864:	08012b90 	.word	0x08012b90
 8011868:	20007334 	.word	0x20007334
 801186c:	08012ba8 	.word	0x08012ba8

08011870 <thread_messagerecv>:
//参数说明：无
//功能概要：如果队列中有消息，则打印出相关的相应的消息，并此时消息队列中消息的个数
//内部调用：无
//======================================================================
void thread_messagerecv()
{
 8011870:	b510      	push	{r4, lr}
 8011872:	b082      	sub	sp, #8
	//（1）======申明局部变量==========================================
    uint8_t temp[8];
	char *cnt;
	uint8_t recvState;
	printf("第一次进入消息接收线程!\r\n");
 8011874:	4826      	ldr	r0, [pc, #152]	; (8011910 <thread_messagerecv+0xa0>)
 8011876:	f7fd fbc7 	bl	800f008 <myprintf>
	gpio_init(LIGHT_BLUE,GPIO_OUTPUT,LIGHT_OFF);
 801187a:	2201      	movs	r2, #1
 801187c:	4611      	mov	r1, r2
 801187e:	f240 1009 	movw	r0, #265	; 0x109
 8011882:	f7fe fa99 	bl	800fdb8 <gpio_init>
    gpio_init(LIGHT_GREEN,GPIO_OUTPUT,LIGHT_OFF);
 8011886:	2201      	movs	r2, #1
 8011888:	4611      	mov	r1, r2
 801188a:	f44f 7084 	mov.w	r0, #264	; 0x108
 801188e:	f7fe fa93 	bl	800fdb8 <gpio_init>
    gpio_init(LIGHT_RED,GPIO_OUTPUT,LIGHT_OFF);
 8011892:	2201      	movs	r2, #1
 8011894:	4611      	mov	r1, r2
 8011896:	f240 1007 	movw	r0, #263	; 0x107
 801189a:	f7fe fa8d 	bl	800fdb8 <gpio_init>
	 //（2）======主循环（开始）==========================================
    while (1)
    {
	    //等待消息
		recvState=mq_recv(mq,&temp,sizeof(temp),RT_WAITING_FOREVER);
 801189e:	f04f 33ff 	mov.w	r3, #4294967295
 80118a2:	2208      	movs	r2, #8
 80118a4:	4669      	mov	r1, sp
 80118a6:	481b      	ldr	r0, [pc, #108]	; (8011914 <thread_messagerecv+0xa4>)
 80118a8:	6800      	ldr	r0, [r0, #0]
 80118aa:	f7fe fdf7 	bl	801049c <rt_mq_recv>
 80118ae:	b2c0      	uxtb	r0, r0

		if(recvState==0)  //若获得消息
 80118b0:	2800      	cmp	r0, #0
 80118b2:	d1f4      	bne.n	801189e <thread_messagerecv+0x2e>
       	{
			cnt = rt_malloc(1);//申请内存  
 80118b4:	2001      	movs	r0, #1
 80118b6:	f000 f8ad 	bl	8011a14 <rt_malloc>
 80118ba:	4604      	mov	r4, r0
    	   	rt_sprintf(cnt,"%d",mq->entry);//entry队列中的消息索引
 80118bc:	4b15      	ldr	r3, [pc, #84]	; (8011914 <thread_messagerecv+0xa4>)
 80118be:	681b      	ldr	r3, [r3, #0]
 80118c0:	8c9a      	ldrh	r2, [r3, #36]	; 0x24
 80118c2:	4915      	ldr	r1, [pc, #84]	; (8011918 <thread_messagerecv+0xa8>)
 80118c4:	f7ff f954 	bl	8010b70 <rt_sprintf>
    	   	uart_send_string(UART_User,(void*)"消息队列中消息数=");
 80118c8:	4914      	ldr	r1, [pc, #80]	; (801191c <thread_messagerecv+0xac>)
 80118ca:	2002      	movs	r0, #2
 80118cc:	f7ff fcde 	bl	801128c <uart_send_string>
    	   	uart_send_string(UART_User,(uint8_t *)cnt);
 80118d0:	4621      	mov	r1, r4
 80118d2:	2002      	movs	r0, #2
 80118d4:	f7ff fcda 	bl	801128c <uart_send_string>
    	   	uart_send_string(UART_User,(void *) "\r\n");
 80118d8:	4c11      	ldr	r4, [pc, #68]	; (8011920 <thread_messagerecv+0xb0>)
 80118da:	4621      	mov	r1, r4
 80118dc:	2002      	movs	r0, #2
 80118de:	f7ff fcd5 	bl	801128c <uart_send_string>
    	   	uart_send_string(UART_User,(void*) "当前取出的消息=");
 80118e2:	4910      	ldr	r1, [pc, #64]	; (8011924 <thread_messagerecv+0xb4>)
 80118e4:	2002      	movs	r0, #2
 80118e6:	f7ff fcd1 	bl	801128c <uart_send_string>
    	   	uart_sendN(UART_User,8,temp);
 80118ea:	466a      	mov	r2, sp
 80118ec:	2108      	movs	r1, #8
 80118ee:	2002      	movs	r0, #2
 80118f0:	f7ff fcb2 	bl	8011258 <uart_sendN>
    	   	uart_send_string(UART_User,(void *) "\r\n");
 80118f4:	4621      	mov	r1, r4
 80118f6:	2002      	movs	r0, #2
 80118f8:	f7ff fcc8 	bl	801128c <uart_send_string>
    	   	delay_ms(1000);                //延迟，为了演示消息堆积的情况
 80118fc:	f44f 707a 	mov.w	r0, #1000	; 0x3e8
 8011900:	f7fd fd3a 	bl	800f378 <rt_thread_delay>


			useruart_send_string(UART_User,(void*)"消息消息消息消息消息消息消息消息");
 8011904:	4908      	ldr	r1, [pc, #32]	; (8011928 <thread_messagerecv+0xb8>)
 8011906:	2002      	movs	r0, #2
 8011908:	f7ff fcd5 	bl	80112b6 <useruart_send_string>
 801190c:	e7c7      	b.n	801189e <thread_messagerecv+0x2e>
 801190e:	bf00      	nop
 8011910:	08012bd4 	.word	0x08012bd4
 8011914:	2000733c 	.word	0x2000733c
 8011918:	08012bf0 	.word	0x08012bf0
 801191c:	08012bf4 	.word	0x08012bf4
 8011920:	08012840 	.word	0x08012840
 8011924:	08012c08 	.word	0x08012c08
 8011928:	08012c18 	.word	0x08012c18

0801192c <plug_holes>:
    RT_ASSERT((rt_uint8_t *)mem >= heap_ptr);
    RT_ASSERT((rt_uint8_t *)mem < (rt_uint8_t *)heap_end);
    RT_ASSERT(mem->used == 0);

    /* plug hole forward */
    nmem = (struct heap_mem *)&heap_ptr[mem->next];
 801192c:	4b16      	ldr	r3, [pc, #88]	; (8011988 <plug_holes+0x5c>)
 801192e:	6819      	ldr	r1, [r3, #0]
 8011930:	6842      	ldr	r2, [r0, #4]
 8011932:	440a      	add	r2, r1
    if (mem != nmem &&
 8011934:	4290      	cmp	r0, r2
 8011936:	d00f      	beq.n	8011958 <plug_holes+0x2c>
        nmem->used == 0 &&
 8011938:	8853      	ldrh	r3, [r2, #2]
    if (mem != nmem &&
 801193a:	b96b      	cbnz	r3, 8011958 <plug_holes+0x2c>
        (rt_uint8_t *)nmem != (rt_uint8_t *)heap_end)
 801193c:	4b13      	ldr	r3, [pc, #76]	; (801198c <plug_holes+0x60>)
 801193e:	681b      	ldr	r3, [r3, #0]
        nmem->used == 0 &&
 8011940:	4293      	cmp	r3, r2
 8011942:	d009      	beq.n	8011958 <plug_holes+0x2c>
    {
        /* if mem->next is unused and not end of heap_ptr,
         * combine mem and mem->next
         */
        if (lfree == nmem)
 8011944:	4b12      	ldr	r3, [pc, #72]	; (8011990 <plug_holes+0x64>)
 8011946:	681b      	ldr	r3, [r3, #0]
 8011948:	4293      	cmp	r3, r2
 801194a:	d016      	beq.n	801197a <plug_holes+0x4e>
        {
            lfree = mem;
        }
        mem->next = nmem->next;
 801194c:	6853      	ldr	r3, [r2, #4]
 801194e:	6043      	str	r3, [r0, #4]
        ((struct heap_mem *)&heap_ptr[nmem->next])->prev = (rt_uint8_t *)mem - heap_ptr;
 8011950:	6853      	ldr	r3, [r2, #4]
 8011952:	440b      	add	r3, r1
 8011954:	1a42      	subs	r2, r0, r1
 8011956:	609a      	str	r2, [r3, #8]
    }

    /* plug hole backward */
    pmem = (struct heap_mem *)&heap_ptr[mem->prev];
 8011958:	6883      	ldr	r3, [r0, #8]
 801195a:	440b      	add	r3, r1
    if (pmem != mem && pmem->used == 0)
 801195c:	4298      	cmp	r0, r3
 801195e:	d00b      	beq.n	8011978 <plug_holes+0x4c>
 8011960:	885a      	ldrh	r2, [r3, #2]
 8011962:	b94a      	cbnz	r2, 8011978 <plug_holes+0x4c>
    {
        /* if mem->prev is unused, combine mem and mem->prev */
        if (lfree == mem)
 8011964:	4a0a      	ldr	r2, [pc, #40]	; (8011990 <plug_holes+0x64>)
 8011966:	6812      	ldr	r2, [r2, #0]
 8011968:	4282      	cmp	r2, r0
 801196a:	d009      	beq.n	8011980 <plug_holes+0x54>
        {
            lfree = pmem;
        }
        pmem->next = mem->next;
 801196c:	6842      	ldr	r2, [r0, #4]
 801196e:	605a      	str	r2, [r3, #4]
        ((struct heap_mem *)&heap_ptr[mem->next])->prev = (rt_uint8_t *)pmem - heap_ptr;
 8011970:	6842      	ldr	r2, [r0, #4]
 8011972:	440a      	add	r2, r1
 8011974:	1a5b      	subs	r3, r3, r1
 8011976:	6093      	str	r3, [r2, #8]
    }
}
 8011978:	4770      	bx	lr
            lfree = mem;
 801197a:	4b05      	ldr	r3, [pc, #20]	; (8011990 <plug_holes+0x64>)
 801197c:	6018      	str	r0, [r3, #0]
 801197e:	e7e5      	b.n	801194c <plug_holes+0x20>
            lfree = pmem;
 8011980:	4a03      	ldr	r2, [pc, #12]	; (8011990 <plug_holes+0x64>)
 8011982:	6013      	str	r3, [r2, #0]
 8011984:	e7f2      	b.n	801196c <plug_holes+0x40>
 8011986:	bf00      	nop
 8011988:	200072d8 	.word	0x200072d8
 801198c:	200072d4 	.word	0x200072d4
 8011990:	200072fc 	.word	0x200072fc

08011994 <rt_system_heap_init>:
 *
 * @param begin_addr the beginning address of system heap memory.
 * @param end_addr the end address of system heap memory.
 */
void rt_system_heap_init(void *begin_addr, void *end_addr)
{
 8011994:	b570      	push	{r4, r5, r6, lr}
    struct heap_mem *mem;
    rt_uint32_t begin_align = RT_ALIGN((rt_uint32_t)begin_addr, RT_ALIGN_SIZE);
    rt_uint32_t end_align = RT_ALIGN_DOWN((rt_uint32_t)end_addr, RT_ALIGN_SIZE);
 8011996:	f021 0303 	bic.w	r3, r1, #3

    RT_DEBUG_NOT_IN_INTERRUPT;

    /* alignment addr */
    if ((end_align > (2 * SIZEOF_STRUCT_MEM)) &&
 801199a:	2b18      	cmp	r3, #24
 801199c:	d906      	bls.n	80119ac <rt_system_heap_init+0x18>
 801199e:	1cc4      	adds	r4, r0, #3
 80119a0:	f024 0403 	bic.w	r4, r4, #3
        ((end_align - 2 * SIZEOF_STRUCT_MEM) >= begin_align))
 80119a4:	f1a3 0218 	sub.w	r2, r3, #24
    if ((end_align > (2 * SIZEOF_STRUCT_MEM)) &&
 80119a8:	42a2      	cmp	r2, r4
 80119aa:	d205      	bcs.n	80119b8 <rt_system_heap_init+0x24>
        /* calculate the aligned memory size */
        mem_size_aligned = end_align - begin_align - 2 * SIZEOF_STRUCT_MEM;
    }
    else
    {
        rt_kprintf("mem init, error begin address 0x%x, and end address 0x%x\n",
 80119ac:	460a      	mov	r2, r1
 80119ae:	4601      	mov	r1, r0
 80119b0:	4811      	ldr	r0, [pc, #68]	; (80119f8 <rt_system_heap_init+0x64>)
 80119b2:	f7ff f8ed 	bl	8010b90 <rt_kprintf>

    rt_sem_init(&heap_sem, "heap", 1, RT_IPC_FLAG_FIFO);

    /* initialize the lowest-free pointer to the start of the heap */
    lfree = (struct heap_mem *)heap_ptr;
}
 80119b6:	bd70      	pop	{r4, r5, r6, pc}
        mem_size_aligned = end_align - begin_align - 2 * SIZEOF_STRUCT_MEM;
 80119b8:	1b1b      	subs	r3, r3, r4
 80119ba:	f1a3 0118 	sub.w	r1, r3, #24
 80119be:	4a0f      	ldr	r2, [pc, #60]	; (80119fc <rt_system_heap_init+0x68>)
 80119c0:	6011      	str	r1, [r2, #0]
    heap_ptr = (rt_uint8_t *)begin_align;
 80119c2:	4d0f      	ldr	r5, [pc, #60]	; (8011a00 <rt_system_heap_init+0x6c>)
 80119c4:	602c      	str	r4, [r5, #0]
    mem->magic = HEAP_MAGIC;
 80119c6:	f44f 52f5 	mov.w	r2, #7840	; 0x1ea0
 80119ca:	8022      	strh	r2, [r4, #0]
    mem->next  = mem_size_aligned + SIZEOF_STRUCT_MEM;
 80119cc:	f1a3 010c 	sub.w	r1, r3, #12
 80119d0:	6061      	str	r1, [r4, #4]
    mem->prev  = 0;
 80119d2:	2300      	movs	r3, #0
 80119d4:	60a3      	str	r3, [r4, #8]
    mem->used  = 0;
 80119d6:	8063      	strh	r3, [r4, #2]
    heap_end        = (struct heap_mem *)&heap_ptr[mem->next];
 80119d8:	1860      	adds	r0, r4, r1
 80119da:	4e0a      	ldr	r6, [pc, #40]	; (8011a04 <rt_system_heap_init+0x70>)
 80119dc:	6030      	str	r0, [r6, #0]
    heap_end->magic = HEAP_MAGIC;
 80119de:	5262      	strh	r2, [r4, r1]
    heap_end->used  = 1;
 80119e0:	2201      	movs	r2, #1
 80119e2:	8042      	strh	r2, [r0, #2]
    heap_end->next  = mem_size_aligned + SIZEOF_STRUCT_MEM;
 80119e4:	6041      	str	r1, [r0, #4]
    heap_end->prev  = mem_size_aligned + SIZEOF_STRUCT_MEM;
 80119e6:	6081      	str	r1, [r0, #8]
    rt_sem_init(&heap_sem, "heap", 1, RT_IPC_FLAG_FIFO);
 80119e8:	4907      	ldr	r1, [pc, #28]	; (8011a08 <rt_system_heap_init+0x74>)
 80119ea:	4808      	ldr	r0, [pc, #32]	; (8011a0c <rt_system_heap_init+0x78>)
 80119ec:	f7fe fa40 	bl	800fe70 <rt_sem_init>
    lfree = (struct heap_mem *)heap_ptr;
 80119f0:	682a      	ldr	r2, [r5, #0]
 80119f2:	4b07      	ldr	r3, [pc, #28]	; (8011a10 <rt_system_heap_init+0x7c>)
 80119f4:	601a      	str	r2, [r3, #0]
 80119f6:	e7de      	b.n	80119b6 <rt_system_heap_init+0x22>
 80119f8:	08012c90 	.word	0x08012c90
 80119fc:	20007304 	.word	0x20007304
 8011a00:	200072d8 	.word	0x200072d8
 8011a04:	200072d4 	.word	0x200072d4
 8011a08:	08012c88 	.word	0x08012c88
 8011a0c:	200072dc 	.word	0x200072dc
 8011a10:	200072fc 	.word	0x200072fc

08011a14 <rt_malloc>:
void *rt_malloc(rt_size_t size)
{
    rt_size_t ptr, ptr2;
    struct heap_mem *mem, *mem2;

    if (size == 0)
 8011a14:	2800      	cmp	r0, #0
 8011a16:	d079      	beq.n	8011b0c <rt_malloc+0xf8>
{
 8011a18:	b5f8      	push	{r3, r4, r5, r6, r7, lr}
 8011a1a:	4605      	mov	r5, r0
        return RT_NULL;

    RT_DEBUG_NOT_IN_INTERRUPT;

    if (size != RT_ALIGN(size, RT_ALIGN_SIZE))
 8011a1c:	3503      	adds	r5, #3
 8011a1e:	f025 0503 	bic.w	r5, r5, #3
        RT_DEBUG_LOG(RT_DEBUG_MEM, ("malloc size %d\n", size));

    /* alignment size */
    size = RT_ALIGN(size, RT_ALIGN_SIZE);

    if (size > mem_size_aligned)
 8011a22:	4b3c      	ldr	r3, [pc, #240]	; (8011b14 <rt_malloc+0x100>)
 8011a24:	681b      	ldr	r3, [r3, #0]
 8011a26:	429d      	cmp	r5, r3
 8011a28:	d872      	bhi.n	8011b10 <rt_malloc+0xfc>

        return RT_NULL;
    }

    /* every data block must be at least MIN_SIZE_ALIGNED long */
    if (size < MIN_SIZE_ALIGNED)
 8011a2a:	2d0b      	cmp	r5, #11
 8011a2c:	d800      	bhi.n	8011a30 <rt_malloc+0x1c>
        size = MIN_SIZE_ALIGNED;
 8011a2e:	250c      	movs	r5, #12

    /* take memory semaphore */
    rt_sem_take(&heap_sem, RT_WAITING_FOREVER);
 8011a30:	f04f 31ff 	mov.w	r1, #4294967295
 8011a34:	4838      	ldr	r0, [pc, #224]	; (8011b18 <rt_malloc+0x104>)
 8011a36:	f7fe fa3c 	bl	800feb2 <rt_sem_take>

    for (ptr = (rt_uint8_t *)lfree - heap_ptr;
 8011a3a:	4b38      	ldr	r3, [pc, #224]	; (8011b1c <rt_malloc+0x108>)
 8011a3c:	681e      	ldr	r6, [r3, #0]
 8011a3e:	4b38      	ldr	r3, [pc, #224]	; (8011b20 <rt_malloc+0x10c>)
 8011a40:	681b      	ldr	r3, [r3, #0]
 8011a42:	1b9b      	subs	r3, r3, r6
 8011a44:	e01f      	b.n	8011a86 <rt_malloc+0x72>
                 * take care of this).
                 * -> near fit or excact fit: do not split, no mem2 creation
                 * also can't move mem->next directly behind mem, since mem->next
                 * will always be used at this point!
                 */
                mem->used = 1;
 8011a46:	2301      	movs	r3, #1
 8011a48:	8063      	strh	r3, [r4, #2]
#ifdef RT_MEM_STATS
                used_mem += mem->next - ((rt_uint8_t *)mem - heap_ptr);
 8011a4a:	1ba3      	subs	r3, r4, r6
 8011a4c:	1ac3      	subs	r3, r0, r3
 8011a4e:	4a35      	ldr	r2, [pc, #212]	; (8011b24 <rt_malloc+0x110>)
 8011a50:	6810      	ldr	r0, [r2, #0]
 8011a52:	4403      	add	r3, r0
 8011a54:	6013      	str	r3, [r2, #0]
                if (max_mem < used_mem)
 8011a56:	4a34      	ldr	r2, [pc, #208]	; (8011b28 <rt_malloc+0x114>)
 8011a58:	6812      	ldr	r2, [r2, #0]
 8011a5a:	4293      	cmp	r3, r2
 8011a5c:	d944      	bls.n	8011ae8 <rt_malloc+0xd4>
                    max_mem = used_mem;
 8011a5e:	4a32      	ldr	r2, [pc, #200]	; (8011b28 <rt_malloc+0x114>)
 8011a60:	6013      	str	r3, [r2, #0]
 8011a62:	e041      	b.n	8011ae8 <rt_malloc+0xd4>

            if (mem == lfree)
            {
                /* Find next free block after mem and update lowest free pointer */
                while (lfree->used && lfree != heap_end)
                    lfree = (struct heap_mem *)&heap_ptr[lfree->next];
 8011a64:	685a      	ldr	r2, [r3, #4]
 8011a66:	4b2d      	ldr	r3, [pc, #180]	; (8011b1c <rt_malloc+0x108>)
 8011a68:	681b      	ldr	r3, [r3, #0]
 8011a6a:	4413      	add	r3, r2
 8011a6c:	4a2c      	ldr	r2, [pc, #176]	; (8011b20 <rt_malloc+0x10c>)
 8011a6e:	6013      	str	r3, [r2, #0]
                while (lfree->used && lfree != heap_end)
 8011a70:	4b2b      	ldr	r3, [pc, #172]	; (8011b20 <rt_malloc+0x10c>)
 8011a72:	681b      	ldr	r3, [r3, #0]
 8011a74:	885a      	ldrh	r2, [r3, #2]
 8011a76:	2a00      	cmp	r2, #0
 8011a78:	d03d      	beq.n	8011af6 <rt_malloc+0xe2>
 8011a7a:	4a2c      	ldr	r2, [pc, #176]	; (8011b2c <rt_malloc+0x118>)
 8011a7c:	6812      	ldr	r2, [r2, #0]
 8011a7e:	4293      	cmp	r3, r2
 8011a80:	d1f0      	bne.n	8011a64 <rt_malloc+0x50>
 8011a82:	e038      	b.n	8011af6 <rt_malloc+0xe2>
         ptr = ((struct heap_mem *)&heap_ptr[ptr])->next)
 8011a84:	6863      	ldr	r3, [r4, #4]
         ptr < mem_size_aligned - size;
 8011a86:	4a23      	ldr	r2, [pc, #140]	; (8011b14 <rt_malloc+0x100>)
 8011a88:	6812      	ldr	r2, [r2, #0]
 8011a8a:	1b51      	subs	r1, r2, r5
    for (ptr = (rt_uint8_t *)lfree - heap_ptr;
 8011a8c:	4299      	cmp	r1, r3
 8011a8e:	d938      	bls.n	8011b02 <rt_malloc+0xee>
        mem = (struct heap_mem *)&heap_ptr[ptr];
 8011a90:	18f4      	adds	r4, r6, r3
        if ((!mem->used) && (mem->next - (ptr + SIZEOF_STRUCT_MEM)) >= size)
 8011a92:	8861      	ldrh	r1, [r4, #2]
 8011a94:	2900      	cmp	r1, #0
 8011a96:	d1f5      	bne.n	8011a84 <rt_malloc+0x70>
 8011a98:	6860      	ldr	r0, [r4, #4]
 8011a9a:	1ac1      	subs	r1, r0, r3
 8011a9c:	390c      	subs	r1, #12
 8011a9e:	42a9      	cmp	r1, r5
 8011aa0:	d3f0      	bcc.n	8011a84 <rt_malloc+0x70>
                (size + SIZEOF_STRUCT_MEM + MIN_SIZE_ALIGNED))
 8011aa2:	f105 0718 	add.w	r7, r5, #24
            if (mem->next - (ptr + SIZEOF_STRUCT_MEM) >=
 8011aa6:	42b9      	cmp	r1, r7
 8011aa8:	d3cd      	bcc.n	8011a46 <rt_malloc+0x32>
                ptr2 = ptr + SIZEOF_STRUCT_MEM + size;
 8011aaa:	18e9      	adds	r1, r5, r3
 8011aac:	310c      	adds	r1, #12
                mem2       = (struct heap_mem *)&heap_ptr[ptr2];
 8011aae:	1870      	adds	r0, r6, r1
                mem2->magic = HEAP_MAGIC;
 8011ab0:	f44f 57f5 	mov.w	r7, #7840	; 0x1ea0
 8011ab4:	5277      	strh	r7, [r6, r1]
                mem2->used = 0;
 8011ab6:	2700      	movs	r7, #0
 8011ab8:	8047      	strh	r7, [r0, #2]
                mem2->next = mem->next;
 8011aba:	6867      	ldr	r7, [r4, #4]
 8011abc:	6047      	str	r7, [r0, #4]
                mem2->prev = ptr;
 8011abe:	6083      	str	r3, [r0, #8]
                mem->next = ptr2;
 8011ac0:	6061      	str	r1, [r4, #4]
                mem->used = 1;
 8011ac2:	2301      	movs	r3, #1
 8011ac4:	8063      	strh	r3, [r4, #2]
                if (mem2->next != mem_size_aligned + SIZEOF_STRUCT_MEM)
 8011ac6:	6843      	ldr	r3, [r0, #4]
 8011ac8:	320c      	adds	r2, #12
 8011aca:	4293      	cmp	r3, r2
 8011acc:	d001      	beq.n	8011ad2 <rt_malloc+0xbe>
                    ((struct heap_mem *)&heap_ptr[mem2->next])->prev = ptr2;
 8011ace:	4433      	add	r3, r6
 8011ad0:	6099      	str	r1, [r3, #8]
                used_mem += (size + SIZEOF_STRUCT_MEM);
 8011ad2:	4b14      	ldr	r3, [pc, #80]	; (8011b24 <rt_malloc+0x110>)
 8011ad4:	681a      	ldr	r2, [r3, #0]
 8011ad6:	4415      	add	r5, r2
 8011ad8:	350c      	adds	r5, #12
 8011ada:	601d      	str	r5, [r3, #0]
                if (max_mem < used_mem)
 8011adc:	4b12      	ldr	r3, [pc, #72]	; (8011b28 <rt_malloc+0x114>)
 8011ade:	681b      	ldr	r3, [r3, #0]
 8011ae0:	429d      	cmp	r5, r3
 8011ae2:	d901      	bls.n	8011ae8 <rt_malloc+0xd4>
                    max_mem = used_mem;
 8011ae4:	4b10      	ldr	r3, [pc, #64]	; (8011b28 <rt_malloc+0x114>)
 8011ae6:	601d      	str	r5, [r3, #0]
            mem->magic = HEAP_MAGIC;
 8011ae8:	f44f 53f5 	mov.w	r3, #7840	; 0x1ea0
 8011aec:	8023      	strh	r3, [r4, #0]
            if (mem == lfree)
 8011aee:	4b0c      	ldr	r3, [pc, #48]	; (8011b20 <rt_malloc+0x10c>)
 8011af0:	681b      	ldr	r3, [r3, #0]
 8011af2:	42a3      	cmp	r3, r4
 8011af4:	d0bc      	beq.n	8011a70 <rt_malloc+0x5c>

                RT_ASSERT(((lfree == heap_end) || (!lfree->used)));
            }

            rt_sem_release(&heap_sem);
 8011af6:	4808      	ldr	r0, [pc, #32]	; (8011b18 <rt_malloc+0x104>)
 8011af8:	f7fe fa41 	bl	800ff7e <rt_sem_release>

            RT_OBJECT_HOOK_CALL(rt_malloc_hook,
                                (((void *)((rt_uint8_t *)mem + SIZEOF_STRUCT_MEM)), size));

            /* return the memory data except mem struct */
            return (rt_uint8_t *)mem + SIZEOF_STRUCT_MEM;
 8011afc:	f104 000c 	add.w	r0, r4, #12
 8011b00:	e003      	b.n	8011b0a <rt_malloc+0xf6>
        }
    }

    rt_sem_release(&heap_sem);
 8011b02:	4805      	ldr	r0, [pc, #20]	; (8011b18 <rt_malloc+0x104>)
 8011b04:	f7fe fa3b 	bl	800ff7e <rt_sem_release>

    return RT_NULL;
 8011b08:	2000      	movs	r0, #0
}
 8011b0a:	bdf8      	pop	{r3, r4, r5, r6, r7, pc}
        return RT_NULL;
 8011b0c:	2000      	movs	r0, #0
}
 8011b0e:	4770      	bx	lr
        return RT_NULL;
 8011b10:	2000      	movs	r0, #0
 8011b12:	e7fa      	b.n	8011b0a <rt_malloc+0xf6>
 8011b14:	20007304 	.word	0x20007304
 8011b18:	200072dc 	.word	0x200072dc
 8011b1c:	200072d8 	.word	0x200072d8
 8011b20:	200072fc 	.word	0x200072fc
 8011b24:	20007308 	.word	0x20007308
 8011b28:	20007300 	.word	0x20007300
 8011b2c:	200072d4 	.word	0x200072d4

08011b30 <rt_free>:
 */
void rt_free(void *rmem)
{
    struct heap_mem *mem;

    if (rmem == RT_NULL)
 8011b30:	2800      	cmp	r0, #0
 8011b32:	d042      	beq.n	8011bba <rt_free+0x8a>
{
 8011b34:	b538      	push	{r3, r4, r5, lr}
 8011b36:	4604      	mov	r4, r0
    RT_ASSERT((rt_uint8_t *)rmem >= (rt_uint8_t *)heap_ptr &&
              (rt_uint8_t *)rmem < (rt_uint8_t *)heap_end);

    RT_OBJECT_HOOK_CALL(rt_free_hook, (rmem));

    if ((rt_uint8_t *)rmem < (rt_uint8_t *)heap_ptr ||
 8011b38:	4a20      	ldr	r2, [pc, #128]	; (8011bbc <rt_free+0x8c>)
 8011b3a:	6812      	ldr	r2, [r2, #0]
 8011b3c:	4282      	cmp	r2, r0
 8011b3e:	d803      	bhi.n	8011b48 <rt_free+0x18>
        (rt_uint8_t *)rmem >= (rt_uint8_t *)heap_end)
 8011b40:	4a1f      	ldr	r2, [pc, #124]	; (8011bc0 <rt_free+0x90>)
 8011b42:	6812      	ldr	r2, [r2, #0]
    if ((rt_uint8_t *)rmem < (rt_uint8_t *)heap_ptr ||
 8011b44:	4282      	cmp	r2, r0
 8011b46:	d800      	bhi.n	8011b4a <rt_free+0x1a>
#endif

    /* finally, see if prev or next are free also */
    plug_holes(mem);
    rt_sem_release(&heap_sem);
}
 8011b48:	bd38      	pop	{r3, r4, r5, pc}
    mem = (struct heap_mem *)((rt_uint8_t *)rmem - SIZEOF_STRUCT_MEM);
 8011b4a:	f1a0 050c 	sub.w	r5, r0, #12
    rt_sem_take(&heap_sem, RT_WAITING_FOREVER);
 8011b4e:	f04f 31ff 	mov.w	r1, #4294967295
 8011b52:	481c      	ldr	r0, [pc, #112]	; (8011bc4 <rt_free+0x94>)
 8011b54:	f7fe f9ad 	bl	800feb2 <rt_sem_take>
    if (!mem->used || mem->magic != HEAP_MAGIC)
 8011b58:	f834 3c0a 	ldrh.w	r3, [r4, #-10]
 8011b5c:	b123      	cbz	r3, 8011b68 <rt_free+0x38>
 8011b5e:	f834 3c0c 	ldrh.w	r3, [r4, #-12]
 8011b62:	f5b3 5ff5 	cmp.w	r3, #7840	; 0x1ea0
 8011b66:	d00a      	beq.n	8011b7e <rt_free+0x4e>
        rt_kprintf("to free a bad data block:\n");
 8011b68:	4817      	ldr	r0, [pc, #92]	; (8011bc8 <rt_free+0x98>)
 8011b6a:	f7ff f811 	bl	8010b90 <rt_kprintf>
        rt_kprintf("mem: 0x%08x, used flag: %d, magic code: 0x%04x\n", mem, mem->used, mem->magic);
 8011b6e:	f834 3c0c 	ldrh.w	r3, [r4, #-12]
 8011b72:	f834 2c0a 	ldrh.w	r2, [r4, #-10]
 8011b76:	4629      	mov	r1, r5
 8011b78:	4814      	ldr	r0, [pc, #80]	; (8011bcc <rt_free+0x9c>)
 8011b7a:	f7ff f809 	bl	8010b90 <rt_kprintf>
    mem->used  = 0;
 8011b7e:	2300      	movs	r3, #0
 8011b80:	f824 3c0a 	strh.w	r3, [r4, #-10]
    mem->magic = HEAP_MAGIC;
 8011b84:	f44f 53f5 	mov.w	r3, #7840	; 0x1ea0
 8011b88:	f824 3c0c 	strh.w	r3, [r4, #-12]
    if (mem < lfree)
 8011b8c:	4b10      	ldr	r3, [pc, #64]	; (8011bd0 <rt_free+0xa0>)
 8011b8e:	681b      	ldr	r3, [r3, #0]
 8011b90:	42ab      	cmp	r3, r5
 8011b92:	d901      	bls.n	8011b98 <rt_free+0x68>
        lfree = mem;
 8011b94:	4b0e      	ldr	r3, [pc, #56]	; (8011bd0 <rt_free+0xa0>)
 8011b96:	601d      	str	r5, [r3, #0]
    used_mem -= (mem->next - ((rt_uint8_t *)mem - heap_ptr));
 8011b98:	4b08      	ldr	r3, [pc, #32]	; (8011bbc <rt_free+0x8c>)
 8011b9a:	681b      	ldr	r3, [r3, #0]
 8011b9c:	1aeb      	subs	r3, r5, r3
 8011b9e:	f854 2c08 	ldr.w	r2, [r4, #-8]
 8011ba2:	1a9b      	subs	r3, r3, r2
 8011ba4:	490b      	ldr	r1, [pc, #44]	; (8011bd4 <rt_free+0xa4>)
 8011ba6:	680a      	ldr	r2, [r1, #0]
 8011ba8:	4413      	add	r3, r2
 8011baa:	600b      	str	r3, [r1, #0]
    plug_holes(mem);
 8011bac:	4628      	mov	r0, r5
 8011bae:	f7ff febd 	bl	801192c <plug_holes>
    rt_sem_release(&heap_sem);
 8011bb2:	4804      	ldr	r0, [pc, #16]	; (8011bc4 <rt_free+0x94>)
 8011bb4:	f7fe f9e3 	bl	800ff7e <rt_sem_release>
 8011bb8:	e7c6      	b.n	8011b48 <rt_free+0x18>
 8011bba:	4770      	bx	lr
 8011bbc:	200072d8 	.word	0x200072d8
 8011bc0:	200072d4 	.word	0x200072d4
 8011bc4:	200072dc 	.word	0x200072dc
 8011bc8:	08012c3c 	.word	0x08012c3c
 8011bcc:	08012c58 	.word	0x08012c58
 8011bd0:	200072fc 	.word	0x200072fc
 8011bd4:	20007308 	.word	0x20007308

08011bd8 <rt_interrupt_enter>:
 * @note please don't invoke this routine in application
 *
 * @see rt_interrupt_leave
 */
void rt_interrupt_enter(void)
{
 8011bd8:	b508      	push	{r3, lr}
    rt_base_t level;

    RT_DEBUG_LOG(RT_DEBUG_IRQ, ("irq coming..., irq nest:%d\n",
                                rt_interrupt_nest));

    level = rt_hw_interrupt_disable();
 8011bda:	f7fb fe31 	bl	800d840 <rt_hw_interrupt_disable>
    rt_interrupt_nest ++;
 8011bde:	4a04      	ldr	r2, [pc, #16]	; (8011bf0 <rt_interrupt_enter+0x18>)
 8011be0:	7813      	ldrb	r3, [r2, #0]
 8011be2:	3301      	adds	r3, #1
 8011be4:	b2db      	uxtb	r3, r3
 8011be6:	7013      	strb	r3, [r2, #0]
    RT_OBJECT_HOOK_CALL(rt_interrupt_enter_hook,());
    rt_hw_interrupt_enable(level);
 8011be8:	f7fb fe2e 	bl	800d848 <rt_hw_interrupt_enable>
}
 8011bec:	bd08      	pop	{r3, pc}
 8011bee:	bf00      	nop
 8011bf0:	20007c74 	.word	0x20007c74

08011bf4 <rt_interrupt_leave>:
 * @note please don't invoke this routine in application
 *
 * @see rt_interrupt_enter
 */
void rt_interrupt_leave(void)
{
 8011bf4:	b508      	push	{r3, lr}
    rt_base_t level;

    RT_DEBUG_LOG(RT_DEBUG_IRQ, ("irq leave, irq nest:%d\n",
                                rt_interrupt_nest));

    level = rt_hw_interrupt_disable();
 8011bf6:	f7fb fe23 	bl	800d840 <rt_hw_interrupt_disable>
    rt_interrupt_nest --;
 8011bfa:	4a04      	ldr	r2, [pc, #16]	; (8011c0c <rt_interrupt_leave+0x18>)
 8011bfc:	7813      	ldrb	r3, [r2, #0]
 8011bfe:	3b01      	subs	r3, #1
 8011c00:	b2db      	uxtb	r3, r3
 8011c02:	7013      	strb	r3, [r2, #0]
    RT_OBJECT_HOOK_CALL(rt_interrupt_leave_hook,());
    rt_hw_interrupt_enable(level);
 8011c04:	f7fb fe20 	bl	800d848 <rt_hw_interrupt_enable>
}
 8011c08:	bd08      	pop	{r3, pc}
 8011c0a:	bf00      	nop
 8011c0c:	20007c74 	.word	0x20007c74

08011c10 <thread_mutexGreen>:
//参数说明：无
//功能概要：每10秒绿灯反转
//内部调用：无
//======================================================================
void thread_mutexGreen()
{
 8011c10:	b508      	push	{r3, lr}
     //（1）======申明局部变量==========================================
    gpio_init(LIGHT_GREEN,GPIO_OUTPUT,LIGHT_OFF);
 8011c12:	2201      	movs	r2, #1
 8011c14:	4611      	mov	r1, r2
 8011c16:	f44f 7084 	mov.w	r0, #264	; 0x108
 8011c1a:	f7fe f8cd 	bl	800fdb8 <gpio_init>
    uart_send_string(UART_User,(void *)"第一次进入绿灯线程！\r\n");
 8011c1e:	490f      	ldr	r1, [pc, #60]	; (8011c5c <thread_mutexGreen+0x4c>)
 8011c20:	2002      	movs	r0, #2
 8011c22:	f7ff fb33 	bl	801128c <uart_send_string>
    //（2）======主循环（开始）==========================================
    while (1)
    {
    	//1.锁住单色灯互斥量
    	rt_mutex_take(mutex,RT_WAITING_FOREVER);
 8011c26:	4c0e      	ldr	r4, [pc, #56]	; (8011c60 <thread_mutexGreen+0x50>)
 8011c28:	f04f 31ff 	mov.w	r1, #4294967295
 8011c2c:	6820      	ldr	r0, [r4, #0]
 8011c2e:	f7fe f9d8 	bl	800ffe2 <rt_mutex_take>
    	uart_send_string(UART_User,(void *)"\r\n锁定单色互斥量成功！绿灯反转，延时10秒\r\n");
 8011c32:	490c      	ldr	r1, [pc, #48]	; (8011c64 <thread_mutexGreen+0x54>)
 8011c34:	2002      	movs	r0, #2
 8011c36:	f7ff fb29 	bl	801128c <uart_send_string>
        //2.绿灯变亮
        gpio_reverse(LIGHT_GREEN);
 8011c3a:	f44f 7084 	mov.w	r0, #264	; 0x108
 8011c3e:	f7fe f8f3 	bl	800fe28 <gpio_reverse>
        //3.延时10秒
        delay_ms(10000);
 8011c42:	f242 7010 	movw	r0, #10000	; 0x2710
 8011c46:	f7fd fb97 	bl	800f378 <rt_thread_delay>
    	//4.绿灯变暗
    	gpio_reverse(LIGHT_GREEN);
 8011c4a:	f44f 7084 	mov.w	r0, #264	; 0x108
 8011c4e:	f7fe f8eb 	bl	800fe28 <gpio_reverse>
    	//5.解锁单色灯互斥量
		rt_mutex_release(mutex);
 8011c52:	6820      	ldr	r0, [r4, #0]
 8011c54:	f7fe fa51 	bl	80100fa <rt_mutex_release>
 8011c58:	e7e5      	b.n	8011c26 <thread_mutexGreen+0x16>
 8011c5a:	bf00      	nop
 8011c5c:	08012ccc 	.word	0x08012ccc
 8011c60:	20007334 	.word	0x20007334
 8011c64:	08012ce4 	.word	0x08012ce4

08011c68 <thread_rulechoose>:
//功能概要：根据接收到的命令，启动/挂起对应的线程
//内部调用：无
//======================================================================

void thread_rulechoose()
{
 8011c68:	b500      	push	{lr}
 8011c6a:	b087      	sub	sp, #28
 8011c6c:	e19a      	b.n	8011fa4 <thread_rulechoose+0x33c>
        uart_send_string(UART_User,(void *)"接收到事件信号\n");
        if(recvedstate==RULE_CHOOSE_EVENT)  //如果接收完成且正确
    	{
            if(gcRecvBuf[3]==CONNECT_CODE)//命令字为66，代表Pc端正和mcu取得连接
            {
                uart_send_string(UART_User,(void*) "I can see you");//回发连接确认
 8011c6e:	499d      	ldr	r1, [pc, #628]	; (8011ee4 <thread_rulechoose+0x27c>)
 8011c70:	2002      	movs	r0, #2
 8011c72:	f7ff fb0b 	bl	801128c <uart_send_string>
 8011c76:	e1b0      	b.n	8011fda <thread_rulechoose+0x372>
            }
            if(gcRecvBuf[3]==RESULT_CODE)
            {

                rt_thread_delete(thd_eventBlue);
 8011c78:	4b9b      	ldr	r3, [pc, #620]	; (8011ee8 <thread_rulechoose+0x280>)
 8011c7a:	6818      	ldr	r0, [r3, #0]
 8011c7c:	f7fd fae0 	bl	800f240 <rt_thread_delete>
                rt_thread_delete(thd_eventGreen);
 8011c80:	4b9a      	ldr	r3, [pc, #616]	; (8011eec <thread_rulechoose+0x284>)
 8011c82:	6818      	ldr	r0, [r3, #0]
 8011c84:	f7fd fadc 	bl	800f240 <rt_thread_delete>
                rt_thread_delete(thd_messagerecv);
 8011c88:	4b99      	ldr	r3, [pc, #612]	; (8011ef0 <thread_rulechoose+0x288>)
 8011c8a:	6818      	ldr	r0, [r3, #0]
 8011c8c:	f7fd fad8 	bl	800f240 <rt_thread_delete>
                rt_thread_delete(thd_SPThread1);	
 8011c90:	4b98      	ldr	r3, [pc, #608]	; (8011ef4 <thread_rulechoose+0x28c>)
 8011c92:	6818      	ldr	r0, [r3, #0]
 8011c94:	f7fd fad4 	bl	800f240 <rt_thread_delete>
                rt_thread_delete(thd_SPThread2);
 8011c98:	4b97      	ldr	r3, [pc, #604]	; (8011ef8 <thread_rulechoose+0x290>)
 8011c9a:	6818      	ldr	r0, [r3, #0]
 8011c9c:	f7fd fad0 	bl	800f240 <rt_thread_delete>
                rt_thread_delete(thd_SPThread3);
 8011ca0:	4b96      	ldr	r3, [pc, #600]	; (8011efc <thread_rulechoose+0x294>)
 8011ca2:	6818      	ldr	r0, [r3, #0]
 8011ca4:	f7fd facc 	bl	800f240 <rt_thread_delete>
                rt_thread_delete(thd_mutexRed);
 8011ca8:	4b95      	ldr	r3, [pc, #596]	; (8011f00 <thread_rulechoose+0x298>)
 8011caa:	6818      	ldr	r0, [r3, #0]
 8011cac:	f7fd fac8 	bl	800f240 <rt_thread_delete>
                rt_thread_delete(thd_mutexGreen);
 8011cb0:	4b94      	ldr	r3, [pc, #592]	; (8011f04 <thread_rulechoose+0x29c>)
 8011cb2:	6818      	ldr	r0, [r3, #0]
 8011cb4:	f7fd fac4 	bl	800f240 <rt_thread_delete>
                rt_thread_delete(thd_mutexBlue);
 8011cb8:	4b93      	ldr	r3, [pc, #588]	; (8011f08 <thread_rulechoose+0x2a0>)
 8011cba:	6818      	ldr	r0, [r3, #0]
 8011cbc:	f7fd fac0 	bl	800f240 <rt_thread_delete>
                rt_thread_delete(thd_delayBlue);
 8011cc0:	4b92      	ldr	r3, [pc, #584]	; (8011f0c <thread_rulechoose+0x2a4>)
 8011cc2:	6818      	ldr	r0, [r3, #0]
 8011cc4:	f7fd fabc 	bl	800f240 <rt_thread_delete>
                rt_thread_delete(thd_delayGreen);
 8011cc8:	4b91      	ldr	r3, [pc, #580]	; (8011f10 <thread_rulechoose+0x2a8>)
 8011cca:	6818      	ldr	r0, [r3, #0]
 8011ccc:	f7fd fab8 	bl	800f240 <rt_thread_delete>
                rt_thread_delete(thd_delayRed);
 8011cd0:	4b90      	ldr	r3, [pc, #576]	; (8011f14 <thread_rulechoose+0x2ac>)
 8011cd2:	6818      	ldr	r0, [r3, #0]
 8011cd4:	f7fd fab4 	bl	800f240 <rt_thread_delete>
 8011cd8:	e185      	b.n	8011fe6 <thread_rulechoose+0x37e>

            }

    		if(gcRecvBuf[7]==EVENT_CODE) //命令字为90，代表“事件功能”
            {
                if(gcRecvBuf[8]==0x01)//命令参数为01，代表启动该功能，传递事件信号把小灯线程从阻塞队列移到就绪队列
 8011cda:	4b8f      	ldr	r3, [pc, #572]	; (8011f18 <thread_rulechoose+0x2b0>)
 8011cdc:	7a1b      	ldrb	r3, [r3, #8]
 8011cde:	b2db      	uxtb	r3, r3
 8011ce0:	2b01      	cmp	r3, #1
 8011ce2:	d023      	beq.n	8011d2c <thread_rulechoose+0xc4>
                    rt_thread_startup(thd_eventBlue);
                    rt_thread_startup(thd_eventGreen);
                    rt_event_send(EventWord,BLUE_LIGHT_EVENT);

                }
                if(gcRecvBuf[8]==0x00)//命令参数为00，代表关闭该功能，重新启动小灯线程，把小灯线程移入阻塞队列
 8011ce4:	4b8c      	ldr	r3, [pc, #560]	; (8011f18 <thread_rulechoose+0x2b0>)
 8011ce6:	7a1b      	ldrb	r3, [r3, #8]
 8011ce8:	2b00      	cmp	r3, #0
 8011cea:	f040 8182 	bne.w	8011ff2 <thread_rulechoose+0x38a>
                {
                    uart_send_string(UART_User,(void *)"接收到事件功能结束命令，事件功能模块结束");
 8011cee:	498b      	ldr	r1, [pc, #556]	; (8011f1c <thread_rulechoose+0x2b4>)
 8011cf0:	2002      	movs	r0, #2
 8011cf2:	f7ff facb 	bl	801128c <uart_send_string>
                    rt_thread_detach(thd_eventBlue);
 8011cf6:	4b7c      	ldr	r3, [pc, #496]	; (8011ee8 <thread_rulechoose+0x280>)
 8011cf8:	6818      	ldr	r0, [r3, #0]
 8011cfa:	f7fd fa4b 	bl	800f194 <rt_thread_detach>
                    rt_thread_detach(thd_eventGreen);
 8011cfe:	4b7b      	ldr	r3, [pc, #492]	; (8011eec <thread_rulechoose+0x284>)
 8011d00:	6818      	ldr	r0, [r3, #0]
 8011d02:	f7fd fa47 	bl	800f194 <rt_thread_detach>
                    gpio_init(LIGHT_BLUE,GPIO_OUTPUT,LIGHT_OFF);
 8011d06:	2201      	movs	r2, #1
 8011d08:	4611      	mov	r1, r2
 8011d0a:	f240 1009 	movw	r0, #265	; 0x109
 8011d0e:	f7fe f853 	bl	800fdb8 <gpio_init>
                    gpio_init(LIGHT_GREEN,GPIO_OUTPUT,LIGHT_OFF);
 8011d12:	2201      	movs	r2, #1
 8011d14:	4611      	mov	r1, r2
 8011d16:	f44f 7084 	mov.w	r0, #264	; 0x108
 8011d1a:	f7fe f84d 	bl	800fdb8 <gpio_init>
                    gpio_init(LIGHT_RED,GPIO_OUTPUT,LIGHT_OFF);
 8011d1e:	2201      	movs	r2, #1
 8011d20:	4611      	mov	r1, r2
 8011d22:	f240 1007 	movw	r0, #263	; 0x107
 8011d26:	f7fe f847 	bl	800fdb8 <gpio_init>
 8011d2a:	e162      	b.n	8011ff2 <thread_rulechoose+0x38a>
                    rt_thread_detach(thd_messagerecv);
 8011d2c:	4b70      	ldr	r3, [pc, #448]	; (8011ef0 <thread_rulechoose+0x288>)
 8011d2e:	6818      	ldr	r0, [r3, #0]
 8011d30:	f7fd fa30 	bl	800f194 <rt_thread_detach>
                    rt_thread_detach(thd_SPThread1);	
 8011d34:	4b6f      	ldr	r3, [pc, #444]	; (8011ef4 <thread_rulechoose+0x28c>)
 8011d36:	6818      	ldr	r0, [r3, #0]
 8011d38:	f7fd fa2c 	bl	800f194 <rt_thread_detach>
                    rt_thread_detach(thd_SPThread2);
 8011d3c:	4b6e      	ldr	r3, [pc, #440]	; (8011ef8 <thread_rulechoose+0x290>)
 8011d3e:	6818      	ldr	r0, [r3, #0]
 8011d40:	f7fd fa28 	bl	800f194 <rt_thread_detach>
                    rt_thread_detach(thd_SPThread3);
 8011d44:	4b6d      	ldr	r3, [pc, #436]	; (8011efc <thread_rulechoose+0x294>)
 8011d46:	6818      	ldr	r0, [r3, #0]
 8011d48:	f7fd fa24 	bl	800f194 <rt_thread_detach>
                    rt_thread_detach(thd_mutexRed);
 8011d4c:	4b6c      	ldr	r3, [pc, #432]	; (8011f00 <thread_rulechoose+0x298>)
 8011d4e:	6818      	ldr	r0, [r3, #0]
 8011d50:	f7fd fa20 	bl	800f194 <rt_thread_detach>
                    rt_thread_detach(thd_mutexGreen);
 8011d54:	4b6b      	ldr	r3, [pc, #428]	; (8011f04 <thread_rulechoose+0x29c>)
 8011d56:	6818      	ldr	r0, [r3, #0]
 8011d58:	f7fd fa1c 	bl	800f194 <rt_thread_detach>
                    rt_thread_detach(thd_mutexBlue);
 8011d5c:	4b6a      	ldr	r3, [pc, #424]	; (8011f08 <thread_rulechoose+0x2a0>)
 8011d5e:	6818      	ldr	r0, [r3, #0]
 8011d60:	f7fd fa18 	bl	800f194 <rt_thread_detach>
                    rt_thread_detach(thd_delayBlue);
 8011d64:	4b69      	ldr	r3, [pc, #420]	; (8011f0c <thread_rulechoose+0x2a4>)
 8011d66:	6818      	ldr	r0, [r3, #0]
 8011d68:	f7fd fa14 	bl	800f194 <rt_thread_detach>
                    rt_thread_detach(thd_delayGreen);
 8011d6c:	4b68      	ldr	r3, [pc, #416]	; (8011f10 <thread_rulechoose+0x2a8>)
 8011d6e:	6818      	ldr	r0, [r3, #0]
 8011d70:	f7fd fa10 	bl	800f194 <rt_thread_detach>
                    rt_thread_detach(thd_delayRed);
 8011d74:	4b67      	ldr	r3, [pc, #412]	; (8011f14 <thread_rulechoose+0x2ac>)
 8011d76:	6818      	ldr	r0, [r3, #0]
 8011d78:	f7fd fa0c 	bl	800f194 <rt_thread_detach>
                    rt_thread_startup(thd_eventBlue);
 8011d7c:	4b5a      	ldr	r3, [pc, #360]	; (8011ee8 <thread_rulechoose+0x280>)
 8011d7e:	6818      	ldr	r0, [r3, #0]
 8011d80:	f7fd fb22 	bl	800f3c8 <rt_thread_startup>
                    rt_thread_startup(thd_eventGreen);
 8011d84:	4b59      	ldr	r3, [pc, #356]	; (8011eec <thread_rulechoose+0x284>)
 8011d86:	6818      	ldr	r0, [r3, #0]
 8011d88:	f7fd fb1e 	bl	800f3c8 <rt_thread_startup>
                    rt_event_send(EventWord,BLUE_LIGHT_EVENT);
 8011d8c:	2108      	movs	r1, #8
 8011d8e:	4b64      	ldr	r3, [pc, #400]	; (8011f20 <thread_rulechoose+0x2b8>)
 8011d90:	6818      	ldr	r0, [r3, #0]
 8011d92:	f7fe fa0c 	bl	80101ae <rt_event_send>
 8011d96:	e7a5      	b.n	8011ce4 <thread_rulechoose+0x7c>

            }

            if(gcRecvBuf[7]==MESSAGE_CODE) //命令字为91，代表“消息队列功能”
            {
                rt_thread_detach(thd_eventBlue);
 8011d98:	4b53      	ldr	r3, [pc, #332]	; (8011ee8 <thread_rulechoose+0x280>)
 8011d9a:	6818      	ldr	r0, [r3, #0]
 8011d9c:	f7fd f9fa 	bl	800f194 <rt_thread_detach>
                rt_thread_detach(thd_eventGreen);
 8011da0:	4b52      	ldr	r3, [pc, #328]	; (8011eec <thread_rulechoose+0x284>)
 8011da2:	6818      	ldr	r0, [r3, #0]
 8011da4:	f7fd f9f6 	bl	800f194 <rt_thread_detach>
                rt_thread_detach(thd_SPThread1);	
 8011da8:	4b52      	ldr	r3, [pc, #328]	; (8011ef4 <thread_rulechoose+0x28c>)
 8011daa:	6818      	ldr	r0, [r3, #0]
 8011dac:	f7fd f9f2 	bl	800f194 <rt_thread_detach>
                rt_thread_detach(thd_SPThread2);
 8011db0:	4b51      	ldr	r3, [pc, #324]	; (8011ef8 <thread_rulechoose+0x290>)
 8011db2:	6818      	ldr	r0, [r3, #0]
 8011db4:	f7fd f9ee 	bl	800f194 <rt_thread_detach>
                rt_thread_detach(thd_SPThread3);
 8011db8:	4b50      	ldr	r3, [pc, #320]	; (8011efc <thread_rulechoose+0x294>)
 8011dba:	6818      	ldr	r0, [r3, #0]
 8011dbc:	f7fd f9ea 	bl	800f194 <rt_thread_detach>
                rt_thread_detach(thd_mutexRed);
 8011dc0:	4b4f      	ldr	r3, [pc, #316]	; (8011f00 <thread_rulechoose+0x298>)
 8011dc2:	6818      	ldr	r0, [r3, #0]
 8011dc4:	f7fd f9e6 	bl	800f194 <rt_thread_detach>
                rt_thread_detach(thd_mutexGreen);
 8011dc8:	4b4e      	ldr	r3, [pc, #312]	; (8011f04 <thread_rulechoose+0x29c>)
 8011dca:	6818      	ldr	r0, [r3, #0]
 8011dcc:	f7fd f9e2 	bl	800f194 <rt_thread_detach>
                rt_thread_detach(thd_mutexBlue);
 8011dd0:	4b4d      	ldr	r3, [pc, #308]	; (8011f08 <thread_rulechoose+0x2a0>)
 8011dd2:	6818      	ldr	r0, [r3, #0]
 8011dd4:	f7fd f9de 	bl	800f194 <rt_thread_detach>
                rt_thread_detach(thd_delayBlue);
 8011dd8:	4b4c      	ldr	r3, [pc, #304]	; (8011f0c <thread_rulechoose+0x2a4>)
 8011dda:	6818      	ldr	r0, [r3, #0]
 8011ddc:	f7fd f9da 	bl	800f194 <rt_thread_detach>
                rt_thread_detach(thd_delayGreen);
 8011de0:	4b4b      	ldr	r3, [pc, #300]	; (8011f10 <thread_rulechoose+0x2a8>)
 8011de2:	6818      	ldr	r0, [r3, #0]
 8011de4:	f7fd f9d6 	bl	800f194 <rt_thread_detach>
                rt_thread_detach(thd_delayRed);
 8011de8:	4b4a      	ldr	r3, [pc, #296]	; (8011f14 <thread_rulechoose+0x2ac>)
 8011dea:	6818      	ldr	r0, [r3, #0]
 8011dec:	f7fd f9d2 	bl	800f194 <rt_thread_detach>


                rt_thread_startup(thd_messagerecv);//启动消息队列线程
 8011df0:	4b3f      	ldr	r3, [pc, #252]	; (8011ef0 <thread_rulechoose+0x288>)
 8011df2:	6818      	ldr	r0, [r3, #0]
 8011df4:	f7fd fae8 	bl	800f3c8 <rt_thread_startup>
                //取出收到的数据作为一个消息
			    for(int i=0;i<8;i++)
 8011df8:	2300      	movs	r3, #0
 8011dfa:	2b07      	cmp	r3, #7
 8011dfc:	dc09      	bgt.n	8011e12 <thread_rulechoose+0x1aa>
                {
                    recvData[i] = gcRecvBuf[i+9];
 8011dfe:	f103 0209 	add.w	r2, r3, #9
 8011e02:	4945      	ldr	r1, [pc, #276]	; (8011f18 <thread_rulechoose+0x2b0>)
 8011e04:	5c89      	ldrb	r1, [r1, r2]
 8011e06:	aa06      	add	r2, sp, #24
 8011e08:	441a      	add	r2, r3
 8011e0a:	f802 1c10 	strb.w	r1, [r2, #-16]
			    for(int i=0;i<8;i++)
 8011e0e:	3301      	adds	r3, #1
 8011e10:	e7f3      	b.n	8011dfa <thread_rulechoose+0x192>

                }
				
		        //将该消息存放到消息队列
			    rt_mq_send(mq,recvData,sizeof(recvData));
 8011e12:	2209      	movs	r2, #9
 8011e14:	a902      	add	r1, sp, #8
 8011e16:	4b43      	ldr	r3, [pc, #268]	; (8011f24 <thread_rulechoose+0x2bc>)
 8011e18:	6818      	ldr	r0, [r3, #0]
 8011e1a:	f7fe fafe 	bl	801041a <rt_mq_send>
 8011e1e:	e0ee      	b.n	8011ffe <thread_rulechoose+0x396>

            

            if(gcRecvBuf[7]==SEM_CODE) //命令字为92，代表“信号量功能”
            {
                if(gcRecvBuf[8]==0x01)//命令参数为01，代表启动该功能
 8011e20:	4b3d      	ldr	r3, [pc, #244]	; (8011f18 <thread_rulechoose+0x2b0>)
 8011e22:	7a1b      	ldrb	r3, [r3, #8]
 8011e24:	b2db      	uxtb	r3, r3
 8011e26:	2b01      	cmp	r3, #1
 8011e28:	d027      	beq.n	8011e7a <thread_rulechoose+0x212>
	                rt_thread_startup(thd_SPThread2);//启动信号量线程2
	                rt_thread_startup(thd_SPThread3);//启动信号量线程


                }
                if(gcRecvBuf[8]==0x00)//命令参数为00，代表关闭该功能
 8011e2a:	4b3b      	ldr	r3, [pc, #236]	; (8011f18 <thread_rulechoose+0x2b0>)
 8011e2c:	7a1b      	ldrb	r3, [r3, #8]
 8011e2e:	2b00      	cmp	r3, #0
 8011e30:	f040 80eb 	bne.w	801200a <thread_rulechoose+0x3a2>
                {
                    uart_send_string(UART_User,(void *)"接收到信号量功能结束命令，信号量功能模块结束");
 8011e34:	493c      	ldr	r1, [pc, #240]	; (8011f28 <thread_rulechoose+0x2c0>)
 8011e36:	2002      	movs	r0, #2
 8011e38:	f7ff fa28 	bl	801128c <uart_send_string>
                    rt_thread_detach(thd_SPThread1);	
 8011e3c:	4b2d      	ldr	r3, [pc, #180]	; (8011ef4 <thread_rulechoose+0x28c>)
 8011e3e:	6818      	ldr	r0, [r3, #0]
 8011e40:	f7fd f9a8 	bl	800f194 <rt_thread_detach>
                    rt_thread_detach(thd_SPThread2);
 8011e44:	4b2c      	ldr	r3, [pc, #176]	; (8011ef8 <thread_rulechoose+0x290>)
 8011e46:	6818      	ldr	r0, [r3, #0]
 8011e48:	f7fd f9a4 	bl	800f194 <rt_thread_detach>
                    rt_thread_detach(thd_SPThread3);
 8011e4c:	4b2b      	ldr	r3, [pc, #172]	; (8011efc <thread_rulechoose+0x294>)
 8011e4e:	6818      	ldr	r0, [r3, #0]
 8011e50:	f7fd f9a0 	bl	800f194 <rt_thread_detach>
                    gpio_init(LIGHT_BLUE,GPIO_OUTPUT,LIGHT_OFF);
 8011e54:	2201      	movs	r2, #1
 8011e56:	4611      	mov	r1, r2
 8011e58:	f240 1009 	movw	r0, #265	; 0x109
 8011e5c:	f7fd ffac 	bl	800fdb8 <gpio_init>
                    gpio_init(LIGHT_GREEN,GPIO_OUTPUT,LIGHT_OFF);
 8011e60:	2201      	movs	r2, #1
 8011e62:	4611      	mov	r1, r2
 8011e64:	f44f 7084 	mov.w	r0, #264	; 0x108
 8011e68:	f7fd ffa6 	bl	800fdb8 <gpio_init>
                    gpio_init(LIGHT_RED,GPIO_OUTPUT,LIGHT_OFF);
 8011e6c:	2201      	movs	r2, #1
 8011e6e:	4611      	mov	r1, r2
 8011e70:	f240 1007 	movw	r0, #263	; 0x107
 8011e74:	f7fd ffa0 	bl	800fdb8 <gpio_init>
 8011e78:	e0c7      	b.n	801200a <thread_rulechoose+0x3a2>
                    uart_send_string(UART_User,(void *)"接收到信号量功能开启命令，信号量功能模块开启\n");
 8011e7a:	492c      	ldr	r1, [pc, #176]	; (8011f2c <thread_rulechoose+0x2c4>)
 8011e7c:	2002      	movs	r0, #2
 8011e7e:	f7ff fa05 	bl	801128c <uart_send_string>
                    rt_thread_detach(thd_eventBlue);
 8011e82:	4b19      	ldr	r3, [pc, #100]	; (8011ee8 <thread_rulechoose+0x280>)
 8011e84:	6818      	ldr	r0, [r3, #0]
 8011e86:	f7fd f985 	bl	800f194 <rt_thread_detach>
                    rt_thread_detach(thd_eventGreen);
 8011e8a:	4b18      	ldr	r3, [pc, #96]	; (8011eec <thread_rulechoose+0x284>)
 8011e8c:	6818      	ldr	r0, [r3, #0]
 8011e8e:	f7fd f981 	bl	800f194 <rt_thread_detach>
                    rt_thread_detach(thd_messagerecv);
 8011e92:	4b17      	ldr	r3, [pc, #92]	; (8011ef0 <thread_rulechoose+0x288>)
 8011e94:	6818      	ldr	r0, [r3, #0]
 8011e96:	f7fd f97d 	bl	800f194 <rt_thread_detach>
                    rt_thread_detach(thd_mutexRed);
 8011e9a:	4b19      	ldr	r3, [pc, #100]	; (8011f00 <thread_rulechoose+0x298>)
 8011e9c:	6818      	ldr	r0, [r3, #0]
 8011e9e:	f7fd f979 	bl	800f194 <rt_thread_detach>
                    rt_thread_detach(thd_mutexGreen);
 8011ea2:	4b18      	ldr	r3, [pc, #96]	; (8011f04 <thread_rulechoose+0x29c>)
 8011ea4:	6818      	ldr	r0, [r3, #0]
 8011ea6:	f7fd f975 	bl	800f194 <rt_thread_detach>
                    rt_thread_detach(thd_mutexBlue);
 8011eaa:	4b17      	ldr	r3, [pc, #92]	; (8011f08 <thread_rulechoose+0x2a0>)
 8011eac:	6818      	ldr	r0, [r3, #0]
 8011eae:	f7fd f971 	bl	800f194 <rt_thread_detach>
                    rt_thread_detach(thd_delayBlue);
 8011eb2:	4b16      	ldr	r3, [pc, #88]	; (8011f0c <thread_rulechoose+0x2a4>)
 8011eb4:	6818      	ldr	r0, [r3, #0]
 8011eb6:	f7fd f96d 	bl	800f194 <rt_thread_detach>
                    rt_thread_detach(thd_delayGreen);
 8011eba:	4b15      	ldr	r3, [pc, #84]	; (8011f10 <thread_rulechoose+0x2a8>)
 8011ebc:	6818      	ldr	r0, [r3, #0]
 8011ebe:	f7fd f969 	bl	800f194 <rt_thread_detach>
                    rt_thread_detach(thd_delayRed);
 8011ec2:	4b14      	ldr	r3, [pc, #80]	; (8011f14 <thread_rulechoose+0x2ac>)
 8011ec4:	6818      	ldr	r0, [r3, #0]
 8011ec6:	f7fd f965 	bl	800f194 <rt_thread_detach>
	                rt_thread_startup(thd_SPThread1);//启动信号量线程1
 8011eca:	4b0a      	ldr	r3, [pc, #40]	; (8011ef4 <thread_rulechoose+0x28c>)
 8011ecc:	6818      	ldr	r0, [r3, #0]
 8011ece:	f7fd fa7b 	bl	800f3c8 <rt_thread_startup>
	                rt_thread_startup(thd_SPThread2);//启动信号量线程2
 8011ed2:	4b09      	ldr	r3, [pc, #36]	; (8011ef8 <thread_rulechoose+0x290>)
 8011ed4:	6818      	ldr	r0, [r3, #0]
 8011ed6:	f7fd fa77 	bl	800f3c8 <rt_thread_startup>
	                rt_thread_startup(thd_SPThread3);//启动信号量线程
 8011eda:	4b08      	ldr	r3, [pc, #32]	; (8011efc <thread_rulechoose+0x294>)
 8011edc:	6818      	ldr	r0, [r3, #0]
 8011ede:	f7fd fa73 	bl	800f3c8 <rt_thread_startup>
 8011ee2:	e7a2      	b.n	8011e2a <thread_rulechoose+0x1c2>
 8011ee4:	08012d40 	.word	0x08012d40
 8011ee8:	20007350 	.word	0x20007350
 8011eec:	2000732c 	.word	0x2000732c
 8011ef0:	20007338 	.word	0x20007338
 8011ef4:	20007324 	.word	0x20007324
 8011ef8:	20007340 	.word	0x20007340
 8011efc:	20007354 	.word	0x20007354
 8011f00:	20007330 	.word	0x20007330
 8011f04:	2000731c 	.word	0x2000731c
 8011f08:	20007b58 	.word	0x20007b58
 8011f0c:	20007320 	.word	0x20007320
 8011f10:	20007344 	.word	0x20007344
 8011f14:	20007328 	.word	0x20007328
 8011f18:	20007358 	.word	0x20007358
 8011f1c:	08012d50 	.word	0x08012d50
 8011f20:	20007348 	.word	0x20007348
 8011f24:	2000733c 	.word	0x2000733c
 8011f28:	08012dac 	.word	0x08012dac
 8011f2c:	08012d7c 	.word	0x08012d7c

            if(gcRecvBuf[7]==MUTEX_CODE) //命令字为93，代表“功能”
            {
                if(gcRecvBuf[8]==0x01)
                {
                    uart_send_string(UART_User,(void *)"接收到互斥量功能开启命令，功能模块开启\n");
 8011f30:	497f      	ldr	r1, [pc, #508]	; (8012130 <thread_rulechoose+0x4c8>)
 8011f32:	2002      	movs	r0, #2
 8011f34:	f7ff f9aa 	bl	801128c <uart_send_string>
                    rt_thread_detach(thd_eventBlue);
 8011f38:	4b7e      	ldr	r3, [pc, #504]	; (8012134 <thread_rulechoose+0x4cc>)
 8011f3a:	6818      	ldr	r0, [r3, #0]
 8011f3c:	f7fd f92a 	bl	800f194 <rt_thread_detach>
                    rt_thread_detach(thd_eventGreen);
 8011f40:	4b7d      	ldr	r3, [pc, #500]	; (8012138 <thread_rulechoose+0x4d0>)
 8011f42:	6818      	ldr	r0, [r3, #0]
 8011f44:	f7fd f926 	bl	800f194 <rt_thread_detach>
                    rt_thread_detach(thd_messagerecv);
 8011f48:	4b7c      	ldr	r3, [pc, #496]	; (801213c <thread_rulechoose+0x4d4>)
 8011f4a:	6818      	ldr	r0, [r3, #0]
 8011f4c:	f7fd f922 	bl	800f194 <rt_thread_detach>
                    rt_thread_detach(thd_SPThread1);	
 8011f50:	4b7b      	ldr	r3, [pc, #492]	; (8012140 <thread_rulechoose+0x4d8>)
 8011f52:	6818      	ldr	r0, [r3, #0]
 8011f54:	f7fd f91e 	bl	800f194 <rt_thread_detach>
                    rt_thread_detach(thd_SPThread2);
 8011f58:	4b7a      	ldr	r3, [pc, #488]	; (8012144 <thread_rulechoose+0x4dc>)
 8011f5a:	6818      	ldr	r0, [r3, #0]
 8011f5c:	f7fd f91a 	bl	800f194 <rt_thread_detach>
                    rt_thread_detach(thd_SPThread3);
 8011f60:	4b79      	ldr	r3, [pc, #484]	; (8012148 <thread_rulechoose+0x4e0>)
 8011f62:	6818      	ldr	r0, [r3, #0]
 8011f64:	f7fd f916 	bl	800f194 <rt_thread_detach>
                    rt_thread_detach(thd_delayBlue);
 8011f68:	4b78      	ldr	r3, [pc, #480]	; (801214c <thread_rulechoose+0x4e4>)
 8011f6a:	6818      	ldr	r0, [r3, #0]
 8011f6c:	f7fd f912 	bl	800f194 <rt_thread_detach>
                    rt_thread_detach(thd_delayGreen);
 8011f70:	4b77      	ldr	r3, [pc, #476]	; (8012150 <thread_rulechoose+0x4e8>)
 8011f72:	6818      	ldr	r0, [r3, #0]
 8011f74:	f7fd f90e 	bl	800f194 <rt_thread_detach>
                    rt_thread_detach(thd_delayRed);
 8011f78:	4b76      	ldr	r3, [pc, #472]	; (8012154 <thread_rulechoose+0x4ec>)
 8011f7a:	6818      	ldr	r0, [r3, #0]
 8011f7c:	f7fd f90a 	bl	800f194 <rt_thread_detach>

                    rt_thread_startup(thd_mutexRed);//启动红灯线程
 8011f80:	4b75      	ldr	r3, [pc, #468]	; (8012158 <thread_rulechoose+0x4f0>)
 8011f82:	6818      	ldr	r0, [r3, #0]
 8011f84:	f7fd fa20 	bl	800f3c8 <rt_thread_startup>
	                rt_thread_startup(thd_mutexGreen);//启动绿灯线程
 8011f88:	4b74      	ldr	r3, [pc, #464]	; (801215c <thread_rulechoose+0x4f4>)
 8011f8a:	6818      	ldr	r0, [r3, #0]
 8011f8c:	f7fd fa1c 	bl	800f3c8 <rt_thread_startup>
	                rt_thread_startup(thd_mutexBlue);//启动蓝灯线程
 8011f90:	4b73      	ldr	r3, [pc, #460]	; (8012160 <thread_rulechoose+0x4f8>)
 8011f92:	6818      	ldr	r0, [r3, #0]
 8011f94:	f7fd fa18 	bl	800f3c8 <rt_thread_startup>
 8011f98:	e041      	b.n	801201e <thread_rulechoose+0x3b6>
                    gpio_init(LIGHT_RED,GPIO_OUTPUT,LIGHT_OFF);
                }

            }

                if(gcRecvBuf[7]==DELAY_CODE) //命令字为94，代表"延时功能”
 8011f9a:	4b72      	ldr	r3, [pc, #456]	; (8012164 <thread_rulechoose+0x4fc>)
 8011f9c:	79db      	ldrb	r3, [r3, #7]
 8011f9e:	b2db      	uxtb	r3, r3
 8011fa0:	2b94      	cmp	r3, #148	; 0x94
 8011fa2:	d063      	beq.n	801206c <thread_rulechoose+0x404>
        uart_send_string(UART_User,(void *)"进入命令选择线程，等待事件信号\n");
 8011fa4:	4970      	ldr	r1, [pc, #448]	; (8012168 <thread_rulechoose+0x500>)
 8011fa6:	2002      	movs	r0, #2
 8011fa8:	f7ff f970 	bl	801128c <uart_send_string>
        rt_event_recv(EventWord,RULE_CHOOSE_EVENT,RT_EVENT_FLAG_OR|RT_EVENT_FLAG_CLEAR,RT_WAITING_FOREVER,&recvedstate);//等待命令选择线程的事件信号，串口接收完数据后会触发
 8011fac:	4b6f      	ldr	r3, [pc, #444]	; (801216c <thread_rulechoose+0x504>)
 8011fae:	6818      	ldr	r0, [r3, #0]
 8011fb0:	ab05      	add	r3, sp, #20
 8011fb2:	9300      	str	r3, [sp, #0]
 8011fb4:	f04f 33ff 	mov.w	r3, #4294967295
 8011fb8:	2206      	movs	r2, #6
 8011fba:	2102      	movs	r1, #2
 8011fbc:	f7fe f943 	bl	8010246 <rt_event_recv>
        uart_send_string(UART_User,(void *)"接收到事件信号\n");
 8011fc0:	496b      	ldr	r1, [pc, #428]	; (8012170 <thread_rulechoose+0x508>)
 8011fc2:	2002      	movs	r0, #2
 8011fc4:	f7ff f962 	bl	801128c <uart_send_string>
        if(recvedstate==RULE_CHOOSE_EVENT)  //如果接收完成且正确
 8011fc8:	9b05      	ldr	r3, [sp, #20]
 8011fca:	2b02      	cmp	r3, #2
 8011fcc:	d1ea      	bne.n	8011fa4 <thread_rulechoose+0x33c>
            if(gcRecvBuf[3]==CONNECT_CODE)//命令字为66，代表Pc端正和mcu取得连接
 8011fce:	4b65      	ldr	r3, [pc, #404]	; (8012164 <thread_rulechoose+0x4fc>)
 8011fd0:	78db      	ldrb	r3, [r3, #3]
 8011fd2:	b2db      	uxtb	r3, r3
 8011fd4:	2b66      	cmp	r3, #102	; 0x66
 8011fd6:	f43f ae4a 	beq.w	8011c6e <thread_rulechoose+0x6>
            if(gcRecvBuf[3]==RESULT_CODE)
 8011fda:	4b62      	ldr	r3, [pc, #392]	; (8012164 <thread_rulechoose+0x4fc>)
 8011fdc:	78db      	ldrb	r3, [r3, #3]
 8011fde:	b2db      	uxtb	r3, r3
 8011fe0:	2b77      	cmp	r3, #119	; 0x77
 8011fe2:	f43f ae49 	beq.w	8011c78 <thread_rulechoose+0x10>
    		if(gcRecvBuf[7]==EVENT_CODE) //命令字为90，代表“事件功能”
 8011fe6:	4b5f      	ldr	r3, [pc, #380]	; (8012164 <thread_rulechoose+0x4fc>)
 8011fe8:	79db      	ldrb	r3, [r3, #7]
 8011fea:	b2db      	uxtb	r3, r3
 8011fec:	2b90      	cmp	r3, #144	; 0x90
 8011fee:	f43f ae74 	beq.w	8011cda <thread_rulechoose+0x72>
            if(gcRecvBuf[7]==MESSAGE_CODE) //命令字为91，代表“消息队列功能”
 8011ff2:	4b5c      	ldr	r3, [pc, #368]	; (8012164 <thread_rulechoose+0x4fc>)
 8011ff4:	79db      	ldrb	r3, [r3, #7]
 8011ff6:	b2db      	uxtb	r3, r3
 8011ff8:	2b91      	cmp	r3, #145	; 0x91
 8011ffa:	f43f aecd 	beq.w	8011d98 <thread_rulechoose+0x130>
            if(gcRecvBuf[7]==SEM_CODE) //命令字为92，代表“信号量功能”
 8011ffe:	4b59      	ldr	r3, [pc, #356]	; (8012164 <thread_rulechoose+0x4fc>)
 8012000:	79db      	ldrb	r3, [r3, #7]
 8012002:	b2db      	uxtb	r3, r3
 8012004:	2b92      	cmp	r3, #146	; 0x92
 8012006:	f43f af0b 	beq.w	8011e20 <thread_rulechoose+0x1b8>
            if(gcRecvBuf[7]==MUTEX_CODE) //命令字为93，代表“功能”
 801200a:	4b56      	ldr	r3, [pc, #344]	; (8012164 <thread_rulechoose+0x4fc>)
 801200c:	79db      	ldrb	r3, [r3, #7]
 801200e:	b2db      	uxtb	r3, r3
 8012010:	2b93      	cmp	r3, #147	; 0x93
 8012012:	d1c2      	bne.n	8011f9a <thread_rulechoose+0x332>
                if(gcRecvBuf[8]==0x01)
 8012014:	4b53      	ldr	r3, [pc, #332]	; (8012164 <thread_rulechoose+0x4fc>)
 8012016:	7a1b      	ldrb	r3, [r3, #8]
 8012018:	b2db      	uxtb	r3, r3
 801201a:	2b01      	cmp	r3, #1
 801201c:	d088      	beq.n	8011f30 <thread_rulechoose+0x2c8>
                if(gcRecvBuf[8]==0x00)
 801201e:	4b51      	ldr	r3, [pc, #324]	; (8012164 <thread_rulechoose+0x4fc>)
 8012020:	7a1b      	ldrb	r3, [r3, #8]
 8012022:	2b00      	cmp	r3, #0
 8012024:	d1b9      	bne.n	8011f9a <thread_rulechoose+0x332>
                    uart_send_string(UART_User,(void *)"接收到互斥量功能关闭命令，功能模块关闭\n");
 8012026:	4953      	ldr	r1, [pc, #332]	; (8012174 <thread_rulechoose+0x50c>)
 8012028:	2002      	movs	r0, #2
 801202a:	f7ff f92f 	bl	801128c <uart_send_string>
                    rt_thread_detach(thd_mutexRed);
 801202e:	4b4a      	ldr	r3, [pc, #296]	; (8012158 <thread_rulechoose+0x4f0>)
 8012030:	6818      	ldr	r0, [r3, #0]
 8012032:	f7fd f8af 	bl	800f194 <rt_thread_detach>
                    rt_thread_detach(thd_mutexGreen);
 8012036:	4b49      	ldr	r3, [pc, #292]	; (801215c <thread_rulechoose+0x4f4>)
 8012038:	6818      	ldr	r0, [r3, #0]
 801203a:	f7fd f8ab 	bl	800f194 <rt_thread_detach>
                    rt_thread_detach(thd_mutexBlue);
 801203e:	4b48      	ldr	r3, [pc, #288]	; (8012160 <thread_rulechoose+0x4f8>)
 8012040:	6818      	ldr	r0, [r3, #0]
 8012042:	f7fd f8a7 	bl	800f194 <rt_thread_detach>
                    gpio_init(LIGHT_BLUE,GPIO_OUTPUT,LIGHT_OFF);
 8012046:	2201      	movs	r2, #1
 8012048:	4611      	mov	r1, r2
 801204a:	f240 1009 	movw	r0, #265	; 0x109
 801204e:	f7fd feb3 	bl	800fdb8 <gpio_init>
                    gpio_init(LIGHT_GREEN,GPIO_OUTPUT,LIGHT_OFF);
 8012052:	2201      	movs	r2, #1
 8012054:	4611      	mov	r1, r2
 8012056:	f44f 7084 	mov.w	r0, #264	; 0x108
 801205a:	f7fd fead 	bl	800fdb8 <gpio_init>
                    gpio_init(LIGHT_RED,GPIO_OUTPUT,LIGHT_OFF);
 801205e:	2201      	movs	r2, #1
 8012060:	4611      	mov	r1, r2
 8012062:	f240 1007 	movw	r0, #263	; 0x107
 8012066:	f7fd fea7 	bl	800fdb8 <gpio_init>
 801206a:	e796      	b.n	8011f9a <thread_rulechoose+0x332>
            {
                if(gcRecvBuf[8]==0x01)
 801206c:	4b3d      	ldr	r3, [pc, #244]	; (8012164 <thread_rulechoose+0x4fc>)
 801206e:	7a1b      	ldrb	r3, [r3, #8]
 8012070:	b2db      	uxtb	r3, r3
 8012072:	2b01      	cmp	r3, #1
 8012074:	d026      	beq.n	80120c4 <thread_rulechoose+0x45c>

                    rt_thread_startup(thd_delayBlue);
                    rt_thread_startup(thd_delayGreen);
                    rt_thread_startup(thd_delayRed);
                }
                if(gcRecvBuf[8]==0x00)
 8012076:	4b3b      	ldr	r3, [pc, #236]	; (8012164 <thread_rulechoose+0x4fc>)
 8012078:	7a1b      	ldrb	r3, [r3, #8]
 801207a:	2b00      	cmp	r3, #0
 801207c:	d192      	bne.n	8011fa4 <thread_rulechoose+0x33c>
                {
                    uart_send_string(UART_User,(void *)"接收到延时功能关闭命令，功能模块关闭\n");
 801207e:	493e      	ldr	r1, [pc, #248]	; (8012178 <thread_rulechoose+0x510>)
 8012080:	2002      	movs	r0, #2
 8012082:	f7ff f903 	bl	801128c <uart_send_string>
                    rt_thread_detach(thd_delayBlue);
 8012086:	4b31      	ldr	r3, [pc, #196]	; (801214c <thread_rulechoose+0x4e4>)
 8012088:	6818      	ldr	r0, [r3, #0]
 801208a:	f7fd f883 	bl	800f194 <rt_thread_detach>
                    rt_thread_detach(thd_delayGreen);
 801208e:	4b30      	ldr	r3, [pc, #192]	; (8012150 <thread_rulechoose+0x4e8>)
 8012090:	6818      	ldr	r0, [r3, #0]
 8012092:	f7fd f87f 	bl	800f194 <rt_thread_detach>
                    rt_thread_detach(thd_delayRed);
 8012096:	4b2f      	ldr	r3, [pc, #188]	; (8012154 <thread_rulechoose+0x4ec>)
 8012098:	6818      	ldr	r0, [r3, #0]
 801209a:	f7fd f87b 	bl	800f194 <rt_thread_detach>
                    gpio_init(LIGHT_BLUE,GPIO_OUTPUT,LIGHT_OFF);
 801209e:	2201      	movs	r2, #1
 80120a0:	4611      	mov	r1, r2
 80120a2:	f240 1009 	movw	r0, #265	; 0x109
 80120a6:	f7fd fe87 	bl	800fdb8 <gpio_init>
                    gpio_init(LIGHT_GREEN,GPIO_OUTPUT,LIGHT_OFF);
 80120aa:	2201      	movs	r2, #1
 80120ac:	4611      	mov	r1, r2
 80120ae:	f44f 7084 	mov.w	r0, #264	; 0x108
 80120b2:	f7fd fe81 	bl	800fdb8 <gpio_init>
                    gpio_init(LIGHT_RED,GPIO_OUTPUT,LIGHT_OFF);
 80120b6:	2201      	movs	r2, #1
 80120b8:	4611      	mov	r1, r2
 80120ba:	f240 1007 	movw	r0, #263	; 0x107
 80120be:	f7fd fe7b 	bl	800fdb8 <gpio_init>
 80120c2:	e76f      	b.n	8011fa4 <thread_rulechoose+0x33c>
                    uart_send_string(UART_User,(void *)"接收到延时功能开启命令，功能模块开启\n");
 80120c4:	492d      	ldr	r1, [pc, #180]	; (801217c <thread_rulechoose+0x514>)
 80120c6:	2002      	movs	r0, #2
 80120c8:	f7ff f8e0 	bl	801128c <uart_send_string>
                    rt_thread_detach(thd_eventBlue);
 80120cc:	4b19      	ldr	r3, [pc, #100]	; (8012134 <thread_rulechoose+0x4cc>)
 80120ce:	6818      	ldr	r0, [r3, #0]
 80120d0:	f7fd f860 	bl	800f194 <rt_thread_detach>
                    rt_thread_detach(thd_eventGreen);
 80120d4:	4b18      	ldr	r3, [pc, #96]	; (8012138 <thread_rulechoose+0x4d0>)
 80120d6:	6818      	ldr	r0, [r3, #0]
 80120d8:	f7fd f85c 	bl	800f194 <rt_thread_detach>
                    rt_thread_detach(thd_messagerecv);
 80120dc:	4b17      	ldr	r3, [pc, #92]	; (801213c <thread_rulechoose+0x4d4>)
 80120de:	6818      	ldr	r0, [r3, #0]
 80120e0:	f7fd f858 	bl	800f194 <rt_thread_detach>
                    rt_thread_detach(thd_SPThread1);	
 80120e4:	4b16      	ldr	r3, [pc, #88]	; (8012140 <thread_rulechoose+0x4d8>)
 80120e6:	6818      	ldr	r0, [r3, #0]
 80120e8:	f7fd f854 	bl	800f194 <rt_thread_detach>
                    rt_thread_detach(thd_SPThread2);
 80120ec:	4b15      	ldr	r3, [pc, #84]	; (8012144 <thread_rulechoose+0x4dc>)
 80120ee:	6818      	ldr	r0, [r3, #0]
 80120f0:	f7fd f850 	bl	800f194 <rt_thread_detach>
                    rt_thread_detach(thd_SPThread3);
 80120f4:	4b14      	ldr	r3, [pc, #80]	; (8012148 <thread_rulechoose+0x4e0>)
 80120f6:	6818      	ldr	r0, [r3, #0]
 80120f8:	f7fd f84c 	bl	800f194 <rt_thread_detach>
                    rt_thread_detach(thd_mutexRed);
 80120fc:	4b16      	ldr	r3, [pc, #88]	; (8012158 <thread_rulechoose+0x4f0>)
 80120fe:	6818      	ldr	r0, [r3, #0]
 8012100:	f7fd f848 	bl	800f194 <rt_thread_detach>
	                rt_thread_detach(thd_mutexGreen);
 8012104:	4b15      	ldr	r3, [pc, #84]	; (801215c <thread_rulechoose+0x4f4>)
 8012106:	6818      	ldr	r0, [r3, #0]
 8012108:	f7fd f844 	bl	800f194 <rt_thread_detach>
	                rt_thread_detach(thd_mutexBlue);
 801210c:	4b14      	ldr	r3, [pc, #80]	; (8012160 <thread_rulechoose+0x4f8>)
 801210e:	6818      	ldr	r0, [r3, #0]
 8012110:	f7fd f840 	bl	800f194 <rt_thread_detach>
                    rt_thread_startup(thd_delayBlue);
 8012114:	4b0d      	ldr	r3, [pc, #52]	; (801214c <thread_rulechoose+0x4e4>)
 8012116:	6818      	ldr	r0, [r3, #0]
 8012118:	f7fd f956 	bl	800f3c8 <rt_thread_startup>
                    rt_thread_startup(thd_delayGreen);
 801211c:	4b0c      	ldr	r3, [pc, #48]	; (8012150 <thread_rulechoose+0x4e8>)
 801211e:	6818      	ldr	r0, [r3, #0]
 8012120:	f7fd f952 	bl	800f3c8 <rt_thread_startup>
                    rt_thread_startup(thd_delayRed);
 8012124:	4b0b      	ldr	r3, [pc, #44]	; (8012154 <thread_rulechoose+0x4ec>)
 8012126:	6818      	ldr	r0, [r3, #0]
 8012128:	f7fd f94e 	bl	800f3c8 <rt_thread_startup>
 801212c:	e7a3      	b.n	8012076 <thread_rulechoose+0x40e>
 801212e:	bf00      	nop
 8012130:	08012ddc 	.word	0x08012ddc
 8012134:	20007350 	.word	0x20007350
 8012138:	2000732c 	.word	0x2000732c
 801213c:	20007338 	.word	0x20007338
 8012140:	20007324 	.word	0x20007324
 8012144:	20007340 	.word	0x20007340
 8012148:	20007354 	.word	0x20007354
 801214c:	20007320 	.word	0x20007320
 8012150:	20007344 	.word	0x20007344
 8012154:	20007328 	.word	0x20007328
 8012158:	20007330 	.word	0x20007330
 801215c:	2000731c 	.word	0x2000731c
 8012160:	20007b58 	.word	0x20007b58
 8012164:	20007358 	.word	0x20007358
 8012168:	08012d10 	.word	0x08012d10
 801216c:	20007348 	.word	0x20007348
 8012170:	08012d30 	.word	0x08012d30
 8012174:	08012e04 	.word	0x08012e04
 8012178:	08012e54 	.word	0x08012e54
 801217c:	08012e2c 	.word	0x08012e2c

08012180 <thread_mutexBlue>:
//参数说明：无
//功能概要：每20秒蓝灯反转
//内部调用：无
//======================================================================
void thread_mutexBlue()
{
 8012180:	b508      	push	{r3, lr}
    //（1）======申明局部变量==========================================
    gpio_init(LIGHT_BLUE,GPIO_OUTPUT,LIGHT_OFF);
 8012182:	2201      	movs	r2, #1
 8012184:	4611      	mov	r1, r2
 8012186:	f240 1009 	movw	r0, #265	; 0x109
 801218a:	f7fd fe15 	bl	800fdb8 <gpio_init>
    uart_send_string(UART_User,(void *)"第一次进入蓝灯线程！\r\n");
 801218e:	490f      	ldr	r1, [pc, #60]	; (80121cc <thread_mutexBlue+0x4c>)
 8012190:	2002      	movs	r0, #2
 8012192:	f7ff f87b 	bl	801128c <uart_send_string>
    //（2）======主循环（开始）==========================================
    while (1)
    {
    	//1.锁住单色灯互斥量
    	rt_mutex_take(mutex,RT_WAITING_FOREVER);
 8012196:	4c0e      	ldr	r4, [pc, #56]	; (80121d0 <thread_mutexBlue+0x50>)
 8012198:	f04f 31ff 	mov.w	r1, #4294967295
 801219c:	6820      	ldr	r0, [r4, #0]
 801219e:	f7fd ff20 	bl	800ffe2 <rt_mutex_take>
		uart_send_string(UART_User,(void *)"\r\n锁定单色互斥量成功！蓝灯反转，延时20秒\r\n");
 80121a2:	490c      	ldr	r1, [pc, #48]	; (80121d4 <thread_mutexBlue+0x54>)
 80121a4:	2002      	movs	r0, #2
 80121a6:	f7ff f871 	bl	801128c <uart_send_string>
		//2.蓝灯变亮
		gpio_reverse(LIGHT_BLUE);
 80121aa:	f240 1009 	movw	r0, #265	; 0x109
 80121ae:	f7fd fe3b 	bl	800fe28 <gpio_reverse>
		//3.延时20秒
		delay_ms(20000);
 80121b2:	f644 6020 	movw	r0, #20000	; 0x4e20
 80121b6:	f7fd f8df 	bl	800f378 <rt_thread_delay>
		//4.蓝灯变暗
		gpio_reverse(LIGHT_BLUE);
 80121ba:	f240 1009 	movw	r0, #265	; 0x109
 80121be:	f7fd fe33 	bl	800fe28 <gpio_reverse>
		//5.解锁单色灯互斥量
		rt_mutex_release(mutex);
 80121c2:	6820      	ldr	r0, [r4, #0]
 80121c4:	f7fd ff99 	bl	80100fa <rt_mutex_release>
 80121c8:	e7e5      	b.n	8012196 <thread_mutexBlue+0x16>
 80121ca:	bf00      	nop
 80121cc:	08012e7c 	.word	0x08012e7c
 80121d0:	20007334 	.word	0x20007334
 80121d4:	08012e94 	.word	0x08012e94

080121d8 <Reset_Handler>:

    .section	.text.Reset_Handler
	.weak	Reset_Handler
	.type	Reset_Handler, %function
Reset_Handler:
  ldr   sp, =_estack    /* Atollic update: set stack pointer */
 80121d8:	f8df d038 	ldr.w	sp, [pc, #56]	; 8012214 <LoopForever+0x2>

/* Copy the data segment initializers from flash to SRAM */
  movs	r1, #0
 80121dc:	2100      	movs	r1, #0
  b	LoopCopyDataInit
 80121de:	e003      	b.n	80121e8 <LoopCopyDataInit>

080121e0 <CopyDataInit>:

CopyDataInit:
	ldr	r3, =_sidata
 80121e0:	4b0d      	ldr	r3, [pc, #52]	; (8012218 <LoopForever+0x6>)
	ldr	r3, [r3, r1]
 80121e2:	585b      	ldr	r3, [r3, r1]
	str	r3, [r0, r1]
 80121e4:	5043      	str	r3, [r0, r1]
	adds	r1, r1, #4
 80121e6:	3104      	adds	r1, #4

080121e8 <LoopCopyDataInit>:

LoopCopyDataInit:
	ldr	r0, =_sdata
 80121e8:	480c      	ldr	r0, [pc, #48]	; (801221c <LoopForever+0xa>)
	ldr	r3, =_edata
 80121ea:	4b0d      	ldr	r3, [pc, #52]	; (8012220 <LoopForever+0xe>)
	adds	r2, r0, r1
 80121ec:	1842      	adds	r2, r0, r1
	cmp	r2, r3
 80121ee:	429a      	cmp	r2, r3
	bcc	CopyDataInit
 80121f0:	d3f6      	bcc.n	80121e0 <CopyDataInit>
	ldr	r2, =_sbss
 80121f2:	4a0c      	ldr	r2, [pc, #48]	; (8012224 <LoopForever+0x12>)
	b	LoopFillZerobss
 80121f4:	e002      	b.n	80121fc <LoopFillZerobss>

080121f6 <FillZerobss>:
/* Zero fill the bss segment. */
FillZerobss:
	movs	r3, #0
 80121f6:	2300      	movs	r3, #0
	str	r3, [r2], #4
 80121f8:	f842 3b04 	str.w	r3, [r2], #4

080121fc <LoopFillZerobss>:

LoopFillZerobss:
	ldr	r3, = _ebss
 80121fc:	4b0a      	ldr	r3, [pc, #40]	; (8012228 <LoopForever+0x16>)
	cmp	r2, r3
 80121fe:	429a      	cmp	r2, r3
	bcc	FillZerobss
 8012200:	d3f9      	bcc.n	80121f6 <FillZerobss>
	
	//* Call the clock system intitialization function.*/
    bl  SystemInit
 8012202:	f7fd fb21 	bl	800f848 <SystemInit>
//  【CC_User 2.1】调用BIOS_API_Init函数
    bl  Vectors_Init    /*【固定】中断继承，.s文件仅修改此处*/
 8012206:	f7fe ff13 	bl	8011030 <Vectors_Init>
/* Call static constructors */
//  【CC_User 2.2】1.需调用__libc_init_array，若不执行则C++类构造函数不会执行
//                2.__libc_init_array函数须在BIOS_API_Init之后执行
//                3.__libc_init_array函数的具体功能待进一步了解
    bl __libc_init_array
 801220a:	f000 f813 	bl	8012234 <__libc_init_array>
/* Call the application's entry point.*/
	bl	main
 801220e:	f7fd fc11 	bl	800fa34 <main>

08012212 <LoopForever>:
	


LoopForever:
    b LoopForever
 8012212:	e7fe      	b.n	8012212 <LoopForever>
  ldr   sp, =_estack    /* Atollic update: set stack pointer */
 8012214:	2000ffff 	.word	0x2000ffff
	ldr	r3, =_sidata
 8012218:	08012ee0 	.word	0x08012ee0
	ldr	r0, =_sdata
 801221c:	20004000 	.word	0x20004000
	ldr	r3, =_edata
 8012220:	200040a0 	.word	0x200040a0
	ldr	r2, =_sbss
 8012224:	200040a0 	.word	0x200040a0
	ldr	r3, = _ebss
 8012228:	20007c78 	.word	0x20007c78

0801222c <ADC1_IRQHandler>:
*/
    .section	.text.Default_Handler,"ax",%progbits
Default_Handler:
    //Infinite_Loop:
	//b	Infinite_Loop
	push  {lr}        //【20200812】修改.s文件，缺省中断，直接返回
 801222c:	b500      	push	{lr}
    nop
 801222e:	bf00      	nop
    pop   {pc}
 8012230:	bd00      	pop	{pc}
	...

08012234 <__libc_init_array>:
 8012234:	b570      	push	{r4, r5, r6, lr}
 8012236:	4e0d      	ldr	r6, [pc, #52]	; (801226c <__libc_init_array+0x38>)
 8012238:	4c0d      	ldr	r4, [pc, #52]	; (8012270 <__libc_init_array+0x3c>)
 801223a:	1ba4      	subs	r4, r4, r6
 801223c:	10a4      	asrs	r4, r4, #2
 801223e:	2500      	movs	r5, #0
 8012240:	42a5      	cmp	r5, r4
 8012242:	d109      	bne.n	8012258 <__libc_init_array+0x24>
 8012244:	4e0b      	ldr	r6, [pc, #44]	; (8012274 <__libc_init_array+0x40>)
 8012246:	4c0c      	ldr	r4, [pc, #48]	; (8012278 <__libc_init_array+0x44>)
 8012248:	f000 f83a 	bl	80122c0 <_init>
 801224c:	1ba4      	subs	r4, r4, r6
 801224e:	10a4      	asrs	r4, r4, #2
 8012250:	2500      	movs	r5, #0
 8012252:	42a5      	cmp	r5, r4
 8012254:	d105      	bne.n	8012262 <__libc_init_array+0x2e>
 8012256:	bd70      	pop	{r4, r5, r6, pc}
 8012258:	f856 3025 	ldr.w	r3, [r6, r5, lsl #2]
 801225c:	4798      	blx	r3
 801225e:	3501      	adds	r5, #1
 8012260:	e7ee      	b.n	8012240 <__libc_init_array+0xc>
 8012262:	f856 3025 	ldr.w	r3, [r6, r5, lsl #2]
 8012266:	4798      	blx	r3
 8012268:	3501      	adds	r5, #1
 801226a:	e7f2      	b.n	8012252 <__libc_init_array+0x1e>
 801226c:	08012ed0 	.word	0x08012ed0
 8012270:	08012ed0 	.word	0x08012ed0
 8012274:	08012ed0 	.word	0x08012ed0
 8012278:	08012ed4 	.word	0x08012ed4

0801227c <memcpy>:
 801227c:	b510      	push	{r4, lr}
 801227e:	1e43      	subs	r3, r0, #1
 8012280:	440a      	add	r2, r1
 8012282:	4291      	cmp	r1, r2
 8012284:	d100      	bne.n	8012288 <memcpy+0xc>
 8012286:	bd10      	pop	{r4, pc}
 8012288:	f811 4b01 	ldrb.w	r4, [r1], #1
 801228c:	f803 4f01 	strb.w	r4, [r3, #1]!
 8012290:	e7f7      	b.n	8012282 <memcpy+0x6>

08012292 <memset>:
 8012292:	4402      	add	r2, r0
 8012294:	4603      	mov	r3, r0
 8012296:	4293      	cmp	r3, r2
 8012298:	d100      	bne.n	801229c <memset+0xa>
 801229a:	4770      	bx	lr
 801229c:	f803 1b01 	strb.w	r1, [r3], #1
 80122a0:	e7f9      	b.n	8012296 <memset+0x4>

080122a2 <strcat>:
 80122a2:	b510      	push	{r4, lr}
 80122a4:	4603      	mov	r3, r0
 80122a6:	781a      	ldrb	r2, [r3, #0]
 80122a8:	1c5c      	adds	r4, r3, #1
 80122aa:	b93a      	cbnz	r2, 80122bc <strcat+0x1a>
 80122ac:	3b01      	subs	r3, #1
 80122ae:	f811 2b01 	ldrb.w	r2, [r1], #1
 80122b2:	f803 2f01 	strb.w	r2, [r3, #1]!
 80122b6:	2a00      	cmp	r2, #0
 80122b8:	d1f9      	bne.n	80122ae <strcat+0xc>
 80122ba:	bd10      	pop	{r4, pc}
 80122bc:	4623      	mov	r3, r4
 80122be:	e7f2      	b.n	80122a6 <strcat+0x4>

080122c0 <_init>:
 80122c0:	b5f8      	push	{r3, r4, r5, r6, r7, lr}
 80122c2:	bf00      	nop
 80122c4:	bcf8      	pop	{r3, r4, r5, r6, r7}
 80122c6:	bc08      	pop	{r3}
 80122c8:	469e      	mov	lr, r3
 80122ca:	4770      	bx	lr

080122cc <_fini>:
 80122cc:	b5f8      	push	{r3, r4, r5, r6, r7, lr}
 80122ce:	bf00      	nop
 80122d0:	bcf8      	pop	{r3, r4, r5, r6, r7}
 80122d2:	bc08      	pop	{r3}
 80122d4:	469e      	mov	lr, r3
 80122d6:	4770      	bx	lr
